
/home/tliao/Desktop/VCUBoards/Energica_Display_Test/chademo_firmware/build/energica_display_manual.elf:     file format elf32-littlearm

Sections:
Idx Name          Size      VMA       LMA       File off  Algn
  0 .text         0000c1c0  10000000  10000000  00001000  2**3
                  CONTENTS, ALLOC, LOAD, READONLY, CODE
  1 .rodata       00000e70  1000c1c0  1000c1c0  0000d1c0  2**3
                  CONTENTS, ALLOC, LOAD, READONLY, DATA
  2 .ARM.exidx    00000008  1000d030  1000d030  0000e030  2**2
                  CONTENTS, ALLOC, LOAD, READONLY, DATA
  3 .binary_info  00000028  1000d038  1000d038  0000e038  2**2
                  CONTENTS, ALLOC, LOAD, READONLY, DATA
  4 .ram_vector_table 00000110  20000000  20000000  00011000  2**2
                  ALLOC
  5 .uninitialized_data 00000000  20000110  20000110  000104d8  2**0
                  CONTENTS
  6 .data         00001464  20000110  1000d060  0000e110  2**3
                  CONTENTS, ALLOC, LOAD, READONLY, CODE
  7 .tdata        00000000  20001574  20001574  000104d8  2**0
                  CONTENTS, ALLOC, LOAD, DATA, THREAD_LOCAL
  8 .tbss         00000000  20001574  20001574  00000000  2**0
                  ALLOC, THREAD_LOCAL
  9 .bss          00000e44  20001578  1000e4c4  00010578  2**3
                  ALLOC
 10 .heap         00000800  200023bc  200023bc  000104d8  2**2
                  CONTENTS, READONLY
 11 .scratch_x    00000000  20080000  20080000  00010cd8  2**0
                  CONTENTS
 12 .scratch_y    00000000  20081000  20081000  00010cd8  2**0
                  CONTENTS
 13 .stack_dummy  00000800  20081000  20081000  00010ce0  2**5
                  CONTENTS, READONLY
 14 .flash_end    00000014  1000e4c4  1000e4c4  000104c4  2**2
                  CONTENTS, ALLOC, LOAD, READONLY, DATA
 15 .ARM.attributes 00000034  00000000  00000000  000114e0  2**0
                  CONTENTS, READONLY
 16 .comment      00000043  00000000  00000000  00011514  2**0
                  CONTENTS, READONLY
 17 .debug_info   0004ef9e  00000000  00000000  00011557  2**0
                  CONTENTS, READONLY, DEBUGGING, OCTETS
 18 .debug_abbrev 0000f619  00000000  00000000  000604f5  2**0
                  CONTENTS, READONLY, DEBUGGING, OCTETS
 19 .debug_loclists 00025aa8  00000000  00000000  0006fb0e  2**0
                  CONTENTS, READONLY, DEBUGGING, OCTETS
 20 .debug_aranges 00001c78  00000000  00000000  000955b8  2**3
                  CONTENTS, READONLY, DEBUGGING, OCTETS
 21 .debug_rnglists 00004c89  00000000  00000000  00097230  2**0
                  CONTENTS, READONLY, DEBUGGING, OCTETS
 22 .debug_line   0002de39  00000000  00000000  0009beb9  2**0
                  CONTENTS, READONLY, DEBUGGING, OCTETS
 23 .debug_str    0000bdba  00000000  00000000  000c9cf2  2**0
                  CONTENTS, READONLY, DEBUGGING, OCTETS
 24 .debug_frame  0000453c  00000000  00000000  000d5aac  2**2
                  CONTENTS, READONLY, DEBUGGING, OCTETS
 25 .debug_line_str 000001c9  00000000  00000000  000d9fe8  2**0
                  CONTENTS, READONLY, DEBUGGING, OCTETS

/home/tliao/Desktop/VCUBoards/Energica_Display_Test/chademo_firmware/build/energica_display_manual.elf:     file format elf32-littlearm


Disassembly of section .text:

10000000 <__VECTOR_TABLE>:
10000000:	20082000 	.word	0x20082000
10000004:	1000015d 	.word	0x1000015d
10000008:	10000113 	.word	0x10000113
1000000c:	10000115 	.word	0x10000115
10000010:	10000111 	.word	0x10000111
10000014:	10000111 	.word	0x10000111
10000018:	10000111 	.word	0x10000111
1000001c:	10000111 	.word	0x10000111
10000020:	10000111 	.word	0x10000111
10000024:	10000111 	.word	0x10000111
10000028:	10000111 	.word	0x10000111
1000002c:	10000117 	.word	0x10000117
10000030:	10000111 	.word	0x10000111
10000034:	10000111 	.word	0x10000111
10000038:	10000119 	.word	0x10000119
1000003c:	1000011b 	.word	0x1000011b
10000040:	1000011d 	.word	0x1000011d
10000044:	1000011d 	.word	0x1000011d
10000048:	1000011d 	.word	0x1000011d
1000004c:	1000011d 	.word	0x1000011d
10000050:	1000011d 	.word	0x1000011d
10000054:	1000011d 	.word	0x1000011d
10000058:	1000011d 	.word	0x1000011d
1000005c:	1000011d 	.word	0x1000011d
10000060:	1000011d 	.word	0x1000011d
10000064:	1000011d 	.word	0x1000011d
10000068:	1000011d 	.word	0x1000011d
1000006c:	1000011d 	.word	0x1000011d
10000070:	1000011d 	.word	0x1000011d
10000074:	1000011d 	.word	0x1000011d
10000078:	1000011d 	.word	0x1000011d
1000007c:	1000011d 	.word	0x1000011d
10000080:	1000011d 	.word	0x1000011d
10000084:	1000011d 	.word	0x1000011d
10000088:	1000011d 	.word	0x1000011d
1000008c:	1000011d 	.word	0x1000011d
10000090:	1000011d 	.word	0x1000011d
10000094:	1000011d 	.word	0x1000011d
10000098:	1000011d 	.word	0x1000011d
1000009c:	1000011d 	.word	0x1000011d
100000a0:	1000011d 	.word	0x1000011d
100000a4:	1000011d 	.word	0x1000011d
100000a8:	1000011d 	.word	0x1000011d
100000ac:	1000011d 	.word	0x1000011d
100000b0:	1000011d 	.word	0x1000011d
100000b4:	1000011d 	.word	0x1000011d
100000b8:	1000011d 	.word	0x1000011d
100000bc:	1000011d 	.word	0x1000011d
100000c0:	1000011d 	.word	0x1000011d
100000c4:	1000011d 	.word	0x1000011d
100000c8:	1000011d 	.word	0x1000011d
100000cc:	1000011d 	.word	0x1000011d
100000d0:	1000011d 	.word	0x1000011d
100000d4:	1000011d 	.word	0x1000011d
100000d8:	1000011d 	.word	0x1000011d
100000dc:	1000011d 	.word	0x1000011d
100000e0:	1000011d 	.word	0x1000011d
100000e4:	1000011d 	.word	0x1000011d
100000e8:	1000011d 	.word	0x1000011d
100000ec:	1000011d 	.word	0x1000011d
100000f0:	1000011d 	.word	0x1000011d
100000f4:	1000011d 	.word	0x1000011d
100000f8:	1000011d 	.word	0x1000011d
100000fc:	1000011d 	.word	0x1000011d
10000100:	1000011d 	.word	0x1000011d
10000104:	1000011d 	.word	0x1000011d
10000108:	1000011d 	.word	0x1000011d
1000010c:	1000011d 	.word	0x1000011d

10000110 <isr_invalid>:
10000110:	be00      	bkpt	0x0000

10000112 <isr_nmi>:
10000112:	be00      	bkpt	0x0000

10000114 <isr_hardfault>:
10000114:	be00      	bkpt	0x0000

10000116 <isr_svcall>:
10000116:	be00      	bkpt	0x0000

10000118 <isr_pendsv>:
10000118:	be00      	bkpt	0x0000

1000011a <isr_systick>:
1000011a:	be00      	bkpt	0x0000

1000011c <__unhandled_user_irq>:
1000011c:	f3ef 8005 	mrs	r0, IPSR
10000120:	3810      	subs	r0, #16

10000122 <unhandled_user_irq_num_in_r0>:
10000122:	be00      	bkpt	0x0000

10000124 <binary_info_header>:
10000124:	7188ebf2 	.word	0x7188ebf2
10000128:	1000d038 	.word	0x1000d038
1000012c:	1000d060 	.word	0x1000d060
10000130:	100001a8 	.word	0x100001a8
10000134:	e71aa390 	.word	0xe71aa390

10000138 <__binary_info_header_end>:
10000138:	ffffded3 	.word	0xffffded3
1000013c:	10210142 	.word	0x10210142
10000140:	000001ff 	.word	0x000001ff
10000144:	0000e38c 	.word	0x0000e38c
10000148:	ab123579 	.word	0xab123579

1000014c <_entry_point>:
1000014c:	f04f 0000 	mov.w	r0, #0

10000150 <_enter_vtable_in_r0>:
10000150:	4920      	ldr	r1, [pc, #128]	@ (100001d4 <data_cpy_table+0x2c>)
10000152:	6008      	str	r0, [r1, #0]
10000154:	c806      	ldmia	r0!, {r1, r2}
10000156:	f381 8808 	msr	MSP, r1
1000015a:	4710      	bx	r2

1000015c <_reset_handler>:
1000015c:	f04f 4050 	mov.w	r0, #3489660928	@ 0xd0000000
10000160:	6800      	ldr	r0, [r0, #0]
10000162:	b110      	cbz	r0, 1000016a <hold_non_core0_in_bootrom+0x6>

10000164 <hold_non_core0_in_bootrom>:
10000164:	f04f 0000 	mov.w	r0, #0
10000168:	e7f2      	b.n	10000150 <_enter_vtable_in_r0>
1000016a:	a40f      	add	r4, pc, #60	@ (adr r4, 100001a8 <data_cpy_table>)
1000016c:	cc0e      	ldmia	r4!, {r1, r2, r3}
1000016e:	2900      	cmp	r1, #0
10000170:	d002      	beq.n	10000178 <hold_non_core0_in_bootrom+0x14>
10000172:	f000 f815 	bl	100001a0 <data_cpy>
10000176:	e7f9      	b.n	1000016c <hold_non_core0_in_bootrom+0x8>
10000178:	4917      	ldr	r1, [pc, #92]	@ (100001d8 <data_cpy_table+0x30>)
1000017a:	4a18      	ldr	r2, [pc, #96]	@ (100001dc <data_cpy_table+0x34>)
1000017c:	2000      	movs	r0, #0
1000017e:	e000      	b.n	10000182 <bss_fill_test>

10000180 <bss_fill_loop>:
10000180:	c101      	stmia	r1!, {r0}

10000182 <bss_fill_test>:
10000182:	4291      	cmp	r1, r2
10000184:	d1fc      	bne.n	10000180 <bss_fill_loop>

10000186 <platform_entry>:
10000186:	2000      	movs	r0, #0
10000188:	f380 880a 	msr	MSPLIM, r0
1000018c:	4914      	ldr	r1, [pc, #80]	@ (100001e0 <data_cpy_table+0x38>)
1000018e:	4788      	blx	r1
10000190:	4914      	ldr	r1, [pc, #80]	@ (100001e4 <data_cpy_table+0x3c>)
10000192:	4788      	blx	r1
10000194:	4914      	ldr	r1, [pc, #80]	@ (100001e8 <data_cpy_table+0x40>)
10000196:	4788      	blx	r1
10000198:	be00      	bkpt	0x0000
1000019a:	e7fd      	b.n	10000198 <platform_entry+0x12>

1000019c <data_cpy_loop>:
1000019c:	c901      	ldmia	r1!, {r0}
1000019e:	c201      	stmia	r2!, {r0}

100001a0 <data_cpy>:
100001a0:	429a      	cmp	r2, r3
100001a2:	d3fb      	bcc.n	1000019c <data_cpy_loop>
100001a4:	4770      	bx	lr
100001a6:	bf00      	nop

100001a8 <data_cpy_table>:
100001a8:	1000d060 	.word	0x1000d060
100001ac:	20000110 	.word	0x20000110
100001b0:	20001574 	.word	0x20001574
100001b4:	1000e4c4 	.word	0x1000e4c4
100001b8:	20080000 	.word	0x20080000
100001bc:	20080000 	.word	0x20080000
100001c0:	1000e4c4 	.word	0x1000e4c4
100001c4:	20081000 	.word	0x20081000
100001c8:	20081000 	.word	0x20081000
100001cc:	00000000 	.word	0x00000000
100001d0:	4770      	bx	lr
100001d2:	0000      	.short	0x0000
100001d4:	e000ed08 	.word	0xe000ed08
100001d8:	20001574 	.word	0x20001574
100001dc:	200023bc 	.word	0x200023bc
100001e0:	10003de9 	.word	0x10003de9
100001e4:	10000295 	.word	0x10000295
100001e8:	10003dad 	.word	0x10003dad

100001ec <_init>:
100001ec:	b5f8      	push	{r3, r4, r5, r6, r7, lr}
100001ee:	bf00      	nop

100001f0 <__do_global_dtors_aux>:
100001f0:	b510      	push	{r4, lr}
100001f2:	4c05      	ldr	r4, [pc, #20]	@ (10000208 <__do_global_dtors_aux+0x18>)
100001f4:	7823      	ldrb	r3, [r4, #0]
100001f6:	b933      	cbnz	r3, 10000206 <__do_global_dtors_aux+0x16>
100001f8:	4b04      	ldr	r3, [pc, #16]	@ (1000020c <__do_global_dtors_aux+0x1c>)
100001fa:	b113      	cbz	r3, 10000202 <__do_global_dtors_aux+0x12>
100001fc:	4804      	ldr	r0, [pc, #16]	@ (10000210 <__do_global_dtors_aux+0x20>)
100001fe:	f3af 8000 	nop.w
10000202:	2301      	movs	r3, #1
10000204:	7023      	strb	r3, [r4, #0]
10000206:	bd10      	pop	{r4, pc}
10000208:	20001700 	.word	0x20001700
1000020c:	00000000 	.word	0x00000000
10000210:	1000c1c0 	.word	0x1000c1c0

10000214 <frame_dummy>:
10000214:	b508      	push	{r3, lr}
10000216:	4b03      	ldr	r3, [pc, #12]	@ (10000224 <frame_dummy+0x10>)
10000218:	b11b      	cbz	r3, 10000222 <frame_dummy+0xe>
1000021a:	4903      	ldr	r1, [pc, #12]	@ (10000228 <frame_dummy+0x14>)
1000021c:	4803      	ldr	r0, [pc, #12]	@ (1000022c <frame_dummy+0x18>)
1000021e:	f3af 8000 	nop.w
10000222:	bd08      	pop	{r3, pc}
10000224:	00000000 	.word	0x00000000
10000228:	20001704 	.word	0x20001704
1000022c:	1000c1c0 	.word	0x1000c1c0

10000230 <print_frame>:
10000230:	b5f0      	push	{r4, r5, r6, r7, lr}
10000232:	460b      	mov	r3, r1
10000234:	4617      	mov	r7, r2
10000236:	4604      	mov	r4, r0
10000238:	461a      	mov	r2, r3
1000023a:	793b      	ldrb	r3, [r7, #4]
1000023c:	b083      	sub	sp, #12
1000023e:	9300      	str	r3, [sp, #0]
10000240:	4621      	mov	r1, r4
10000242:	4810      	ldr	r0, [pc, #64]	@ (10000284 <print_frame+0x54>)
10000244:	683b      	ldr	r3, [r7, #0]
10000246:	f003 ffc9 	bl	100041dc <__wrap_printf>
1000024a:	793d      	ldrb	r5, [r7, #4]
1000024c:	b16d      	cbz	r5, 1000026a <print_frame+0x3a>
1000024e:	1d3e      	adds	r6, r7, #4
10000250:	4634      	mov	r4, r6
10000252:	480d      	ldr	r0, [pc, #52]	@ (10000288 <print_frame+0x58>)
10000254:	f816 1f01 	ldrb.w	r1, [r6, #1]!
10000258:	f003 ffc0 	bl	100041dc <__wrap_printf>
1000025c:	3c03      	subs	r4, #3
1000025e:	793d      	ldrb	r5, [r7, #4]
10000260:	1be4      	subs	r4, r4, r7
10000262:	42a5      	cmp	r5, r4
10000264:	dcf4      	bgt.n	10000250 <print_frame+0x20>
10000266:	2d07      	cmp	r5, #7
10000268:	dc05      	bgt.n	10000276 <print_frame+0x46>
1000026a:	4808      	ldr	r0, [pc, #32]	@ (1000028c <print_frame+0x5c>)
1000026c:	3501      	adds	r5, #1
1000026e:	f003 ffb5 	bl	100041dc <__wrap_printf>
10000272:	2d08      	cmp	r5, #8
10000274:	d1f9      	bne.n	1000026a <print_frame+0x3a>
10000276:	4806      	ldr	r0, [pc, #24]	@ (10000290 <print_frame+0x60>)
10000278:	b003      	add	sp, #12
1000027a:	e8bd 40f0 	ldmia.w	sp!, {r4, r5, r6, r7, lr}
1000027e:	f003 bf35 	b.w	100040ec <__wrap_puts>
10000282:	bf00      	nop
10000284:	1000c1c0 	.word	0x1000c1c0
10000288:	1000c1dc 	.word	0x1000c1dc
1000028c:	1000c1e4 	.word	0x1000c1e4
10000290:	1000c338 	.word	0x1000c338

10000294 <main>:
10000294:	e92d 4ff0 	stmdb	sp!, {r4, r5, r6, r7, r8, r9, sl, fp, lr}
10000298:	b0a3      	sub	sp, #140	@ 0x8c
1000029a:	f003 fef7 	bl	1000408c <stdio_init_all>
1000029e:	f640 10c4 	movw	r0, #2500	@ 0x9c4
100002a2:	f001 fcd9 	bl	10001c58 <sleep_ms>
100002a6:	2019      	movs	r0, #25
100002a8:	f000 fec8 	bl	1000103c <gpio_init>
100002ac:	2319      	movs	r3, #25
100002ae:	f04f 0201 	mov.w	r2, #1
100002b2:	ec42 3044 	gpioc_bit_oe_put r3, r2
100002b6:	f000 fb09 	bl	100008cc <hal_gpio_init>
100002ba:	48a1      	ldr	r0, [pc, #644]	@ (10000540 <main+0x2ac>)
100002bc:	f003 ff16 	bl	100040ec <__wrap_puts>
100002c0:	48a0      	ldr	r0, [pc, #640]	@ (10000544 <main+0x2b0>)
100002c2:	f003 ff13 	bl	100040ec <__wrap_puts>
100002c6:	48a0      	ldr	r0, [pc, #640]	@ (10000548 <main+0x2b4>)
100002c8:	f003 ff10 	bl	100040ec <__wrap_puts>
100002cc:	489f      	ldr	r0, [pc, #636]	@ (1000054c <main+0x2b8>)
100002ce:	f003 ff0d 	bl	100040ec <__wrap_puts>
100002d2:	f44f 71fa 	mov.w	r1, #500	@ 0x1f4
100002d6:	2000      	movs	r0, #0
100002d8:	f000 fc20 	bl	10000b1c <hal_can_init_with_bitrate>
100002dc:	b930      	cbnz	r0, 100002ec <main+0x58>
100002de:	489c      	ldr	r0, [pc, #624]	@ (10000550 <main+0x2bc>)
100002e0:	f003 ff04 	bl	100040ec <__wrap_puts>
100002e4:	2064      	movs	r0, #100	@ 0x64
100002e6:	f001 fcb7 	bl	10001c58 <sleep_ms>
100002ea:	e7fb      	b.n	100002e4 <main+0x50>
100002ec:	f44f 71fa 	mov.w	r1, #500	@ 0x1f4
100002f0:	4898      	ldr	r0, [pc, #608]	@ (10000554 <main+0x2c0>)
100002f2:	f003 ff73 	bl	100041dc <__wrap_printf>
100002f6:	f001 fd49 	bl	10001d8c <time_us_64>
100002fa:	2300      	movs	r3, #0
100002fc:	4683      	mov	fp, r0
100002fe:	4c96      	ldr	r4, [pc, #600]	@ (10000558 <main+0x2c4>)
10000300:	4e96      	ldr	r6, [pc, #600]	@ (1000055c <main+0x2c8>)
10000302:	f8df 82a4 	ldr.w	r8, [pc, #676]	@ 100005a8 <main+0x314>
10000306:	9301      	str	r3, [sp, #4]
10000308:	9100      	str	r1, [sp, #0]
1000030a:	f10d 0918 	add.w	r9, sp, #24
1000030e:	f000 fdfd 	bl	10000f0c <hal_millis>
10000312:	4607      	mov	r7, r0
10000314:	2000      	movs	r0, #0
10000316:	f003 febb 	bl	10004090 <stdio_getchar_timeout_us>
1000031a:	1c83      	adds	r3, r0, #2
1000031c:	d012      	beq.n	10000344 <main+0xb0>
1000031e:	280d      	cmp	r0, #13
10000320:	6823      	ldr	r3, [r4, #0]
10000322:	d03e      	beq.n	100003a2 <main+0x10e>
10000324:	280a      	cmp	r0, #10
10000326:	d03c      	beq.n	100003a2 <main+0x10e>
10000328:	2b7d      	cmp	r3, #125	@ 0x7d
1000032a:	dcf3      	bgt.n	10000314 <main+0x80>
1000032c:	f1a0 0220 	sub.w	r2, r0, #32
10000330:	2a5e      	cmp	r2, #94	@ 0x5e
10000332:	d8ef      	bhi.n	10000314 <main+0x80>
10000334:	54f0      	strb	r0, [r6, r3]
10000336:	3301      	adds	r3, #1
10000338:	2000      	movs	r0, #0
1000033a:	6023      	str	r3, [r4, #0]
1000033c:	f003 fea8 	bl	10004090 <stdio_getchar_timeout_us>
10000340:	1c83      	adds	r3, r0, #2
10000342:	d1ec      	bne.n	1000031e <main+0x8a>
10000344:	f001 fd22 	bl	10001d8c <time_us_64>
10000348:	9b00      	ldr	r3, [sp, #0]
1000034a:	ebbb 0000 	subs.w	r0, fp, r0
1000034e:	eb63 0101 	sbc.w	r1, r3, r1
10000352:	2801      	cmp	r0, #1
10000354:	f171 0100 	sbcs.w	r1, r1, #0
10000358:	f2c0 8156 	blt.w	10000608 <main+0x374>
1000035c:	f898 3000 	ldrb.w	r3, [r8]
10000360:	b1ab      	cbz	r3, 1000038e <main+0xfa>
10000362:	f8d8 3008 	ldr.w	r3, [r8, #8]
10000366:	f8d8 2004 	ldr.w	r2, [r8, #4]
1000036a:	1afb      	subs	r3, r7, r3
1000036c:	4293      	cmp	r3, r2
1000036e:	d30e      	bcc.n	1000038e <main+0xfa>
10000370:	2000      	movs	r0, #0
10000372:	497b      	ldr	r1, [pc, #492]	@ (10000560 <main+0x2cc>)
10000374:	f8c8 7008 	str.w	r7, [r8, #8]
10000378:	f000 fc70 	bl	10000c5c <hal_can_send>
1000037c:	b138      	cbz	r0, 1000038e <main+0xfa>
1000037e:	e1b4      	b.n	100006ea <main+0x456>
10000380:	f000 fdc4 	bl	10000f0c <hal_millis>
10000384:	aa0e      	add	r2, sp, #56	@ 0x38
10000386:	4601      	mov	r1, r0
10000388:	4876      	ldr	r0, [pc, #472]	@ (10000564 <main+0x2d0>)
1000038a:	f7ff ff51 	bl	10000230 <print_frame>
1000038e:	2000      	movs	r0, #0
10000390:	a90e      	add	r1, sp, #56	@ 0x38
10000392:	f000 fd3b 	bl	10000e0c <hal_can_recv>
10000396:	2800      	cmp	r0, #0
10000398:	d1f2      	bne.n	10000380 <main+0xec>
1000039a:	2005      	movs	r0, #5
1000039c:	f001 fc5c 	bl	10001c58 <sleep_ms>
100003a0:	e7b5      	b.n	1000030e <main+0x7a>
100003a2:	2b00      	cmp	r3, #0
100003a4:	ddb6      	ble.n	10000314 <main+0x80>
100003a6:	f04f 0200 	mov.w	r2, #0
100003aa:	54f2      	strb	r2, [r6, r3]
100003ac:	7833      	ldrb	r3, [r6, #0]
100003ae:	f8df a1ac 	ldr.w	sl, [pc, #428]	@ 1000055c <main+0x2c8>
100003b2:	2b20      	cmp	r3, #32
100003b4:	d103      	bne.n	100003be <main+0x12a>
100003b6:	f81a 3f01 	ldrb.w	r3, [sl, #1]!
100003ba:	2b20      	cmp	r3, #32
100003bc:	d0fb      	beq.n	100003b6 <main+0x122>
100003be:	b333      	cbz	r3, 1000040e <main+0x17a>
100003c0:	464a      	mov	r2, r9
100003c2:	4650      	mov	r0, sl
100003c4:	4968      	ldr	r1, [pc, #416]	@ (10000568 <main+0x2d4>)
100003c6:	ab0e      	add	r3, sp, #56	@ 0x38
100003c8:	f006 ffbc 	bl	10007344 <sscanf>
100003cc:	2802      	cmp	r0, #2
100003ce:	d066      	beq.n	1000049e <main+0x20a>
100003d0:	f89a 3000 	ldrb.w	r3, [sl]
100003d4:	2b73      	cmp	r3, #115	@ 0x73
100003d6:	d01d      	beq.n	10000414 <main+0x180>
100003d8:	2b72      	cmp	r3, #114	@ 0x72
100003da:	d104      	bne.n	100003e6 <main+0x152>
100003dc:	f89a 3001 	ldrb.w	r3, [sl, #1]
100003e0:	2b20      	cmp	r3, #32
100003e2:	f000 8195 	beq.w	10000710 <main+0x47c>
100003e6:	2204      	movs	r2, #4
100003e8:	4650      	mov	r0, sl
100003ea:	4960      	ldr	r1, [pc, #384]	@ (1000056c <main+0x2d8>)
100003ec:	f007 f8be 	bl	1000756c <strncmp>
100003f0:	2800      	cmp	r0, #0
100003f2:	f000 8103 	beq.w	100005fc <main+0x368>
100003f6:	2204      	movs	r2, #4
100003f8:	4650      	mov	r0, sl
100003fa:	495d      	ldr	r1, [pc, #372]	@ (10000570 <main+0x2dc>)
100003fc:	f007 f8b6 	bl	1000756c <strncmp>
10000400:	2800      	cmp	r0, #0
10000402:	f000 80d3 	beq.w	100005ac <main+0x318>
10000406:	4651      	mov	r1, sl
10000408:	485a      	ldr	r0, [pc, #360]	@ (10000574 <main+0x2e0>)
1000040a:	f003 fee7 	bl	100041dc <__wrap_printf>
1000040e:	2300      	movs	r3, #0
10000410:	6023      	str	r3, [r4, #0]
10000412:	e77f      	b.n	10000314 <main+0x80>
10000414:	f89a 3001 	ldrb.w	r3, [sl, #1]
10000418:	2b20      	cmp	r3, #32
1000041a:	d1e4      	bne.n	100003e6 <main+0x152>
1000041c:	f10a 0002 	add.w	r0, sl, #2
10000420:	2200      	movs	r2, #0
10000422:	a905      	add	r1, sp, #20
10000424:	9005      	str	r0, [sp, #20]
10000426:	f006 ff81 	bl	1000732c <strtoul>
1000042a:	2300      	movs	r3, #0
1000042c:	e9cd 330b 	strd	r3, r3, [sp, #44]	@ 0x2c
10000430:	900a      	str	r0, [sp, #40]	@ 0x28
10000432:	9805      	ldr	r0, [sp, #20]
10000434:	930d      	str	r3, [sp, #52]	@ 0x34
10000436:	7803      	ldrb	r3, [r0, #0]
10000438:	2b20      	cmp	r3, #32
1000043a:	d104      	bne.n	10000446 <main+0x1b2>
1000043c:	3001      	adds	r0, #1
1000043e:	9005      	str	r0, [sp, #20]
10000440:	7803      	ldrb	r3, [r0, #0]
10000442:	2b20      	cmp	r3, #32
10000444:	d0fa      	beq.n	1000043c <main+0x1a8>
10000446:	f10d 0a2c 	add.w	sl, sp, #44	@ 0x2c
1000044a:	b1d3      	cbz	r3, 10000482 <main+0x1ee>
1000044c:	2200      	movs	r2, #0
1000044e:	a905      	add	r1, sp, #20
10000450:	f006 ff6c 	bl	1000732c <strtoul>
10000454:	f80a 0f01 	strb.w	r0, [sl, #1]!
10000458:	f89d 302c 	ldrb.w	r3, [sp, #44]	@ 0x2c
1000045c:	3301      	adds	r3, #1
1000045e:	f88d 302c 	strb.w	r3, [sp, #44]	@ 0x2c
10000462:	9b05      	ldr	r3, [sp, #20]
10000464:	781a      	ldrb	r2, [r3, #0]
10000466:	2a20      	cmp	r2, #32
10000468:	d104      	bne.n	10000474 <main+0x1e0>
1000046a:	3301      	adds	r3, #1
1000046c:	9305      	str	r3, [sp, #20]
1000046e:	781a      	ldrb	r2, [r3, #0]
10000470:	2a20      	cmp	r2, #32
10000472:	d0fa      	beq.n	1000046a <main+0x1d6>
10000474:	ab0d      	add	r3, sp, #52	@ 0x34
10000476:	4553      	cmp	r3, sl
10000478:	d003      	beq.n	10000482 <main+0x1ee>
1000047a:	9805      	ldr	r0, [sp, #20]
1000047c:	7803      	ldrb	r3, [r0, #0]
1000047e:	2b00      	cmp	r3, #0
10000480:	d1e4      	bne.n	1000044c <main+0x1b8>
10000482:	2000      	movs	r0, #0
10000484:	a90a      	add	r1, sp, #40	@ 0x28
10000486:	f000 fbe9 	bl	10000c5c <hal_can_send>
1000048a:	2800      	cmp	r0, #0
1000048c:	d0bf      	beq.n	1000040e <main+0x17a>
1000048e:	f000 fd3d 	bl	10000f0c <hal_millis>
10000492:	aa0a      	add	r2, sp, #40	@ 0x28
10000494:	4601      	mov	r1, r0
10000496:	4838      	ldr	r0, [pc, #224]	@ (10000578 <main+0x2e4>)
10000498:	f7ff feca 	bl	10000230 <print_frame>
1000049c:	e7b7      	b.n	1000040e <main+0x17a>
1000049e:	2200      	movs	r2, #0
100004a0:	a80e      	add	r0, sp, #56	@ 0x38
100004a2:	4611      	mov	r1, r2
100004a4:	f006 ff42 	bl	1000732c <strtoul>
100004a8:	f8b9 3000 	ldrh.w	r3, [r9]
100004ac:	4682      	mov	sl, r0
100004ae:	2b76      	cmp	r3, #118	@ 0x76
100004b0:	f000 8123 	beq.w	100006fa <main+0x466>
100004b4:	2b61      	cmp	r3, #97	@ 0x61
100004b6:	f000 8128 	beq.w	1000070a <main+0x476>
100004ba:	f8d9 3000 	ldr.w	r3, [r9]
100004be:	4a2f      	ldr	r2, [pc, #188]	@ (1000057c <main+0x2e8>)
100004c0:	4293      	cmp	r3, r2
100004c2:	f000 8183 	beq.w	100007cc <main+0x538>
100004c6:	4a2e      	ldr	r2, [pc, #184]	@ (10000580 <main+0x2ec>)
100004c8:	4293      	cmp	r3, r2
100004ca:	f000 8182 	beq.w	100007d2 <main+0x53e>
100004ce:	f8d9 3000 	ldr.w	r3, [r9]
100004d2:	4a2c      	ldr	r2, [pc, #176]	@ (10000584 <main+0x2f0>)
100004d4:	4293      	cmp	r3, r2
100004d6:	f000 818b 	beq.w	100007f0 <main+0x55c>
100004da:	f8d9 3000 	ldr.w	r3, [r9]
100004de:	4a2a      	ldr	r2, [pc, #168]	@ (10000588 <main+0x2f4>)
100004e0:	4293      	cmp	r3, r2
100004e2:	f000 818e 	beq.w	10000802 <main+0x56e>
100004e6:	f8d9 3000 	ldr.w	r3, [r9]
100004ea:	4a28      	ldr	r2, [pc, #160]	@ (1000058c <main+0x2f8>)
100004ec:	4293      	cmp	r3, r2
100004ee:	f000 8191 	beq.w	10000814 <main+0x580>
100004f2:	4648      	mov	r0, r9
100004f4:	4926      	ldr	r1, [pc, #152]	@ (10000590 <main+0x2fc>)
100004f6:	f007 f89d 	bl	10007634 <strcmp>
100004fa:	2800      	cmp	r0, #0
100004fc:	f000 818e 	beq.w	1000081c <main+0x588>
10000500:	4648      	mov	r0, r9
10000502:	4924      	ldr	r1, [pc, #144]	@ (10000594 <main+0x300>)
10000504:	f007 f896 	bl	10007634 <strcmp>
10000508:	2800      	cmp	r0, #0
1000050a:	f000 818f 	beq.w	1000082c <main+0x598>
1000050e:	4648      	mov	r0, r9
10000510:	4921      	ldr	r1, [pc, #132]	@ (10000598 <main+0x304>)
10000512:	f007 f88f 	bl	10007634 <strcmp>
10000516:	2800      	cmp	r0, #0
10000518:	f000 8184 	beq.w	10000824 <main+0x590>
1000051c:	4648      	mov	r0, r9
1000051e:	491f      	ldr	r1, [pc, #124]	@ (1000059c <main+0x308>)
10000520:	f007 f888 	bl	10007634 <strcmp>
10000524:	2800      	cmp	r0, #0
10000526:	f000 8185 	beq.w	10000834 <main+0x5a0>
1000052a:	4648      	mov	r0, r9
1000052c:	491c      	ldr	r1, [pc, #112]	@ (100005a0 <main+0x30c>)
1000052e:	f007 f881 	bl	10007634 <strcmp>
10000532:	2800      	cmp	r0, #0
10000534:	f040 8182 	bne.w	1000083c <main+0x5a8>
10000538:	4b1a      	ldr	r3, [pc, #104]	@ (100005a4 <main+0x310>)
1000053a:	f883 a000 	strb.w	sl, [r3]
1000053e:	e0de      	b.n	100006fe <main+0x46a>
10000540:	1000c1e8 	.word	0x1000c1e8
10000544:	1000c2ac 	.word	0x1000c2ac
10000548:	1000c2f4 	.word	0x1000c2f4
1000054c:	1000c33c 	.word	0x1000c33c
10000550:	1000c400 	.word	0x1000c400
10000554:	1000c41c 	.word	0x1000c41c
10000558:	20002354 	.word	0x20002354
1000055c:	20001e44 	.word	0x20001e44
10000560:	20001f40 	.word	0x20001f40
10000564:	1000c738 	.word	0x1000c738
10000568:	1000c43c 	.word	0x1000c43c
1000056c:	1000c4f0 	.word	0x1000c4f0
10000570:	1000c508 	.word	0x1000c508
10000574:	1000c71c 	.word	0x1000c71c
10000578:	1000c4c4 	.word	0x1000c4c4
1000057c:	00636f73 	.word	0x00636f73
10000580:	74617473 	.word	0x74617473
10000584:	6c756166 	.word	0x6c756166
10000588:	7678616d 	.word	0x7678616d
1000058c:	00706163 	.word	0x00706163
10000590:	1000c474 	.word	0x1000c474
10000594:	1000c47c 	.word	0x1000c47c
10000598:	1000c484 	.word	0x1000c484
1000059c:	1000c48c 	.word	0x1000c48c
100005a0:	1000c494 	.word	0x1000c494
100005a4:	20000e24 	.word	0x20000e24
100005a8:	20001f34 	.word	0x20001f34
100005ac:	48a6      	ldr	r0, [pc, #664]	@ (10000848 <main+0x5b4>)
100005ae:	f003 fd9d 	bl	100040ec <__wrap_puts>
100005b2:	48a6      	ldr	r0, [pc, #664]	@ (1000084c <main+0x5b8>)
100005b4:	f003 fd9a 	bl	100040ec <__wrap_puts>
100005b8:	48a5      	ldr	r0, [pc, #660]	@ (10000850 <main+0x5bc>)
100005ba:	f003 fd97 	bl	100040ec <__wrap_puts>
100005be:	48a5      	ldr	r0, [pc, #660]	@ (10000854 <main+0x5c0>)
100005c0:	f003 fe0c 	bl	100041dc <__wrap_printf>
100005c4:	48a4      	ldr	r0, [pc, #656]	@ (10000858 <main+0x5c4>)
100005c6:	f003 fd91 	bl	100040ec <__wrap_puts>
100005ca:	48a4      	ldr	r0, [pc, #656]	@ (1000085c <main+0x5c8>)
100005cc:	f003 fd8e 	bl	100040ec <__wrap_puts>
100005d0:	48a3      	ldr	r0, [pc, #652]	@ (10000860 <main+0x5cc>)
100005d2:	f003 fd8b 	bl	100040ec <__wrap_puts>
100005d6:	48a3      	ldr	r0, [pc, #652]	@ (10000864 <main+0x5d0>)
100005d8:	f003 fe00 	bl	100041dc <__wrap_printf>
100005dc:	48a2      	ldr	r0, [pc, #648]	@ (10000868 <main+0x5d4>)
100005de:	f003 fd85 	bl	100040ec <__wrap_puts>
100005e2:	48a2      	ldr	r0, [pc, #648]	@ (1000086c <main+0x5d8>)
100005e4:	f003 fd82 	bl	100040ec <__wrap_puts>
100005e8:	48a1      	ldr	r0, [pc, #644]	@ (10000870 <main+0x5dc>)
100005ea:	f003 fd7f 	bl	100040ec <__wrap_puts>
100005ee:	48a1      	ldr	r0, [pc, #644]	@ (10000874 <main+0x5e0>)
100005f0:	f003 fd7c 	bl	100040ec <__wrap_puts>
100005f4:	48a0      	ldr	r0, [pc, #640]	@ (10000878 <main+0x5e4>)
100005f6:	f003 fd79 	bl	100040ec <__wrap_puts>
100005fa:	e708      	b.n	1000040e <main+0x17a>
100005fc:	f888 0000 	strb.w	r0, [r8]
10000600:	489e      	ldr	r0, [pc, #632]	@ (1000087c <main+0x5e8>)
10000602:	f003 fd73 	bl	100040ec <__wrap_puts>
10000606:	e702      	b.n	1000040e <main+0x17a>
10000608:	4b9d      	ldr	r3, [pc, #628]	@ (10000880 <main+0x5ec>)
1000060a:	f04f 32ff 	mov.w	r2, #4294967295	@ 0xffffffff
1000060e:	eb1b 0303 	adds.w	r3, fp, r3
10000612:	469b      	mov	fp, r3
10000614:	9b00      	ldr	r3, [sp, #0]
10000616:	f143 0300 	adc.w	r3, r3, #0
1000061a:	4619      	mov	r1, r3
1000061c:	9300      	str	r3, [sp, #0]
1000061e:	f06f 4300 	mvn.w	r3, #2147483648	@ 0x80000000
10000622:	455a      	cmp	r2, fp
10000624:	eb73 0101 	sbcs.w	r1, r3, r1
10000628:	bf38      	it	cc
1000062a:	9300      	strcc	r3, [sp, #0]
1000062c:	9b01      	ldr	r3, [sp, #4]
1000062e:	bf38      	it	cc
10000630:	4693      	movcc	fp, r2
10000632:	f083 0301 	eor.w	r3, r3, #1
10000636:	461a      	mov	r2, r3
10000638:	9301      	str	r3, [sp, #4]
1000063a:	2319      	movs	r3, #25
1000063c:	ec42 3040 	gpioc_bit_out_put r3, r2
10000640:	2200      	movs	r2, #0
10000642:	4613      	mov	r3, r2
10000644:	498f      	ldr	r1, [pc, #572]	@ (10000884 <main+0x5f0>)
10000646:	a80e      	add	r0, sp, #56	@ 0x38
10000648:	7809      	ldrb	r1, [r1, #0]
1000064a:	ad16      	add	r5, sp, #88	@ 0x58
1000064c:	f361 0207 	bfi	r2, r1, #0, #8
10000650:	498d      	ldr	r1, [pc, #564]	@ (10000888 <main+0x5f4>)
10000652:	7809      	ldrb	r1, [r1, #0]
10000654:	f361 0307 	bfi	r3, r1, #0, #8
10000658:	498c      	ldr	r1, [pc, #560]	@ (1000088c <main+0x5f8>)
1000065a:	7809      	ldrb	r1, [r1, #0]
1000065c:	f361 220f 	bfi	r2, r1, #8, #8
10000660:	498b      	ldr	r1, [pc, #556]	@ (10000890 <main+0x5fc>)
10000662:	7809      	ldrb	r1, [r1, #0]
10000664:	f361 230f 	bfi	r3, r1, #8, #8
10000668:	498a      	ldr	r1, [pc, #552]	@ (10000894 <main+0x600>)
1000066a:	7809      	ldrb	r1, [r1, #0]
1000066c:	f361 4217 	bfi	r2, r1, #16, #8
10000670:	4989      	ldr	r1, [pc, #548]	@ (10000898 <main+0x604>)
10000672:	7809      	ldrb	r1, [r1, #0]
10000674:	f361 4317 	bfi	r3, r1, #16, #8
10000678:	4988      	ldr	r1, [pc, #544]	@ (1000089c <main+0x608>)
1000067a:	7809      	ldrb	r1, [r1, #0]
1000067c:	f361 621f 	bfi	r2, r1, #24, #8
10000680:	f8cd 203a 	str.w	r2, [sp, #58]	@ 0x3a
10000684:	4a86      	ldr	r2, [pc, #536]	@ (100008a0 <main+0x60c>)
10000686:	a916      	add	r1, sp, #88	@ 0x58
10000688:	7812      	ldrb	r2, [r2, #0]
1000068a:	f362 631f 	bfi	r3, r2, #24, #8
1000068e:	f8cd 3043 	str.w	r3, [sp, #67]	@ 0x43
10000692:	4b84      	ldr	r3, [pc, #528]	@ (100008a4 <main+0x610>)
10000694:	881b      	ldrh	r3, [r3, #0]
10000696:	f8ad 3038 	strh.w	r3, [sp, #56]	@ 0x38
1000069a:	4b83      	ldr	r3, [pc, #524]	@ (100008a8 <main+0x614>)
1000069c:	881b      	ldrh	r3, [r3, #0]
1000069e:	f8ad 303e 	strh.w	r3, [sp, #62]	@ 0x3e
100006a2:	4b82      	ldr	r3, [pc, #520]	@ (100008ac <main+0x618>)
100006a4:	781b      	ldrb	r3, [r3, #0]
100006a6:	f88d 3040 	strb.w	r3, [sp, #64]	@ 0x40
100006aa:	4b81      	ldr	r3, [pc, #516]	@ (100008b0 <main+0x61c>)
100006ac:	881b      	ldrh	r3, [r3, #0]
100006ae:	f8ad 3041 	strh.w	r3, [sp, #65]	@ 0x41
100006b2:	f000 fc3d 	bl	10000f30 <chademo_can_pack_vehicle_frames>
100006b6:	4629      	mov	r1, r5
100006b8:	2000      	movs	r0, #0
100006ba:	f000 facf 	bl	10000c5c <hal_can_send>
100006be:	e006      	b.n	100006ce <main+0x43a>
100006c0:	f000 fc24 	bl	10000f0c <hal_millis>
100006c4:	aa0e      	add	r2, sp, #56	@ 0x38
100006c6:	4601      	mov	r1, r0
100006c8:	487a      	ldr	r0, [pc, #488]	@ (100008b4 <main+0x620>)
100006ca:	f7ff fdb1 	bl	10000230 <print_frame>
100006ce:	2000      	movs	r0, #0
100006d0:	a90e      	add	r1, sp, #56	@ 0x38
100006d2:	f000 fb9b 	bl	10000e0c <hal_can_recv>
100006d6:	2800      	cmp	r0, #0
100006d8:	d1f2      	bne.n	100006c0 <main+0x42c>
100006da:	2002      	movs	r0, #2
100006dc:	f001 fabc 	bl	10001c58 <sleep_ms>
100006e0:	3510      	adds	r5, #16
100006e2:	ab22      	add	r3, sp, #136	@ 0x88
100006e4:	42ab      	cmp	r3, r5
100006e6:	d1e6      	bne.n	100006b6 <main+0x422>
100006e8:	e638      	b.n	1000035c <main+0xc8>
100006ea:	f000 fc0f 	bl	10000f0c <hal_millis>
100006ee:	4a72      	ldr	r2, [pc, #456]	@ (100008b8 <main+0x624>)
100006f0:	4601      	mov	r1, r0
100006f2:	4872      	ldr	r0, [pc, #456]	@ (100008bc <main+0x628>)
100006f4:	f7ff fd9c 	bl	10000230 <print_frame>
100006f8:	e649      	b.n	1000038e <main+0xfa>
100006fa:	4b6d      	ldr	r3, [pc, #436]	@ (100008b0 <main+0x61c>)
100006fc:	8018      	strh	r0, [r3, #0]
100006fe:	4652      	mov	r2, sl
10000700:	4649      	mov	r1, r9
10000702:	486f      	ldr	r0, [pc, #444]	@ (100008c0 <main+0x62c>)
10000704:	f003 fd6a 	bl	100041dc <__wrap_printf>
10000708:	e681      	b.n	1000040e <main+0x17a>
1000070a:	4b5f      	ldr	r3, [pc, #380]	@ (10000888 <main+0x5f4>)
1000070c:	7018      	strb	r0, [r3, #0]
1000070e:	e7f6      	b.n	100006fe <main+0x46a>
10000710:	2200      	movs	r2, #0
10000712:	f10a 0002 	add.w	r0, sl, #2
10000716:	a905      	add	r1, sp, #20
10000718:	9005      	str	r0, [sp, #20]
1000071a:	f006 fe07 	bl	1000732c <strtoul>
1000071e:	2200      	movs	r2, #0
10000720:	9002      	str	r0, [sp, #8]
10000722:	a905      	add	r1, sp, #20
10000724:	9805      	ldr	r0, [sp, #20]
10000726:	f006 fe01 	bl	1000732c <strtoul>
1000072a:	2300      	movs	r3, #0
1000072c:	e9cd 330a 	strd	r3, r3, [sp, #40]	@ 0x28
10000730:	e9cd 330c 	strd	r3, r3, [sp, #48]	@ 0x30
10000734:	4684      	mov	ip, r0
10000736:	9805      	ldr	r0, [sp, #20]
10000738:	7802      	ldrb	r2, [r0, #0]
1000073a:	2a20      	cmp	r2, #32
1000073c:	d104      	bne.n	10000748 <main+0x4b4>
1000073e:	3001      	adds	r0, #1
10000740:	9005      	str	r0, [sp, #20]
10000742:	7802      	ldrb	r2, [r0, #0]
10000744:	2a20      	cmp	r2, #32
10000746:	d0fa      	beq.n	1000073e <main+0x4aa>
10000748:	ab0b      	add	r3, sp, #44	@ 0x2c
1000074a:	463d      	mov	r5, r7
1000074c:	f04f 0a00 	mov.w	sl, #0
10000750:	461f      	mov	r7, r3
10000752:	f8cd c00c 	str.w	ip, [sp, #12]
10000756:	b1ca      	cbz	r2, 1000078c <main+0x4f8>
10000758:	2200      	movs	r2, #0
1000075a:	a905      	add	r1, sp, #20
1000075c:	f006 fde6 	bl	1000732c <strtoul>
10000760:	9a05      	ldr	r2, [sp, #20]
10000762:	f10a 0a01 	add.w	sl, sl, #1
10000766:	7811      	ldrb	r1, [r2, #0]
10000768:	f807 0f01 	strb.w	r0, [r7, #1]!
1000076c:	2920      	cmp	r1, #32
1000076e:	fa5f fa8a 	uxtb.w	sl, sl
10000772:	d104      	bne.n	1000077e <main+0x4ea>
10000774:	3201      	adds	r2, #1
10000776:	9205      	str	r2, [sp, #20]
10000778:	7813      	ldrb	r3, [r2, #0]
1000077a:	2b20      	cmp	r3, #32
1000077c:	d0fa      	beq.n	10000774 <main+0x4e0>
1000077e:	f1ba 0f08 	cmp.w	sl, #8
10000782:	d003      	beq.n	1000078c <main+0x4f8>
10000784:	9805      	ldr	r0, [sp, #20]
10000786:	7802      	ldrb	r2, [r0, #0]
10000788:	2a00      	cmp	r2, #0
1000078a:	d1e5      	bne.n	10000758 <main+0x4c4>
1000078c:	9b02      	ldr	r3, [sp, #8]
1000078e:	f8dd c00c 	ldr.w	ip, [sp, #12]
10000792:	930a      	str	r3, [sp, #40]	@ 0x28
10000794:	2301      	movs	r3, #1
10000796:	f1bc 0f00 	cmp.w	ip, #0
1000079a:	bf08      	it	eq
1000079c:	f04f 0c64 	moveq.w	ip, #100	@ 0x64
100007a0:	f888 3000 	strb.w	r3, [r8]
100007a4:	2300      	movs	r3, #0
100007a6:	462f      	mov	r7, r5
100007a8:	4d43      	ldr	r5, [pc, #268]	@ (100008b8 <main+0x624>)
100007aa:	f88d a02c 	strb.w	sl, [sp, #44]	@ 0x2c
100007ae:	aa0a      	add	r2, sp, #40	@ 0x28
100007b0:	f8c8 3008 	str.w	r3, [r8, #8]
100007b4:	ca0f      	ldmia	r2, {r0, r1, r2, r3}
100007b6:	e885 000f 	stmia.w	r5, {r0, r1, r2, r3}
100007ba:	4601      	mov	r1, r0
100007bc:	4653      	mov	r3, sl
100007be:	4662      	mov	r2, ip
100007c0:	4840      	ldr	r0, [pc, #256]	@ (100008c4 <main+0x630>)
100007c2:	f8c8 c004 	str.w	ip, [r8, #4]
100007c6:	f003 fd09 	bl	100041dc <__wrap_printf>
100007ca:	e620      	b.n	1000040e <main+0x17a>
100007cc:	4b34      	ldr	r3, [pc, #208]	@ (100008a0 <main+0x60c>)
100007ce:	7018      	strb	r0, [r3, #0]
100007d0:	e795      	b.n	100006fe <main+0x46a>
100007d2:	f247 3375 	movw	r3, #29557	@ 0x7375
100007d6:	f8bd 201c 	ldrh.w	r2, [sp, #28]
100007da:	429a      	cmp	r2, r3
100007dc:	f47f ae77 	bne.w	100004ce <main+0x23a>
100007e0:	f89d 301e 	ldrb.w	r3, [sp, #30]
100007e4:	2b00      	cmp	r3, #0
100007e6:	f47f ae72 	bne.w	100004ce <main+0x23a>
100007ea:	4b2b      	ldr	r3, [pc, #172]	@ (10000898 <main+0x604>)
100007ec:	7018      	strb	r0, [r3, #0]
100007ee:	e786      	b.n	100006fe <main+0x46a>
100007f0:	f8b9 3004 	ldrh.w	r3, [r9, #4]
100007f4:	2b74      	cmp	r3, #116	@ 0x74
100007f6:	f47f ae70 	bne.w	100004da <main+0x246>
100007fa:	4b25      	ldr	r3, [pc, #148]	@ (10000890 <main+0x5fc>)
100007fc:	f883 a000 	strb.w	sl, [r3]
10000800:	e77d      	b.n	100006fe <main+0x46a>
10000802:	f899 3004 	ldrb.w	r3, [r9, #4]
10000806:	2b00      	cmp	r3, #0
10000808:	f47f ae6d 	bne.w	100004e6 <main+0x252>
1000080c:	4b25      	ldr	r3, [pc, #148]	@ (100008a4 <main+0x610>)
1000080e:	f8a3 a000 	strh.w	sl, [r3]
10000812:	e774      	b.n	100006fe <main+0x46a>
10000814:	4b1b      	ldr	r3, [pc, #108]	@ (10000884 <main+0x5f0>)
10000816:	f883 a000 	strb.w	sl, [r3]
1000081a:	e770      	b.n	100006fe <main+0x46a>
1000081c:	4b1b      	ldr	r3, [pc, #108]	@ (1000088c <main+0x5f8>)
1000081e:	f883 a000 	strb.w	sl, [r3]
10000822:	e76c      	b.n	100006fe <main+0x46a>
10000824:	4b1d      	ldr	r3, [pc, #116]	@ (1000089c <main+0x608>)
10000826:	f883 a000 	strb.w	sl, [r3]
1000082a:	e768      	b.n	100006fe <main+0x46a>
1000082c:	4b19      	ldr	r3, [pc, #100]	@ (10000894 <main+0x600>)
1000082e:	f883 a000 	strb.w	sl, [r3]
10000832:	e764      	b.n	100006fe <main+0x46a>
10000834:	4b1c      	ldr	r3, [pc, #112]	@ (100008a8 <main+0x614>)
10000836:	f8a3 a000 	strh.w	sl, [r3]
1000083a:	e760      	b.n	100006fe <main+0x46a>
1000083c:	4649      	mov	r1, r9
1000083e:	4822      	ldr	r0, [pc, #136]	@ (100008c8 <main+0x634>)
10000840:	f003 fccc 	bl	100041dc <__wrap_printf>
10000844:	e5e3      	b.n	1000040e <main+0x17a>
10000846:	bf00      	nop
10000848:	1000c510 	.word	0x1000c510
1000084c:	1000c528 	.word	0x1000c528
10000850:	1000c558 	.word	0x1000c558
10000854:	1000c588 	.word	0x1000c588
10000858:	1000c5b8 	.word	0x1000c5b8
1000085c:	1000c5e8 	.word	0x1000c5e8
10000860:	1000c618 	.word	0x1000c618
10000864:	1000c648 	.word	0x1000c648
10000868:	1000c678 	.word	0x1000c678
1000086c:	1000c6a0 	.word	0x1000c6a0
10000870:	1000c6cc 	.word	0x1000c6cc
10000874:	1000c6ec 	.word	0x1000c6ec
10000878:	1000c704 	.word	0x1000c704
1000087c:	1000c4f8 	.word	0x1000c4f8
10000880:	000186a0 	.word	0x000186a0
10000884:	20000e2b 	.word	0x20000e2b
10000888:	200023b9 	.word	0x200023b9
1000088c:	20000e2a 	.word	0x20000e2a
10000890:	200023b4 	.word	0x200023b4
10000894:	20000e29 	.word	0x20000e29
10000898:	20000e21 	.word	0x20000e21
1000089c:	20000e28 	.word	0x20000e28
100008a0:	20000e20 	.word	0x20000e20
100008a4:	20000e2c 	.word	0x20000e2c
100008a8:	20000e26 	.word	0x20000e26
100008ac:	20000e24 	.word	0x20000e24
100008b0:	20000e22 	.word	0x20000e22
100008b4:	1000c738 	.word	0x1000c738
100008b8:	20001f40 	.word	0x20001f40
100008bc:	1000c4c4 	.word	0x1000c4c4
100008c0:	1000c4b4 	.word	0x1000c4b4
100008c4:	1000c4c8 	.word	0x1000c4c8
100008c8:	1000c49c 	.word	0x1000c49c

100008cc <hal_gpio_init>:
100008cc:	b538      	push	{r3, r4, r5, lr}
100008ce:	200f      	movs	r0, #15
100008d0:	f000 fbb4 	bl	1000103c <gpio_init>
100008d4:	f04f 0501 	mov.w	r5, #1
100008d8:	230f      	movs	r3, #15
100008da:	ec45 3044 	gpioc_bit_oe_put r3, r5
100008de:	f04f 0400 	mov.w	r4, #0
100008e2:	ec44 3040 	gpioc_bit_out_put r3, r4
100008e6:	2010      	movs	r0, #16
100008e8:	f000 fba8 	bl	1000103c <gpio_init>
100008ec:	2010      	movs	r0, #16
100008ee:	ec44 0044 	gpioc_bit_oe_put r0, r4
100008f2:	2200      	movs	r2, #0
100008f4:	2101      	movs	r1, #1
100008f6:	f000 fb8d 	bl	10001014 <gpio_set_pulls>
100008fa:	2011      	movs	r0, #17
100008fc:	f000 fb9e 	bl	1000103c <gpio_init>
10000900:	2011      	movs	r0, #17
10000902:	ec44 0044 	gpioc_bit_oe_put r0, r4
10000906:	2200      	movs	r2, #0
10000908:	2101      	movs	r1, #1
1000090a:	f000 fb83 	bl	10001014 <gpio_set_pulls>
1000090e:	2012      	movs	r0, #18
10000910:	f000 fb94 	bl	1000103c <gpio_init>
10000914:	2012      	movs	r0, #18
10000916:	ec44 0044 	gpioc_bit_oe_put r0, r4
1000091a:	2200      	movs	r2, #0
1000091c:	2101      	movs	r1, #1
1000091e:	f000 fb79 	bl	10001014 <gpio_set_pulls>
10000922:	2013      	movs	r0, #19
10000924:	f000 fb8a 	bl	1000103c <gpio_init>
10000928:	2313      	movs	r3, #19
1000092a:	ec45 3044 	gpioc_bit_oe_put r3, r5
1000092e:	ec44 3040 	gpioc_bit_out_put r3, r4
10000932:	bd38      	pop	{r3, r4, r5, pc}

10000934 <hal_can_reset>:
10000934:	b510      	push	{r4, lr}
10000936:	4b14      	ldr	r3, [pc, #80]	@ (10000988 <hal_can_reset+0x54>)
10000938:	b082      	sub	sp, #8
1000093a:	eb03 1100 	add.w	r1, r3, r0, lsl #4
1000093e:	f04f 0200 	mov.w	r2, #0
10000942:	79cc      	ldrb	r4, [r1, #7]
10000944:	0100      	lsls	r0, r0, #4
10000946:	ec42 4040 	gpioc_bit_out_put r4, r2
1000094a:	bf00      	nop
1000094c:	bf00      	nop
1000094e:	bf00      	nop
10000950:	bf00      	nop
10000952:	f04f 0cc0 	mov.w	ip, #192	@ 0xc0
10000956:	5818      	ldr	r0, [r3, r0]
10000958:	f10d 0207 	add.w	r2, sp, #7
1000095c:	2301      	movs	r3, #1
1000095e:	f10d 0106 	add.w	r1, sp, #6
10000962:	f88d c006 	strb.w	ip, [sp, #6]
10000966:	f00b fbf3 	bl	1000c150 <__spi_write_read_blocking_veneer>
1000096a:	bf00      	nop
1000096c:	bf00      	nop
1000096e:	bf00      	nop
10000970:	bf00      	nop
10000972:	f04f 0301 	mov.w	r3, #1
10000976:	ec43 4040 	gpioc_bit_out_put r4, r3
1000097a:	2005      	movs	r0, #5
1000097c:	b002      	add	sp, #8
1000097e:	e8bd 4010 	ldmia.w	sp!, {r4, lr}
10000982:	f001 b969 	b.w	10001c58 <sleep_ms>
10000986:	bf00      	nop
10000988:	1000ca34 	.word	0x1000ca34

1000098c <hal_can_read_reg>:
1000098c:	b5f0      	push	{r4, r5, r6, r7, lr}
1000098e:	4b1d      	ldr	r3, [pc, #116]	@ (10000a04 <hal_can_read_reg+0x78>)
10000990:	b083      	sub	sp, #12
10000992:	eb03 1200 	add.w	r2, r3, r0, lsl #4
10000996:	2700      	movs	r7, #0
10000998:	460d      	mov	r5, r1
1000099a:	79d6      	ldrb	r6, [r2, #7]
1000099c:	0100      	lsls	r0, r0, #4
1000099e:	ec47 6040 	gpioc_bit_out_put r6, r7
100009a2:	bf00      	nop
100009a4:	bf00      	nop
100009a6:	bf00      	nop
100009a8:	bf00      	nop
100009aa:	f04f 0c03 	mov.w	ip, #3
100009ae:	581c      	ldr	r4, [r3, r0]
100009b0:	f10d 0207 	add.w	r2, sp, #7
100009b4:	f10d 0106 	add.w	r1, sp, #6
100009b8:	2301      	movs	r3, #1
100009ba:	4620      	mov	r0, r4
100009bc:	f88d c006 	strb.w	ip, [sp, #6]
100009c0:	f00b fbc6 	bl	1000c150 <__spi_write_read_blocking_veneer>
100009c4:	f10d 0207 	add.w	r2, sp, #7
100009c8:	f10d 0106 	add.w	r1, sp, #6
100009cc:	2301      	movs	r3, #1
100009ce:	4620      	mov	r0, r4
100009d0:	f88d 5006 	strb.w	r5, [sp, #6]
100009d4:	f00b fbbc 	bl	1000c150 <__spi_write_read_blocking_veneer>
100009d8:	2301      	movs	r3, #1
100009da:	4620      	mov	r0, r4
100009dc:	f10d 0207 	add.w	r2, sp, #7
100009e0:	f10d 0106 	add.w	r1, sp, #6
100009e4:	f88d 7006 	strb.w	r7, [sp, #6]
100009e8:	f00b fbb2 	bl	1000c150 <__spi_write_read_blocking_veneer>
100009ec:	f89d 0007 	ldrb.w	r0, [sp, #7]
100009f0:	bf00      	nop
100009f2:	bf00      	nop
100009f4:	bf00      	nop
100009f6:	bf00      	nop
100009f8:	f04f 0301 	mov.w	r3, #1
100009fc:	ec43 6040 	gpioc_bit_out_put r6, r3
10000a00:	b003      	add	sp, #12
10000a02:	bdf0      	pop	{r4, r5, r6, r7, pc}
10000a04:	1000ca34 	.word	0x1000ca34

10000a08 <hal_can_write_reg>:
10000a08:	b5f0      	push	{r4, r5, r6, r7, lr}
10000a0a:	4b1d      	ldr	r3, [pc, #116]	@ (10000a80 <hal_can_write_reg+0x78>)
10000a0c:	0105      	lsls	r5, r0, #4
10000a0e:	eb03 1000 	add.w	r0, r3, r0, lsl #4
10000a12:	b083      	sub	sp, #12
10000a14:	f04f 0c00 	mov.w	ip, #0
10000a18:	460e      	mov	r6, r1
10000a1a:	4614      	mov	r4, r2
10000a1c:	79c7      	ldrb	r7, [r0, #7]
10000a1e:	ec4c 7040 	gpioc_bit_out_put r7, ip
10000a22:	bf00      	nop
10000a24:	bf00      	nop
10000a26:	bf00      	nop
10000a28:	bf00      	nop
10000a2a:	f04f 0c02 	mov.w	ip, #2
10000a2e:	595d      	ldr	r5, [r3, r5]
10000a30:	f10d 0207 	add.w	r2, sp, #7
10000a34:	f10d 0106 	add.w	r1, sp, #6
10000a38:	2301      	movs	r3, #1
10000a3a:	4628      	mov	r0, r5
10000a3c:	f88d c006 	strb.w	ip, [sp, #6]
10000a40:	f00b fb86 	bl	1000c150 <__spi_write_read_blocking_veneer>
10000a44:	f10d 0207 	add.w	r2, sp, #7
10000a48:	f10d 0106 	add.w	r1, sp, #6
10000a4c:	2301      	movs	r3, #1
10000a4e:	4628      	mov	r0, r5
10000a50:	f88d 6006 	strb.w	r6, [sp, #6]
10000a54:	f00b fb7c 	bl	1000c150 <__spi_write_read_blocking_veneer>
10000a58:	2301      	movs	r3, #1
10000a5a:	4628      	mov	r0, r5
10000a5c:	f10d 0207 	add.w	r2, sp, #7
10000a60:	f10d 0106 	add.w	r1, sp, #6
10000a64:	f88d 4006 	strb.w	r4, [sp, #6]
10000a68:	f00b fb72 	bl	1000c150 <__spi_write_read_blocking_veneer>
10000a6c:	bf00      	nop
10000a6e:	bf00      	nop
10000a70:	bf00      	nop
10000a72:	bf00      	nop
10000a74:	f04f 0301 	mov.w	r3, #1
10000a78:	ec43 7040 	gpioc_bit_out_put r7, r3
10000a7c:	b003      	add	sp, #12
10000a7e:	bdf0      	pop	{r4, r5, r6, r7, pc}
10000a80:	1000ca34 	.word	0x1000ca34

10000a84 <hal_can_bit_modify>:
10000a84:	e92d 41f0 	stmdb	sp!, {r4, r5, r6, r7, r8, lr}
10000a88:	4c23      	ldr	r4, [pc, #140]	@ (10000b18 <hal_can_bit_modify+0x94>)
10000a8a:	461d      	mov	r5, r3
10000a8c:	eb04 1300 	add.w	r3, r4, r0, lsl #4
10000a90:	b082      	sub	sp, #8
10000a92:	f04f 0c00 	mov.w	ip, #0
10000a96:	460f      	mov	r7, r1
10000a98:	4616      	mov	r6, r2
10000a9a:	f893 8007 	ldrb.w	r8, [r3, #7]
10000a9e:	0100      	lsls	r0, r0, #4
10000aa0:	ec4c 8040 	gpioc_bit_out_put r8, ip
10000aa4:	bf00      	nop
10000aa6:	bf00      	nop
10000aa8:	bf00      	nop
10000aaa:	bf00      	nop
10000aac:	2305      	movs	r3, #5
10000aae:	5824      	ldr	r4, [r4, r0]
10000ab0:	f88d 3006 	strb.w	r3, [sp, #6]
10000ab4:	f10d 0207 	add.w	r2, sp, #7
10000ab8:	f10d 0106 	add.w	r1, sp, #6
10000abc:	2301      	movs	r3, #1
10000abe:	4620      	mov	r0, r4
10000ac0:	f00b fb46 	bl	1000c150 <__spi_write_read_blocking_veneer>
10000ac4:	f10d 0207 	add.w	r2, sp, #7
10000ac8:	f10d 0106 	add.w	r1, sp, #6
10000acc:	2301      	movs	r3, #1
10000ace:	4620      	mov	r0, r4
10000ad0:	f88d 7006 	strb.w	r7, [sp, #6]
10000ad4:	f00b fb3c 	bl	1000c150 <__spi_write_read_blocking_veneer>
10000ad8:	f10d 0207 	add.w	r2, sp, #7
10000adc:	f10d 0106 	add.w	r1, sp, #6
10000ae0:	2301      	movs	r3, #1
10000ae2:	4620      	mov	r0, r4
10000ae4:	f88d 6006 	strb.w	r6, [sp, #6]
10000ae8:	f00b fb32 	bl	1000c150 <__spi_write_read_blocking_veneer>
10000aec:	2301      	movs	r3, #1
10000aee:	4620      	mov	r0, r4
10000af0:	f10d 0207 	add.w	r2, sp, #7
10000af4:	f10d 0106 	add.w	r1, sp, #6
10000af8:	f88d 5006 	strb.w	r5, [sp, #6]
10000afc:	f00b fb28 	bl	1000c150 <__spi_write_read_blocking_veneer>
10000b00:	bf00      	nop
10000b02:	bf00      	nop
10000b04:	bf00      	nop
10000b06:	bf00      	nop
10000b08:	f04f 0301 	mov.w	r3, #1
10000b0c:	ec43 8040 	gpioc_bit_out_put r8, r3
10000b10:	b002      	add	sp, #8
10000b12:	e8bd 81f0 	ldmia.w	sp!, {r4, r5, r6, r7, r8, pc}
10000b16:	bf00      	nop
10000b18:	1000ca34 	.word	0x1000ca34

10000b1c <hal_can_init_with_bitrate>:
10000b1c:	e92d 43f8 	stmdb	sp!, {r3, r4, r5, r6, r7, r8, r9, lr}
10000b20:	f8df 8134 	ldr.w	r8, [pc, #308]	@ 10000c58 <hal_can_init_with_bitrate+0x13c>
10000b24:	4605      	mov	r5, r0
10000b26:	eb08 1400 	add.w	r4, r8, r0, lsl #4
10000b2a:	79e7      	ldrb	r7, [r4, #7]
10000b2c:	ea4f 1900 	mov.w	r9, r0, lsl #4
10000b30:	4638      	mov	r0, r7
10000b32:	460e      	mov	r6, r1
10000b34:	f000 fa82 	bl	1000103c <gpio_init>
10000b38:	f04f 0301 	mov.w	r3, #1
10000b3c:	ec43 7044 	gpioc_bit_oe_put r7, r3
10000b40:	ec43 7040 	gpioc_bit_out_put r7, r3
10000b44:	2101      	movs	r1, #1
10000b46:	7920      	ldrb	r0, [r4, #4]
10000b48:	f000 fa46 	bl	10000fd8 <gpio_set_function>
10000b4c:	7960      	ldrb	r0, [r4, #5]
10000b4e:	2101      	movs	r1, #1
10000b50:	f000 fa42 	bl	10000fd8 <gpio_set_function>
10000b54:	79a0      	ldrb	r0, [r4, #6]
10000b56:	2101      	movs	r1, #1
10000b58:	f000 fa3e 	bl	10000fd8 <gpio_set_function>
10000b5c:	f858 7009 	ldr.w	r7, [r8, r9]
10000b60:	68e1      	ldr	r1, [r4, #12]
10000b62:	4638      	mov	r0, r7
10000b64:	f005 fe42 	bl	100067ec <spi_init>
10000b68:	463b      	mov	r3, r7
10000b6a:	f04f 0c02 	mov.w	ip, #2
10000b6e:	f853 1f04 	ldr.w	r1, [r3, #4]!
10000b72:	f507 5480 	add.w	r4, r7, #4096	@ 0x1000
10000b76:	f503 5240 	add.w	r2, r3, #12288	@ 0x3000
10000b7a:	f8c2 c000 	str.w	ip, [r2]
10000b7e:	683a      	ldr	r2, [r7, #0]
10000b80:	ea01 010c 	and.w	r1, r1, ip
10000b84:	f082 0207 	eor.w	r2, r2, #7
10000b88:	f503 5300 	add.w	r3, r3, #8192	@ 0x2000
10000b8c:	f002 02cf 	and.w	r2, r2, #207	@ 0xcf
10000b90:	6022      	str	r2, [r4, #0]
10000b92:	4628      	mov	r0, r5
10000b94:	6019      	str	r1, [r3, #0]
10000b96:	f7ff fecd 	bl	10000934 <hal_can_reset>
10000b9a:	210e      	movs	r1, #14
10000b9c:	4628      	mov	r0, r5
10000b9e:	f7ff fef5 	bl	1000098c <hal_can_read_reg>
10000ba2:	f000 00e0 	and.w	r0, r0, #224	@ 0xe0
10000ba6:	2880      	cmp	r0, #128	@ 0x80
10000ba8:	d144      	bne.n	10000c34 <hal_can_init_with_bitrate+0x118>
10000baa:	f5b6 7ffa 	cmp.w	r6, #500	@ 0x1f4
10000bae:	d044      	beq.n	10000c3a <hal_can_init_with_bitrate+0x11e>
10000bb0:	d84b      	bhi.n	10000c4a <hal_can_init_with_bitrate+0x12e>
10000bb2:	2e7d      	cmp	r6, #125	@ 0x7d
10000bb4:	d045      	beq.n	10000c42 <hal_can_init_with_bitrate+0x126>
10000bb6:	2efa      	cmp	r6, #250	@ 0xfa
10000bb8:	d13c      	bne.n	10000c34 <hal_can_init_with_bitrate+0x118>
10000bba:	2405      	movs	r4, #5
10000bbc:	26b8      	movs	r6, #184	@ 0xb8
10000bbe:	2200      	movs	r2, #0
10000bc0:	212a      	movs	r1, #42	@ 0x2a
10000bc2:	4628      	mov	r0, r5
10000bc4:	f7ff ff20 	bl	10000a08 <hal_can_write_reg>
10000bc8:	4632      	mov	r2, r6
10000bca:	2129      	movs	r1, #41	@ 0x29
10000bcc:	4628      	mov	r0, r5
10000bce:	f7ff ff1b 	bl	10000a08 <hal_can_write_reg>
10000bd2:	4622      	mov	r2, r4
10000bd4:	2128      	movs	r1, #40	@ 0x28
10000bd6:	4628      	mov	r0, r5
10000bd8:	f7ff ff16 	bl	10000a08 <hal_can_write_reg>
10000bdc:	2260      	movs	r2, #96	@ 0x60
10000bde:	4628      	mov	r0, r5
10000be0:	4611      	mov	r1, r2
10000be2:	f7ff ff11 	bl	10000a08 <hal_can_write_reg>
10000be6:	2260      	movs	r2, #96	@ 0x60
10000be8:	2170      	movs	r1, #112	@ 0x70
10000bea:	4628      	mov	r0, r5
10000bec:	f7ff ff0c 	bl	10000a08 <hal_can_write_reg>
10000bf0:	22a3      	movs	r2, #163	@ 0xa3
10000bf2:	212b      	movs	r1, #43	@ 0x2b
10000bf4:	4628      	mov	r0, r5
10000bf6:	f7ff ff07 	bl	10000a08 <hal_can_write_reg>
10000bfa:	2200      	movs	r2, #0
10000bfc:	212c      	movs	r1, #44	@ 0x2c
10000bfe:	4628      	mov	r0, r5
10000c00:	f7ff ff02 	bl	10000a08 <hal_can_write_reg>
10000c04:	2200      	movs	r2, #0
10000c06:	212d      	movs	r1, #45	@ 0x2d
10000c08:	4628      	mov	r0, r5
10000c0a:	f7ff fefd 	bl	10000a08 <hal_can_write_reg>
10000c0e:	2300      	movs	r3, #0
10000c10:	22e0      	movs	r2, #224	@ 0xe0
10000c12:	210f      	movs	r1, #15
10000c14:	4628      	mov	r0, r5
10000c16:	f7ff ff35 	bl	10000a84 <hal_can_bit_modify>
10000c1a:	2464      	movs	r4, #100	@ 0x64
10000c1c:	210e      	movs	r1, #14
10000c1e:	4628      	mov	r0, r5
10000c20:	f7ff feb4 	bl	1000098c <hal_can_read_reg>
10000c24:	281f      	cmp	r0, #31
10000c26:	f04f 0001 	mov.w	r0, #1
10000c2a:	d904      	bls.n	10000c36 <hal_can_init_with_bitrate+0x11a>
10000c2c:	f001 f814 	bl	10001c58 <sleep_ms>
10000c30:	3c01      	subs	r4, #1
10000c32:	d1f3      	bne.n	10000c1c <hal_can_init_with_bitrate+0x100>
10000c34:	2000      	movs	r0, #0
10000c36:	e8bd 83f8 	ldmia.w	sp!, {r3, r4, r5, r6, r7, r8, r9, pc}
10000c3a:	2401      	movs	r4, #1
10000c3c:	2698      	movs	r6, #152	@ 0x98
10000c3e:	2200      	movs	r2, #0
10000c40:	e7be      	b.n	10000bc0 <hal_can_init_with_bitrate+0xa4>
10000c42:	2405      	movs	r4, #5
10000c44:	26b8      	movs	r6, #184	@ 0xb8
10000c46:	2201      	movs	r2, #1
10000c48:	e7ba      	b.n	10000bc0 <hal_can_init_with_bitrate+0xa4>
10000c4a:	f5b6 7f7a 	cmp.w	r6, #1000	@ 0x3e8
10000c4e:	d1f1      	bne.n	10000c34 <hal_can_init_with_bitrate+0x118>
10000c50:	2400      	movs	r4, #0
10000c52:	2690      	movs	r6, #144	@ 0x90
10000c54:	4622      	mov	r2, r4
10000c56:	e7b3      	b.n	10000bc0 <hal_can_init_with_bitrate+0xa4>
10000c58:	1000ca34 	.word	0x1000ca34

10000c5c <hal_can_send>:
10000c5c:	e92d 47f0 	stmdb	sp!, {r4, r5, r6, r7, r8, r9, sl, lr}
10000c60:	460d      	mov	r5, r1
10000c62:	b082      	sub	sp, #8
10000c64:	2130      	movs	r1, #48	@ 0x30
10000c66:	4604      	mov	r4, r0
10000c68:	f7ff fe90 	bl	1000098c <hal_can_read_reg>
10000c6c:	f010 0608 	ands.w	r6, r0, #8
10000c70:	d003      	beq.n	10000c7a <hal_can_send+0x1e>
10000c72:	2000      	movs	r0, #0
10000c74:	b002      	add	sp, #8
10000c76:	e8bd 87f0 	ldmia.w	sp!, {r4, r5, r6, r7, r8, r9, sl, pc}
10000c7a:	f8df 818c 	ldr.w	r8, [pc, #396]	@ 10000e08 <hal_can_send+0x1ac>
10000c7e:	ea4f 1904 	mov.w	r9, r4, lsl #4
10000c82:	eb08 1004 	add.w	r0, r8, r4, lsl #4
10000c86:	79c3      	ldrb	r3, [r0, #7]
10000c88:	682c      	ldr	r4, [r5, #0]
10000c8a:	ec46 3040 	gpioc_bit_out_put r3, r6
10000c8e:	bf00      	nop
10000c90:	bf00      	nop
10000c92:	bf00      	nop
10000c94:	bf00      	nop
10000c96:	2302      	movs	r3, #2
10000c98:	f858 7009 	ldr.w	r7, [r8, r9]
10000c9c:	f88d 3006 	strb.w	r3, [sp, #6]
10000ca0:	f10d 0207 	add.w	r2, sp, #7
10000ca4:	2301      	movs	r3, #1
10000ca6:	f10d 0106 	add.w	r1, sp, #6
10000caa:	4638      	mov	r0, r7
10000cac:	f00b fa50 	bl	1000c150 <__spi_write_read_blocking_veneer>
10000cb0:	2331      	movs	r3, #49	@ 0x31
10000cb2:	f10d 0207 	add.w	r2, sp, #7
10000cb6:	f88d 3006 	strb.w	r3, [sp, #6]
10000cba:	f10d 0106 	add.w	r1, sp, #6
10000cbe:	2301      	movs	r3, #1
10000cc0:	4638      	mov	r0, r7
10000cc2:	f00b fa45 	bl	1000c150 <__spi_write_read_blocking_veneer>
10000cc6:	08e2      	lsrs	r2, r4, #3
10000cc8:	2301      	movs	r3, #1
10000cca:	f88d 2006 	strb.w	r2, [sp, #6]
10000cce:	f10d 0106 	add.w	r1, sp, #6
10000cd2:	f10d 0207 	add.w	r2, sp, #7
10000cd6:	4638      	mov	r0, r7
10000cd8:	f00b fa3a 	bl	1000c150 <__spi_write_read_blocking_veneer>
10000cdc:	0164      	lsls	r4, r4, #5
10000cde:	2301      	movs	r3, #1
10000ce0:	f10d 0207 	add.w	r2, sp, #7
10000ce4:	f10d 0106 	add.w	r1, sp, #6
10000ce8:	4638      	mov	r0, r7
10000cea:	f88d 4006 	strb.w	r4, [sp, #6]
10000cee:	f00b fa2f 	bl	1000c150 <__spi_write_read_blocking_veneer>
10000cf2:	2301      	movs	r3, #1
10000cf4:	f10d 0207 	add.w	r2, sp, #7
10000cf8:	f10d 0106 	add.w	r1, sp, #6
10000cfc:	4638      	mov	r0, r7
10000cfe:	f88d 6006 	strb.w	r6, [sp, #6]
10000d02:	f00b fa25 	bl	1000c150 <__spi_write_read_blocking_veneer>
10000d06:	2301      	movs	r3, #1
10000d08:	f10d 0207 	add.w	r2, sp, #7
10000d0c:	f10d 0106 	add.w	r1, sp, #6
10000d10:	4638      	mov	r0, r7
10000d12:	f88d 6006 	strb.w	r6, [sp, #6]
10000d16:	f00b fa1b 	bl	1000c150 <__spi_write_read_blocking_veneer>
10000d1a:	792a      	ldrb	r2, [r5, #4]
10000d1c:	2301      	movs	r3, #1
10000d1e:	f88d 2006 	strb.w	r2, [sp, #6]
10000d22:	4638      	mov	r0, r7
10000d24:	f10d 0207 	add.w	r2, sp, #7
10000d28:	f10d 0106 	add.w	r1, sp, #6
10000d2c:	f00b fa10 	bl	1000c150 <__spi_write_read_blocking_veneer>
10000d30:	792b      	ldrb	r3, [r5, #4]
10000d32:	2b00      	cmp	r3, #0
10000d34:	d066      	beq.n	10000e04 <hal_can_send+0x1a8>
10000d36:	1d2e      	adds	r6, r5, #4
10000d38:	4634      	mov	r4, r6
10000d3a:	f816 1f01 	ldrb.w	r1, [r6, #1]!
10000d3e:	2301      	movs	r3, #1
10000d40:	f88d 1006 	strb.w	r1, [sp, #6]
10000d44:	4638      	mov	r0, r7
10000d46:	f10d 0207 	add.w	r2, sp, #7
10000d4a:	f10d 0106 	add.w	r1, sp, #6
10000d4e:	f00b f9ff 	bl	1000c150 <__spi_write_read_blocking_veneer>
10000d52:	3c03      	subs	r4, #3
10000d54:	f895 a004 	ldrb.w	sl, [r5, #4]
10000d58:	1b64      	subs	r4, r4, r5
10000d5a:	45a2      	cmp	sl, r4
10000d5c:	dcec      	bgt.n	10000d38 <hal_can_send+0xdc>
10000d5e:	f1ba 0f07 	cmp.w	sl, #7
10000d62:	dc0f      	bgt.n	10000d84 <hal_can_send+0x128>
10000d64:	2400      	movs	r4, #0
10000d66:	2301      	movs	r3, #1
10000d68:	4638      	mov	r0, r7
10000d6a:	f10d 0207 	add.w	r2, sp, #7
10000d6e:	f10d 0106 	add.w	r1, sp, #6
10000d72:	f10a 0a01 	add.w	sl, sl, #1
10000d76:	f88d 4006 	strb.w	r4, [sp, #6]
10000d7a:	f00b f9e9 	bl	1000c150 <__spi_write_read_blocking_veneer>
10000d7e:	f1ba 0f08 	cmp.w	sl, #8
10000d82:	d1f0      	bne.n	10000d66 <hal_can_send+0x10a>
10000d84:	bf00      	nop
10000d86:	bf00      	nop
10000d88:	bf00      	nop
10000d8a:	bf00      	nop
10000d8c:	eb08 0309 	add.w	r3, r8, r9
10000d90:	f04f 0601 	mov.w	r6, #1
10000d94:	79dc      	ldrb	r4, [r3, #7]
10000d96:	ec46 4040 	gpioc_bit_out_put r4, r6
10000d9a:	f04f 0300 	mov.w	r3, #0
10000d9e:	ec43 4040 	gpioc_bit_out_put r4, r3
10000da2:	bf00      	nop
10000da4:	bf00      	nop
10000da6:	bf00      	nop
10000da8:	bf00      	nop
10000daa:	2302      	movs	r3, #2
10000dac:	f858 5009 	ldr.w	r5, [r8, r9]
10000db0:	f88d 3006 	strb.w	r3, [sp, #6]
10000db4:	f10d 0207 	add.w	r2, sp, #7
10000db8:	f10d 0106 	add.w	r1, sp, #6
10000dbc:	2301      	movs	r3, #1
10000dbe:	4628      	mov	r0, r5
10000dc0:	f00b f9c6 	bl	1000c150 <__spi_write_read_blocking_veneer>
10000dc4:	2330      	movs	r3, #48	@ 0x30
10000dc6:	f10d 0207 	add.w	r2, sp, #7
10000dca:	f88d 3006 	strb.w	r3, [sp, #6]
10000dce:	f10d 0106 	add.w	r1, sp, #6
10000dd2:	2301      	movs	r3, #1
10000dd4:	4628      	mov	r0, r5
10000dd6:	f00b f9bb 	bl	1000c150 <__spi_write_read_blocking_veneer>
10000dda:	2308      	movs	r3, #8
10000ddc:	4628      	mov	r0, r5
10000dde:	f88d 3006 	strb.w	r3, [sp, #6]
10000de2:	f10d 0207 	add.w	r2, sp, #7
10000de6:	2301      	movs	r3, #1
10000de8:	f10d 0106 	add.w	r1, sp, #6
10000dec:	f00b f9b0 	bl	1000c150 <__spi_write_read_blocking_veneer>
10000df0:	bf00      	nop
10000df2:	bf00      	nop
10000df4:	bf00      	nop
10000df6:	bf00      	nop
10000df8:	ec46 4040 	gpioc_bit_out_put r4, r6
10000dfc:	2001      	movs	r0, #1
10000dfe:	b002      	add	sp, #8
10000e00:	e8bd 87f0 	ldmia.w	sp!, {r4, r5, r6, r7, r8, r9, sl, pc}
10000e04:	469a      	mov	sl, r3
10000e06:	e7ad      	b.n	10000d64 <hal_can_send+0x108>
10000e08:	1000ca34 	.word	0x1000ca34

10000e0c <hal_can_recv>:
10000e0c:	e92d 4ff0 	stmdb	sp!, {r4, r5, r6, r7, r8, r9, sl, fp, lr}
10000e10:	4688      	mov	r8, r1
10000e12:	b089      	sub	sp, #36	@ 0x24
10000e14:	212c      	movs	r1, #44	@ 0x2c
10000e16:	4681      	mov	r9, r0
10000e18:	f7ff fdb8 	bl	1000098c <hal_can_read_reg>
10000e1c:	f010 0303 	ands.w	r3, r0, #3
10000e20:	d06e      	beq.n	10000f00 <hal_can_recv+0xf4>
10000e22:	f010 0301 	ands.w	r3, r0, #1
10000e26:	9301      	str	r3, [sp, #4]
10000e28:	bf08      	it	eq
10000e2a:	2302      	moveq	r3, #2
10000e2c:	f8df a0d8 	ldr.w	sl, [pc, #216]	@ 10000f08 <hal_can_recv+0xfc>
10000e30:	ea4f 1b09 	mov.w	fp, r9, lsl #4
10000e34:	bf08      	it	eq
10000e36:	9301      	streq	r3, [sp, #4]
10000e38:	eb0a 030b 	add.w	r3, sl, fp
10000e3c:	bf14      	ite	ne
10000e3e:	2461      	movne	r4, #97	@ 0x61
10000e40:	2471      	moveq	r4, #113	@ 0x71
10000e42:	79db      	ldrb	r3, [r3, #7]
10000e44:	f04f 0200 	mov.w	r2, #0
10000e48:	ec42 3040 	gpioc_bit_out_put r3, r2
10000e4c:	bf00      	nop
10000e4e:	bf00      	nop
10000e50:	bf00      	nop
10000e52:	bf00      	nop
10000e54:	2303      	movs	r3, #3
10000e56:	f85a 500b 	ldr.w	r5, [sl, fp]
10000e5a:	f88d 300f 	strb.w	r3, [sp, #15]
10000e5e:	aa04      	add	r2, sp, #16
10000e60:	2301      	movs	r3, #1
10000e62:	f10d 010f 	add.w	r1, sp, #15
10000e66:	4628      	mov	r0, r5
10000e68:	f00b f972 	bl	1000c150 <__spi_write_read_blocking_veneer>
10000e6c:	2301      	movs	r3, #1
10000e6e:	4628      	mov	r0, r5
10000e70:	aa04      	add	r2, sp, #16
10000e72:	f10d 010f 	add.w	r1, sp, #15
10000e76:	f88d 400f 	strb.w	r4, [sp, #15]
10000e7a:	2700      	movs	r7, #0
10000e7c:	f00b f968 	bl	1000c150 <__spi_write_read_blocking_veneer>
10000e80:	ac04      	add	r4, sp, #16
10000e82:	f10d 061d 	add.w	r6, sp, #29
10000e86:	2301      	movs	r3, #1
10000e88:	4628      	mov	r0, r5
10000e8a:	f10d 020f 	add.w	r2, sp, #15
10000e8e:	f10d 010e 	add.w	r1, sp, #14
10000e92:	f88d 700e 	strb.w	r7, [sp, #14]
10000e96:	f00b f95b 	bl	1000c150 <__spi_write_read_blocking_veneer>
10000e9a:	f89d 300f 	ldrb.w	r3, [sp, #15]
10000e9e:	f804 3b01 	strb.w	r3, [r4], #1
10000ea2:	42b4      	cmp	r4, r6
10000ea4:	d1ef      	bne.n	10000e86 <hal_can_recv+0x7a>
10000ea6:	bf00      	nop
10000ea8:	bf00      	nop
10000eaa:	bf00      	nop
10000eac:	bf00      	nop
10000eae:	44da      	add	sl, fp
10000eb0:	f04f 0201 	mov.w	r2, #1
10000eb4:	f89a 3007 	ldrb.w	r3, [sl, #7]
10000eb8:	ec42 3040 	gpioc_bit_out_put r3, r2
10000ebc:	f89d 2014 	ldrb.w	r2, [sp, #20]
10000ec0:	f89d 3011 	ldrb.w	r3, [sp, #17]
10000ec4:	f002 020f 	and.w	r2, r2, #15
10000ec8:	2a08      	cmp	r2, #8
10000eca:	bf28      	it	cs
10000ecc:	2208      	movcs	r2, #8
10000ece:	f89d 1010 	ldrb.w	r1, [sp, #16]
10000ed2:	095b      	lsrs	r3, r3, #5
10000ed4:	ea43 03c1 	orr.w	r3, r3, r1, lsl #3
10000ed8:	f8c8 3000 	str.w	r3, [r8]
10000edc:	f10d 0115 	add.w	r1, sp, #21
10000ee0:	f888 2004 	strb.w	r2, [r8, #4]
10000ee4:	f108 0005 	add.w	r0, r8, #5
10000ee8:	f006 fc82 	bl	100077f0 <memcpy>
10000eec:	4648      	mov	r0, r9
10000eee:	2300      	movs	r3, #0
10000ef0:	212c      	movs	r1, #44	@ 0x2c
10000ef2:	9a01      	ldr	r2, [sp, #4]
10000ef4:	f7ff fdc6 	bl	10000a84 <hal_can_bit_modify>
10000ef8:	2001      	movs	r0, #1
10000efa:	b009      	add	sp, #36	@ 0x24
10000efc:	e8bd 8ff0 	ldmia.w	sp!, {r4, r5, r6, r7, r8, r9, sl, fp, pc}
10000f00:	4618      	mov	r0, r3
10000f02:	b009      	add	sp, #36	@ 0x24
10000f04:	e8bd 8ff0 	ldmia.w	sp!, {r4, r5, r6, r7, r8, r9, sl, fp, pc}
10000f08:	1000ca34 	.word	0x1000ca34

10000f0c <hal_millis>:
10000f0c:	b508      	push	{r3, lr}
10000f0e:	f000 ff3d 	bl	10001d8c <time_us_64>
10000f12:	b129      	cbz	r1, 10000f20 <hal_millis+0x14>
10000f14:	f44f 727a 	mov.w	r2, #1000	@ 0x3e8
10000f18:	2300      	movs	r3, #0
10000f1a:	f00b f911 	bl	1000c140 <____aeabi_uldivmod_veneer>
10000f1e:	bd08      	pop	{r3, pc}
10000f20:	4a02      	ldr	r2, [pc, #8]	@ (10000f2c <hal_millis+0x20>)
10000f22:	fba2 2000 	umull	r2, r0, r2, r0
10000f26:	0980      	lsrs	r0, r0, #6
10000f28:	bd08      	pop	{r3, pc}
10000f2a:	bf00      	nop
10000f2c:	10624dd3 	.word	0x10624dd3

10000f30 <chademo_can_pack_vehicle_frames>:
10000f30:	b470      	push	{r4, r5, r6}
10000f32:	2208      	movs	r2, #8
10000f34:	f44f 7680 	mov.w	r6, #256	@ 0x100
10000f38:	2300      	movs	r3, #0
10000f3a:	f240 1501 	movw	r5, #257	@ 0x101
10000f3e:	f44f 7481 	mov.w	r4, #258	@ 0x102
10000f42:	e9c1 6200 	strd	r6, r2, [r1]
10000f46:	720b      	strb	r3, [r1, #8]
10000f48:	f8b0 c000 	ldrh.w	ip, [r0]
10000f4c:	f881 c009 	strb.w	ip, [r1, #9]
10000f50:	f8b0 c000 	ldrh.w	ip, [r0]
10000f54:	fa2c fc02 	lsr.w	ip, ip, r2
10000f58:	f881 c00a 	strb.w	ip, [r1, #10]
10000f5c:	f890 c002 	ldrb.w	ip, [r0, #2]
10000f60:	610d      	str	r5, [r1, #16]
10000f62:	f881 c00b 	strb.w	ip, [r1, #11]
10000f66:	730b      	strb	r3, [r1, #12]
10000f68:	828a      	strh	r2, [r1, #20]
10000f6a:	f890 c003 	ldrb.w	ip, [r0, #3]
10000f6e:	f881 c016 	strb.w	ip, [r1, #22]
10000f72:	f890 c004 	ldrb.w	ip, [r0, #4]
10000f76:	f881 c017 	strb.w	ip, [r1, #23]
10000f7a:	f890 c005 	ldrb.w	ip, [r0, #5]
10000f7e:	764b      	strb	r3, [r1, #25]
10000f80:	f881 c018 	strb.w	ip, [r1, #24]
10000f84:	f8b0 c006 	ldrh.w	ip, [r0, #6]
10000f88:	f881 c01a 	strb.w	ip, [r1, #26]
10000f8c:	f8b0 c006 	ldrh.w	ip, [r0, #6]
10000f90:	620c      	str	r4, [r1, #32]
10000f92:	fa2c fc02 	lsr.w	ip, ip, r2
10000f96:	f881 c01b 	strb.w	ip, [r1, #27]
10000f9a:	770b      	strb	r3, [r1, #28]
10000f9c:	f881 2024 	strb.w	r2, [r1, #36]	@ 0x24
10000fa0:	7a02      	ldrb	r2, [r0, #8]
10000fa2:	f881 2025 	strb.w	r2, [r1, #37]	@ 0x25
10000fa6:	f8b0 2009 	ldrh.w	r2, [r0, #9]
10000faa:	f881 2026 	strb.w	r2, [r1, #38]	@ 0x26
10000fae:	f8b0 2009 	ldrh.w	r2, [r0, #9]
10000fb2:	bc70      	pop	{r4, r5, r6}
10000fb4:	0a12      	lsrs	r2, r2, #8
10000fb6:	f881 2027 	strb.w	r2, [r1, #39]	@ 0x27
10000fba:	7ac2      	ldrb	r2, [r0, #11]
10000fbc:	f881 2028 	strb.w	r2, [r1, #40]	@ 0x28
10000fc0:	7b02      	ldrb	r2, [r0, #12]
10000fc2:	f881 2029 	strb.w	r2, [r1, #41]	@ 0x29
10000fc6:	7b42      	ldrb	r2, [r0, #13]
10000fc8:	f881 202a 	strb.w	r2, [r1, #42]	@ 0x2a
10000fcc:	7b82      	ldrb	r2, [r0, #14]
10000fce:	f881 302c 	strb.w	r3, [r1, #44]	@ 0x2c
10000fd2:	f881 202b 	strb.w	r2, [r1, #43]	@ 0x2b
10000fd6:	4770      	bx	lr

10000fd8 <gpio_set_function>:
10000fd8:	b410      	push	{r4}
10000fda:	f44f 7480 	mov.w	r4, #256	@ 0x100
10000fde:	4b0c      	ldr	r3, [pc, #48]	@ (10001010 <gpio_set_function+0x38>)
10000fe0:	f853 2020 	ldr.w	r2, [r3, r0, lsl #2]
10000fe4:	eb03 0380 	add.w	r3, r3, r0, lsl #2
10000fe8:	00c0      	lsls	r0, r0, #3
10000fea:	f082 0240 	eor.w	r2, r2, #64	@ 0x40
10000fee:	f100 4080 	add.w	r0, r0, #1073741824	@ 0x40000000
10000ff2:	f503 5c80 	add.w	ip, r3, #4096	@ 0x1000
10000ff6:	f002 02c0 	and.w	r2, r2, #192	@ 0xc0
10000ffa:	f500 3020 	add.w	r0, r0, #163840	@ 0x28000
10000ffe:	f503 5340 	add.w	r3, r3, #12288	@ 0x3000
10001002:	f8cc 2000 	str.w	r2, [ip]
10001006:	6041      	str	r1, [r0, #4]
10001008:	601c      	str	r4, [r3, #0]
1000100a:	f85d 4b04 	ldr.w	r4, [sp], #4
1000100e:	4770      	bx	lr
10001010:	40038004 	.word	0x40038004

10001014 <gpio_set_pulls>:
10001014:	b410      	push	{r4}
10001016:	4c08      	ldr	r4, [pc, #32]	@ (10001038 <gpio_set_pulls+0x24>)
10001018:	00c9      	lsls	r1, r1, #3
1000101a:	ea41 0182 	orr.w	r1, r1, r2, lsl #2
1000101e:	f854 2020 	ldr.w	r2, [r4, r0, lsl #2]
10001022:	eb04 0380 	add.w	r3, r4, r0, lsl #2
10001026:	4051      	eors	r1, r2
10001028:	f503 5380 	add.w	r3, r3, #4096	@ 0x1000
1000102c:	f001 010c 	and.w	r1, r1, #12
10001030:	6019      	str	r1, [r3, #0]
10001032:	f85d 4b04 	ldr.w	r4, [sp], #4
10001036:	4770      	bx	lr
10001038:	40038004 	.word	0x40038004

1000103c <gpio_init>:
1000103c:	b430      	push	{r4, r5}
1000103e:	f04f 0300 	mov.w	r3, #0
10001042:	ec43 0044 	gpioc_bit_oe_put r0, r3
10001046:	ec43 0040 	gpioc_bit_out_put r0, r3
1000104a:	2505      	movs	r5, #5
1000104c:	f44f 7480 	mov.w	r4, #256	@ 0x100
10001050:	4b0b      	ldr	r3, [pc, #44]	@ (10001080 <gpio_init+0x44>)
10001052:	00c2      	lsls	r2, r0, #3
10001054:	f853 1020 	ldr.w	r1, [r3, r0, lsl #2]
10001058:	eb03 0080 	add.w	r0, r3, r0, lsl #2
1000105c:	f081 0140 	eor.w	r1, r1, #64	@ 0x40
10001060:	f102 4380 	add.w	r3, r2, #1073741824	@ 0x40000000
10001064:	f503 3320 	add.w	r3, r3, #163840	@ 0x28000
10001068:	f001 02c0 	and.w	r2, r1, #192	@ 0xc0
1000106c:	f500 5180 	add.w	r1, r0, #4096	@ 0x1000
10001070:	f500 5040 	add.w	r0, r0, #12288	@ 0x3000
10001074:	600a      	str	r2, [r1, #0]
10001076:	605d      	str	r5, [r3, #4]
10001078:	6004      	str	r4, [r0, #0]
1000107a:	bc30      	pop	{r4, r5}
1000107c:	4770      	bx	lr
1000107e:	bf00      	nop
10001080:	40038004 	.word	0x40038004

10001084 <panic>:
10001084:	b40f      	push	{r0, r1, r2, r3}
10001086:	b500      	push	{lr}
10001088:	b083      	sub	sp, #12
1000108a:	9c04      	ldr	r4, [sp, #16]
1000108c:	4807      	ldr	r0, [pc, #28]	@ (100010ac <panic+0x28>)
1000108e:	f003 f82d 	bl	100040ec <__wrap_puts>
10001092:	b13c      	cbz	r4, 100010a4 <panic+0x20>
10001094:	a905      	add	r1, sp, #20
10001096:	4620      	mov	r0, r4
10001098:	9101      	str	r1, [sp, #4]
1000109a:	f002 fe57 	bl	10003d4c <weak_raw_vprintf>
1000109e:	4804      	ldr	r0, [pc, #16]	@ (100010b0 <panic+0x2c>)
100010a0:	f003 f824 	bl	100040ec <__wrap_puts>
100010a4:	2001      	movs	r0, #1
100010a6:	f002 fe69 	bl	10003d7c <_exit>
100010aa:	bf00      	nop
100010ac:	1000c75c 	.word	0x1000c75c
100010b0:	1000c76c 	.word	0x1000c76c

100010b4 <hw_claim_or_assert>:
100010b4:	b570      	push	{r4, r5, r6, lr}
100010b6:	4686      	mov	lr, r0
100010b8:	f3ef 8510 	mrs	r5, PRIMASK
100010bc:	b672      	cpsid	i
100010be:	4c12      	ldr	r4, [pc, #72]	@ (10001108 <hw_claim_or_assert+0x54>)
100010c0:	e8d4 6fcf 	ldaexb	r6, [r4]
100010c4:	2001      	movs	r0, #1
100010c6:	2e00      	cmp	r6, #0
100010c8:	d1fa      	bne.n	100010c0 <hw_claim_or_assert+0xc>
100010ca:	e8c4 0f46 	strexb	r6, r0, [r4]
100010ce:	2e00      	cmp	r6, #0
100010d0:	d1f6      	bne.n	100010c0 <hw_claim_or_assert+0xc>
100010d2:	f3bf 8f5f 	dmb	sy
100010d6:	f04f 0c01 	mov.w	ip, #1
100010da:	08c8      	lsrs	r0, r1, #3
100010dc:	f001 0307 	and.w	r3, r1, #7
100010e0:	fa0c f303 	lsl.w	r3, ip, r3
100010e4:	f81e c000 	ldrb.w	ip, [lr, r0]
100010e8:	ea1c 0603 	ands.w	r6, ip, r3
100010ec:	d108      	bne.n	10001100 <hw_claim_or_assert+0x4c>
100010ee:	ea4c 0c03 	orr.w	ip, ip, r3
100010f2:	f80e c000 	strb.w	ip, [lr, r0]
100010f6:	e8c4 6f8f 	stlb	r6, [r4]
100010fa:	f385 8810 	msr	PRIMASK, r5
100010fe:	bd70      	pop	{r4, r5, r6, pc}
10001100:	4610      	mov	r0, r2
10001102:	f7ff ffbf 	bl	10001084 <panic>
10001106:	bf00      	nop
10001108:	20001a3b 	.word	0x20001a3b

1000110c <hw_claim_unused_from_range>:
1000110c:	b5f8      	push	{r3, r4, r5, r6, r7, lr}
1000110e:	f3ef 8710 	mrs	r7, PRIMASK
10001112:	b672      	cpsid	i
10001114:	4e1c      	ldr	r6, [pc, #112]	@ (10001188 <hw_claim_unused_from_range+0x7c>)
10001116:	e8d6 5fcf 	ldaexb	r5, [r6]
1000111a:	2401      	movs	r4, #1
1000111c:	2d00      	cmp	r5, #0
1000111e:	d1fa      	bne.n	10001116 <hw_claim_unused_from_range+0xa>
10001120:	e8c6 4f45 	strexb	r5, r4, [r6]
10001124:	2d00      	cmp	r5, #0
10001126:	d1f6      	bne.n	10001116 <hw_claim_unused_from_range+0xa>
10001128:	f3bf 8f5f 	dmb	sy
1000112c:	429a      	cmp	r2, r3
1000112e:	d81b      	bhi.n	10001168 <hw_claim_unused_from_range+0x5c>
10001130:	2501      	movs	r5, #1
10001132:	e002      	b.n	1000113a <hw_claim_unused_from_range+0x2e>
10001134:	3201      	adds	r2, #1
10001136:	4293      	cmp	r3, r2
10001138:	d322      	bcc.n	10001180 <hw_claim_unused_from_range+0x74>
1000113a:	08d4      	lsrs	r4, r2, #3
1000113c:	f810 e004 	ldrb.w	lr, [r0, r4]
10001140:	f002 0c07 	and.w	ip, r2, #7
10001144:	fa05 fc0c 	lsl.w	ip, r5, ip
10001148:	ea1e 0f0c 	tst.w	lr, ip
1000114c:	d1f2      	bne.n	10001134 <hw_claim_unused_from_range+0x28>
1000114e:	ea4e 0e0c 	orr.w	lr, lr, ip
10001152:	f800 e004 	strb.w	lr, [r0, r4]
10001156:	4610      	mov	r0, r2
10001158:	2300      	movs	r3, #0
1000115a:	e8c6 3f8f 	stlb	r3, [r6]
1000115e:	f387 8810 	msr	PRIMASK, r7
10001162:	4298      	cmp	r0, r3
10001164:	db07      	blt.n	10001176 <hw_claim_unused_from_range+0x6a>
10001166:	bdf8      	pop	{r3, r4, r5, r6, r7, pc}
10001168:	2300      	movs	r3, #0
1000116a:	e8c6 3f8f 	stlb	r3, [r6]
1000116e:	f387 8810 	msr	PRIMASK, r7
10001172:	f04f 30ff 	mov.w	r0, #4294967295	@ 0xffffffff
10001176:	2900      	cmp	r1, #0
10001178:	d0f5      	beq.n	10001166 <hw_claim_unused_from_range+0x5a>
1000117a:	9806      	ldr	r0, [sp, #24]
1000117c:	f7ff ff82 	bl	10001084 <panic>
10001180:	f04f 30ff 	mov.w	r0, #4294967295	@ 0xffffffff
10001184:	e7e8      	b.n	10001158 <hw_claim_unused_from_range+0x4c>
10001186:	bf00      	nop
10001188:	20001a3b 	.word	0x20001a3b

1000118c <next_striped_spin_lock_num>:
1000118c:	4a04      	ldr	r2, [pc, #16]	@ (100011a0 <next_striped_spin_lock_num+0x14>)
1000118e:	7810      	ldrb	r0, [r2, #0]
10001190:	1c43      	adds	r3, r0, #1
10001192:	b2db      	uxtb	r3, r3
10001194:	2b18      	cmp	r3, #24
10001196:	bf28      	it	cs
10001198:	2310      	movcs	r3, #16
1000119a:	7013      	strb	r3, [r2, #0]
1000119c:	4770      	bx	lr
1000119e:	bf00      	nop
100011a0:	20000e2e 	.word	0x20000e2e

100011a4 <spin_lock_claim_unused>:
100011a4:	b510      	push	{r4, lr}
100011a6:	4c05      	ldr	r4, [pc, #20]	@ (100011bc <spin_lock_claim_unused+0x18>)
100011a8:	b082      	sub	sp, #8
100011aa:	4601      	mov	r1, r0
100011ac:	231f      	movs	r3, #31
100011ae:	2218      	movs	r2, #24
100011b0:	9400      	str	r4, [sp, #0]
100011b2:	4803      	ldr	r0, [pc, #12]	@ (100011c0 <spin_lock_claim_unused+0x1c>)
100011b4:	f7ff ffaa 	bl	1000110c <hw_claim_unused_from_range>
100011b8:	b002      	add	sp, #8
100011ba:	bd10      	pop	{r4, pc}
100011bc:	1000c770 	.word	0x1000c770
100011c0:	20001ecc 	.word	0x20001ecc

100011c4 <spinlock_set_extexclall>:
100011c4:	f04f 22e0 	mov.w	r2, #3758153728	@ 0xe000e000
100011c8:	6893      	ldr	r3, [r2, #8]
100011ca:	f043 5300 	orr.w	r3, r3, #536870912	@ 0x20000000
100011ce:	6093      	str	r3, [r2, #8]
100011d0:	4770      	bx	lr
100011d2:	bf00      	nop

100011d4 <spin_locks_reset>:
100011d4:	2100      	movs	r1, #0
100011d6:	4b04      	ldr	r3, [pc, #16]	@ (100011e8 <spin_locks_reset+0x14>)
100011d8:	f103 0220 	add.w	r2, r3, #32
100011dc:	e8c3 1f8f 	stlb	r1, [r3]
100011e0:	3301      	adds	r3, #1
100011e2:	4293      	cmp	r3, r2
100011e4:	d1fa      	bne.n	100011dc <spin_locks_reset+0x8>
100011e6:	4770      	bx	lr
100011e8:	20001a30 	.word	0x20001a30

100011ec <runtime_init_per_core_irq_priorities>:
100011ec:	f04f 3080 	mov.w	r0, #2155905152	@ 0x80808080
100011f0:	4b03      	ldr	r3, [pc, #12]	@ (10001200 <runtime_init_per_core_irq_priorities+0x14>)
100011f2:	4904      	ldr	r1, [pc, #16]	@ (10001204 <runtime_init_per_core_irq_priorities+0x18>)
100011f4:	461a      	mov	r2, r3
100011f6:	3304      	adds	r3, #4
100011f8:	428b      	cmp	r3, r1
100011fa:	6010      	str	r0, [r2, #0]
100011fc:	d1fa      	bne.n	100011f4 <runtime_init_per_core_irq_priorities+0x8>
100011fe:	4770      	bx	lr
10001200:	e000e400 	.word	0xe000e400
10001204:	e000e434 	.word	0xe000e434

10001208 <irq_set_enabled>:
10001208:	2301      	movs	r3, #1
1000120a:	f000 021f 	and.w	r2, r0, #31
1000120e:	4093      	lsls	r3, r2
10001210:	0940      	lsrs	r0, r0, #5
10001212:	b141      	cbz	r1, 10001226 <irq_set_enabled+0x1e>
10001214:	0080      	lsls	r0, r0, #2
10001216:	f100 4060 	add.w	r0, r0, #3758096384	@ 0xe0000000
1000121a:	f500 4061 	add.w	r0, r0, #57600	@ 0xe100
1000121e:	f8c0 3180 	str.w	r3, [r0, #384]	@ 0x180
10001222:	6003      	str	r3, [r0, #0]
10001224:	4770      	bx	lr
10001226:	4a02      	ldr	r2, [pc, #8]	@ (10001230 <irq_set_enabled+0x28>)
10001228:	3020      	adds	r0, #32
1000122a:	f842 3020 	str.w	r3, [r2, r0, lsl #2]
1000122e:	4770      	bx	lr
10001230:	e000e100 	.word	0xe000e100

10001234 <irq_is_enabled>:
10001234:	2301      	movs	r3, #1
10001236:	4a06      	ldr	r2, [pc, #24]	@ (10001250 <irq_is_enabled+0x1c>)
10001238:	0941      	lsrs	r1, r0, #5
1000123a:	f852 2021 	ldr.w	r2, [r2, r1, lsl #2]
1000123e:	f000 001f 	and.w	r0, r0, #31
10001242:	fa03 f000 	lsl.w	r0, r3, r0
10001246:	4010      	ands	r0, r2
10001248:	3800      	subs	r0, #0
1000124a:	bf18      	it	ne
1000124c:	2001      	movne	r0, #1
1000124e:	4770      	bx	lr
10001250:	e000e100 	.word	0xe000e100

10001254 <irq_set_pending>:
10001254:	2201      	movs	r2, #1
10001256:	0943      	lsrs	r3, r0, #5
10001258:	4903      	ldr	r1, [pc, #12]	@ (10001268 <irq_set_pending+0x14>)
1000125a:	f000 001f 	and.w	r0, r0, #31
1000125e:	4082      	lsls	r2, r0
10001260:	3340      	adds	r3, #64	@ 0x40
10001262:	f841 2023 	str.w	r2, [r1, r3, lsl #2]
10001266:	4770      	bx	lr
10001268:	e000e100 	.word	0xe000e100

1000126c <irq_has_shared_handler>:
1000126c:	4a05      	ldr	r2, [pc, #20]	@ (10001284 <irq_has_shared_handler+0x18>)
1000126e:	3010      	adds	r0, #16
10001270:	6892      	ldr	r2, [r2, #8]
10001272:	4b05      	ldr	r3, [pc, #20]	@ (10001288 <irq_has_shared_handler+0x1c>)
10001274:	f852 0020 	ldr.w	r0, [r2, r0, lsl #2]
10001278:	1ac0      	subs	r0, r0, r3
1000127a:	282f      	cmp	r0, #47	@ 0x2f
1000127c:	bf8c      	ite	hi
1000127e:	2000      	movhi	r0, #0
10001280:	2001      	movls	r0, #1
10001282:	4770      	bx	lr
10001284:	e000ed00 	.word	0xe000ed00
10001288:	20000e30 	.word	0x20000e30

1000128c <irq_set_exclusive_handler>:
1000128c:	b5f8      	push	{r3, r4, r5, r6, r7, lr}
1000128e:	460d      	mov	r5, r1
10001290:	f3ef 8710 	mrs	r7, PRIMASK
10001294:	b672      	cpsid	i
10001296:	4e12      	ldr	r6, [pc, #72]	@ (100012e0 <irq_set_exclusive_handler+0x54>)
10001298:	e8d6 2fcf 	ldaexb	r2, [r6]
1000129c:	2301      	movs	r3, #1
1000129e:	2a00      	cmp	r2, #0
100012a0:	d1fa      	bne.n	10001298 <irq_set_exclusive_handler+0xc>
100012a2:	e8c6 3f42 	strexb	r2, r3, [r6]
100012a6:	2a00      	cmp	r2, #0
100012a8:	d1f6      	bne.n	10001298 <irq_set_exclusive_handler+0xc>
100012aa:	f3bf 8f5f 	dmb	sy
100012ae:	4b0d      	ldr	r3, [pc, #52]	@ (100012e4 <irq_set_exclusive_handler+0x58>)
100012b0:	f100 0410 	add.w	r4, r0, #16
100012b4:	689b      	ldr	r3, [r3, #8]
100012b6:	4a0c      	ldr	r2, [pc, #48]	@ (100012e8 <irq_set_exclusive_handler+0x5c>)
100012b8:	f853 3024 	ldr.w	r3, [r3, r4, lsl #2]
100012bc:	4293      	cmp	r3, r2
100012be:	d003      	beq.n	100012c8 <irq_set_exclusive_handler+0x3c>
100012c0:	4299      	cmp	r1, r3
100012c2:	d001      	beq.n	100012c8 <irq_set_exclusive_handler+0x3c>
100012c4:	f000 ff2a 	bl	1000211c <hard_assertion_failure>
100012c8:	4b06      	ldr	r3, [pc, #24]	@ (100012e4 <irq_set_exclusive_handler+0x58>)
100012ca:	689b      	ldr	r3, [r3, #8]
100012cc:	f843 5024 	str.w	r5, [r3, r4, lsl #2]
100012d0:	f3bf 8f5f 	dmb	sy
100012d4:	2300      	movs	r3, #0
100012d6:	e8c6 3f8f 	stlb	r3, [r6]
100012da:	f387 8810 	msr	PRIMASK, r7
100012de:	bdf8      	pop	{r3, r4, r5, r6, r7, pc}
100012e0:	20001a39 	.word	0x20001a39
100012e4:	e000ed00 	.word	0xe000ed00
100012e8:	1000011d 	.word	0x1000011d

100012ec <irq_add_shared_handler>:
100012ec:	e92d 4ff0 	stmdb	sp!, {r4, r5, r6, r7, r8, r9, sl, fp, lr}
100012f0:	4681      	mov	r9, r0
100012f2:	468b      	mov	fp, r1
100012f4:	4616      	mov	r6, r2
100012f6:	b083      	sub	sp, #12
100012f8:	f3ef 8310 	mrs	r3, PRIMASK
100012fc:	b672      	cpsid	i
100012fe:	f8df a1d0 	ldr.w	sl, [pc, #464]	@ 100014d0 <irq_add_shared_handler+0x1e4>
10001302:	9300      	str	r3, [sp, #0]
10001304:	e8da 1fcf 	ldaexb	r1, [sl]
10001308:	2301      	movs	r3, #1
1000130a:	2900      	cmp	r1, #0
1000130c:	d1fa      	bne.n	10001304 <irq_add_shared_handler+0x18>
1000130e:	e8ca 3f41 	strexb	r1, r3, [sl]
10001312:	2900      	cmp	r1, #0
10001314:	d1f6      	bne.n	10001304 <irq_add_shared_handler+0x18>
10001316:	f3bf 8f5f 	dmb	sy
1000131a:	4b66      	ldr	r3, [pc, #408]	@ (100014b4 <irq_add_shared_handler+0x1c8>)
1000131c:	f993 4000 	ldrsb.w	r4, [r3]
10001320:	2c00      	cmp	r4, #0
10001322:	f2c0 80a0 	blt.w	10001466 <irq_add_shared_handler+0x17a>
10001326:	4d64      	ldr	r5, [pc, #400]	@ (100014b8 <irq_add_shared_handler+0x1cc>)
10001328:	eb04 0744 	add.w	r7, r4, r4, lsl #1
1000132c:	eb05 0887 	add.w	r8, r5, r7, lsl #2
10001330:	f898 1006 	ldrb.w	r1, [r8, #6]
10001334:	f109 0910 	add.w	r9, r9, #16
10001338:	7019      	strb	r1, [r3, #0]
1000133a:	4b60      	ldr	r3, [pc, #384]	@ (100014bc <irq_add_shared_handler+0x1d0>)
1000133c:	00bf      	lsls	r7, r7, #2
1000133e:	689b      	ldr	r3, [r3, #8]
10001340:	f853 0029 	ldr.w	r0, [r3, r9, lsl #2]
10001344:	0063      	lsls	r3, r4, #1
10001346:	1b41      	subs	r1, r0, r5
10001348:	292f      	cmp	r1, #47	@ 0x2f
1000134a:	d92f      	bls.n	100013ac <irq_add_shared_handler+0xc0>
1000134c:	495c      	ldr	r1, [pc, #368]	@ (100014c0 <irq_add_shared_handler+0x1d4>)
1000134e:	4288      	cmp	r0, r1
10001350:	f040 80a4 	bne.w	1000149c <irq_add_shared_handler+0x1b0>
10001354:	441c      	add	r4, r3
10001356:	4b5b      	ldr	r3, [pc, #364]	@ (100014c4 <irq_add_shared_handler+0x1d8>)
10001358:	3702      	adds	r7, #2
1000135a:	442f      	add	r7, r5
1000135c:	3b04      	subs	r3, #4
1000135e:	1bdb      	subs	r3, r3, r7
10001360:	f3c3 034a 	ubfx	r3, r3, #1, #11
10001364:	ea6f 43c3 	mvn.w	r3, r3, lsl #19
10001368:	f44f 4121 	mov.w	r1, #41216	@ 0xa100
1000136c:	ea6f 43d3 	mvn.w	r3, r3, lsr #19
10001370:	f825 1024 	strh.w	r1, [r5, r4, lsl #2]
10001374:	eb05 0484 	add.w	r4, r5, r4, lsl #2
10001378:	8063      	strh	r3, [r4, #2]
1000137a:	f64b 5301 	movw	r3, #48385	@ 0xbd01
1000137e:	80a3      	strh	r3, [r4, #4]
10001380:	23ff      	movs	r3, #255	@ 0xff
10001382:	f048 0001 	orr.w	r0, r8, #1
10001386:	71e6      	strb	r6, [r4, #7]
10001388:	f8c4 b008 	str.w	fp, [r4, #8]
1000138c:	71a3      	strb	r3, [r4, #6]
1000138e:	4b4b      	ldr	r3, [pc, #300]	@ (100014bc <irq_add_shared_handler+0x1d0>)
10001390:	689b      	ldr	r3, [r3, #8]
10001392:	f843 0029 	str.w	r0, [r3, r9, lsl #2]
10001396:	f3bf 8f5f 	dmb	sy
1000139a:	2300      	movs	r3, #0
1000139c:	e8ca 3f8f 	stlb	r3, [sl]
100013a0:	9b00      	ldr	r3, [sp, #0]
100013a2:	f383 8810 	msr	PRIMASK, r3
100013a6:	b003      	add	sp, #12
100013a8:	e8bd 8ff0 	ldmia.w	sp!, {r4, r5, r6, r7, r8, r9, sl, fp, pc}
100013ac:	f020 0e01 	bic.w	lr, r0, #1
100013b0:	f89e 1007 	ldrb.w	r1, [lr, #7]
100013b4:	42b1      	cmp	r1, r6
100013b6:	d82e      	bhi.n	10001416 <irq_add_shared_handler+0x12a>
100013b8:	f44f 4321 	mov.w	r3, #41216	@ 0xa100
100013bc:	53eb      	strh	r3, [r5, r7]
100013be:	4b41      	ldr	r3, [pc, #260]	@ (100014c4 <irq_add_shared_handler+0x1d8>)
100013c0:	1cb9      	adds	r1, r7, #2
100013c2:	4429      	add	r1, r5
100013c4:	3b04      	subs	r3, #4
100013c6:	3704      	adds	r7, #4
100013c8:	1a5b      	subs	r3, r3, r1
100013ca:	442f      	add	r7, r5
100013cc:	f1ae 0104 	sub.w	r1, lr, #4
100013d0:	1bc9      	subs	r1, r1, r7
100013d2:	f3c1 044a 	ubfx	r4, r1, #1, #11
100013d6:	493c      	ldr	r1, [pc, #240]	@ (100014c8 <irq_add_shared_handler+0x1dc>)
100013d8:	f3c3 034a 	ubfx	r3, r3, #1, #11
100013dc:	430b      	orrs	r3, r1
100013de:	4321      	orrs	r1, r4
100013e0:	f8a8 1004 	strh.w	r1, [r8, #4]
100013e4:	4939      	ldr	r1, [pc, #228]	@ (100014cc <irq_add_shared_handler+0x1e0>)
100013e6:	f8a8 3002 	strh.w	r3, [r8, #2]
100013ea:	f64a 20aa 	movw	r0, #43690	@ 0xaaaa
100013ee:	4673      	mov	r3, lr
100013f0:	1b5b      	subs	r3, r3, r5
100013f2:	415b      	adcs	r3, r3
100013f4:	4358      	muls	r0, r3
100013f6:	0d00      	lsrs	r0, r0, #20
100013f8:	f888 6007 	strb.w	r6, [r8, #7]
100013fc:	f888 0006 	strb.w	r0, [r8, #6]
10001400:	f8c8 b008 	str.w	fp, [r8, #8]
10001404:	f048 0001 	orr.w	r0, r8, #1
10001408:	f8ce 1000 	str.w	r1, [lr]
1000140c:	e7bf      	b.n	1000138e <irq_add_shared_handler+0xa2>
1000140e:	79d1      	ldrb	r1, [r2, #7]
10001410:	42b1      	cmp	r1, r6
10001412:	d92e      	bls.n	10001472 <irq_add_shared_handler+0x186>
10001414:	4696      	mov	lr, r2
10001416:	f99e c006 	ldrsb.w	ip, [lr, #6]
1000141a:	eb0c 024c 	add.w	r2, ip, ip, lsl #1
1000141e:	f1bc 0f00 	cmp.w	ip, #0
10001422:	eb05 0282 	add.w	r2, r5, r2, lsl #2
10001426:	daf2      	bge.n	1000140e <irq_add_shared_handler+0x122>
10001428:	f64b 5101 	movw	r1, #48385	@ 0xbd01
1000142c:	f10e 0204 	add.w	r2, lr, #4
10001430:	f1a8 0704 	sub.w	r7, r8, #4
10001434:	1abf      	subs	r7, r7, r2
10001436:	f3c7 074a 	ubfx	r7, r7, #1, #11
1000143a:	ea6f 47c7 	mvn.w	r7, r7, lsl #19
1000143e:	ea6f 47d7 	mvn.w	r7, r7, lsr #19
10001442:	f88e 4006 	strb.w	r4, [lr, #6]
10001446:	eb03 0804 	add.w	r8, r3, r4
1000144a:	4c20      	ldr	r4, [pc, #128]	@ (100014cc <irq_add_shared_handler+0x1e0>)
1000144c:	eb05 0388 	add.w	r3, r5, r8, lsl #2
10001450:	f8ae 7004 	strh.w	r7, [lr, #4]
10001454:	f845 4028 	str.w	r4, [r5, r8, lsl #2]
10001458:	8099      	strh	r1, [r3, #4]
1000145a:	f883 c006 	strb.w	ip, [r3, #6]
1000145e:	71de      	strb	r6, [r3, #7]
10001460:	f8c3 b008 	str.w	fp, [r3, #8]
10001464:	e793      	b.n	1000138e <irq_add_shared_handler+0xa2>
10001466:	f000 fe59 	bl	1000211c <hard_assertion_failure>
1000146a:	4b12      	ldr	r3, [pc, #72]	@ (100014b4 <irq_add_shared_handler+0x1c8>)
1000146c:	f993 4000 	ldrsb.w	r4, [r3]
10001470:	e759      	b.n	10001326 <irq_add_shared_handler+0x3a>
10001472:	4672      	mov	r2, lr
10001474:	f832 1f04 	ldrh.w	r1, [r2, #4]!
10001478:	0549      	lsls	r1, r1, #21
1000147a:	d414      	bmi.n	100014a6 <irq_add_shared_handler+0x1ba>
1000147c:	1549      	asrs	r1, r1, #21
1000147e:	3102      	adds	r1, #2
10001480:	eb02 0141 	add.w	r1, r2, r1, lsl #1
10001484:	9101      	str	r1, [sp, #4]
10001486:	f06f 0107 	mvn.w	r1, #7
1000148a:	1bc9      	subs	r1, r1, r7
1000148c:	9f01      	ldr	r7, [sp, #4]
1000148e:	1b49      	subs	r1, r1, r5
10001490:	4439      	add	r1, r7
10001492:	f3c1 014a 	ubfx	r1, r1, #1, #11
10001496:	f441 4160 	orr.w	r1, r1, #57344	@ 0xe000
1000149a:	e7c9      	b.n	10001430 <irq_add_shared_handler+0x144>
1000149c:	9301      	str	r3, [sp, #4]
1000149e:	f000 fe3d 	bl	1000211c <hard_assertion_failure>
100014a2:	9b01      	ldr	r3, [sp, #4]
100014a4:	e756      	b.n	10001354 <irq_add_shared_handler+0x68>
100014a6:	f501 11ff 	add.w	r1, r1, #2088960	@ 0x1fe000
100014aa:	f501 51ff 	add.w	r1, r1, #8160	@ 0x1fe0
100014ae:	311f      	adds	r1, #31
100014b0:	e7e4      	b.n	1000147c <irq_add_shared_handler+0x190>
100014b2:	bf00      	nop
100014b4:	200023b5 	.word	0x200023b5
100014b8:	20000e30 	.word	0x20000e30
100014bc:	e000ed00 	.word	0xe000ed00
100014c0:	1000011d 	.word	0x1000011d
100014c4:	20000e60 	.word	0x20000e60
100014c8:	ffffe000 	.word	0xffffe000
100014cc:	47804801 	.word	0x47804801
100014d0:	20001a39 	.word	0x20001a39

100014d4 <irq_add_tail_to_free_list>:
100014d4:	e92d 41f0 	stmdb	sp!, {r4, r5, r6, r7, r8, lr}
100014d8:	f3ef 8605 	mrs	r6, IPSR
100014dc:	b2f6      	uxtb	r6, r6
100014de:	f3ef 8e10 	mrs	lr, PRIMASK
100014e2:	b672      	cpsid	i
100014e4:	4d20      	ldr	r5, [pc, #128]	@ (10001568 <irq_add_tail_to_free_list+0x94>)
100014e6:	e8d5 2fcf 	ldaexb	r2, [r5]
100014ea:	2301      	movs	r3, #1
100014ec:	2a00      	cmp	r2, #0
100014ee:	d1fa      	bne.n	100014e6 <irq_add_tail_to_free_list+0x12>
100014f0:	e8c5 3f42 	strexb	r2, r3, [r5]
100014f4:	2a00      	cmp	r2, #0
100014f6:	d1f6      	bne.n	100014e6 <irq_add_tail_to_free_list+0x12>
100014f8:	f3bf 8f5f 	dmb	sy
100014fc:	4f1b      	ldr	r7, [pc, #108]	@ (1000156c <irq_add_tail_to_free_list+0x98>)
100014fe:	f040 0c01 	orr.w	ip, r0, #1
10001502:	68ba      	ldr	r2, [r7, #8]
10001504:	f64a 23aa 	movw	r3, #43690	@ 0xaaaa
10001508:	f852 8026 	ldr.w	r8, [r2, r6, lsl #2]
1000150c:	4c18      	ldr	r4, [pc, #96]	@ (10001570 <irq_add_tail_to_free_list+0x9c>)
1000150e:	4602      	mov	r2, r0
10001510:	1b12      	subs	r2, r2, r4
10001512:	4152      	adcs	r2, r2
10001514:	4353      	muls	r3, r2
10001516:	0d1b      	lsrs	r3, r3, #20
10001518:	45e0      	cmp	r8, ip
1000151a:	b259      	sxtb	r1, r3
1000151c:	d014      	beq.n	10001548 <irq_add_tail_to_free_list+0x74>
1000151e:	4622      	mov	r2, r4
10001520:	2300      	movs	r3, #0
10001522:	f992 c006 	ldrsb.w	ip, [r2, #6]
10001526:	320c      	adds	r2, #12
10001528:	458c      	cmp	ip, r1
1000152a:	d012      	beq.n	10001552 <irq_add_tail_to_free_list+0x7e>
1000152c:	3301      	adds	r3, #1
1000152e:	2b04      	cmp	r3, #4
10001530:	d1f7      	bne.n	10001522 <irq_add_tail_to_free_list+0x4e>
10001532:	4b10      	ldr	r3, [pc, #64]	@ (10001574 <irq_add_tail_to_free_list+0xa0>)
10001534:	2200      	movs	r2, #0
10001536:	781c      	ldrb	r4, [r3, #0]
10001538:	7019      	strb	r1, [r3, #0]
1000153a:	7184      	strb	r4, [r0, #6]
1000153c:	e8c5 2f8f 	stlb	r2, [r5]
10001540:	f38e 8810 	msr	PRIMASK, lr
10001544:	e8bd 81f0 	ldmia.w	sp!, {r4, r5, r6, r7, r8, pc}
10001548:	68bb      	ldr	r3, [r7, #8]
1000154a:	4a0b      	ldr	r2, [pc, #44]	@ (10001578 <irq_add_tail_to_free_list+0xa4>)
1000154c:	f843 2026 	str.w	r2, [r3, r6, lsl #2]
10001550:	e7ef      	b.n	10001532 <irq_add_tail_to_free_list+0x5e>
10001552:	eb03 0343 	add.w	r3, r3, r3, lsl #1
10001556:	eb04 0483 	add.w	r4, r4, r3, lsl #2
1000155a:	23ff      	movs	r3, #255	@ 0xff
1000155c:	71a3      	strb	r3, [r4, #6]
1000155e:	f64b 5301 	movw	r3, #48385	@ 0xbd01
10001562:	80a3      	strh	r3, [r4, #4]
10001564:	e7e5      	b.n	10001532 <irq_add_tail_to_free_list+0x5e>
10001566:	bf00      	nop
10001568:	20001a39 	.word	0x20001a39
1000156c:	e000ed00 	.word	0xe000ed00
10001570:	20000e30 	.word	0x20000e30
10001574:	200023b5 	.word	0x200023b5
10001578:	1000011d 	.word	0x1000011d

1000157c <user_irq_claim_unused>:
1000157c:	b510      	push	{r4, lr}
1000157e:	4c07      	ldr	r4, [pc, #28]	@ (1000159c <user_irq_claim_unused+0x20>)
10001580:	b082      	sub	sp, #8
10001582:	4601      	mov	r1, r0
10001584:	2305      	movs	r3, #5
10001586:	2200      	movs	r2, #0
10001588:	9400      	str	r4, [sp, #0]
1000158a:	4805      	ldr	r0, [pc, #20]	@ (100015a0 <user_irq_claim_unused+0x24>)
1000158c:	f7ff fdbe 	bl	1000110c <hw_claim_unused_from_range>
10001590:	2800      	cmp	r0, #0
10001592:	bfa8      	it	ge
10001594:	f1c0 0033 	rsbge	r0, r0, #51	@ 0x33
10001598:	b002      	add	sp, #8
1000159a:	bd10      	pop	{r4, pc}
1000159c:	1000c78c 	.word	0x1000c78c
100015a0:	200023ba 	.word	0x200023ba

100015a4 <lock_init>:
100015a4:	4b01      	ldr	r3, [pc, #4]	@ (100015ac <lock_init+0x8>)
100015a6:	440b      	add	r3, r1
100015a8:	6003      	str	r3, [r0, #0]
100015aa:	4770      	bx	lr
100015ac:	20001a30 	.word	0x20001a30

100015b0 <runtime_init_mutex>:
100015b0:	b570      	push	{r4, r5, r6, lr}
100015b2:	4c11      	ldr	r4, [pc, #68]	@ (100015f8 <runtime_init_mutex+0x48>)
100015b4:	4d11      	ldr	r5, [pc, #68]	@ (100015fc <runtime_init_mutex+0x4c>)
100015b6:	42ac      	cmp	r4, r5
100015b8:	d21c      	bcs.n	100015f4 <runtime_init_mutex+0x44>
100015ba:	26ff      	movs	r6, #255	@ 0xff
100015bc:	e00b      	b.n	100015d6 <runtime_init_mutex+0x26>
100015be:	f7ff fde5 	bl	1000118c <next_striped_spin_lock_num>
100015c2:	4601      	mov	r1, r0
100015c4:	4620      	mov	r0, r4
100015c6:	f7ff ffed 	bl	100015a4 <lock_init>
100015ca:	80a6      	strh	r6, [r4, #4]
100015cc:	f3bf 8f5f 	dmb	sy
100015d0:	3408      	adds	r4, #8
100015d2:	42ac      	cmp	r4, r5
100015d4:	d20e      	bcs.n	100015f4 <runtime_init_mutex+0x44>
100015d6:	6823      	ldr	r3, [r4, #0]
100015d8:	2b00      	cmp	r3, #0
100015da:	d1f0      	bne.n	100015be <runtime_init_mutex+0xe>
100015dc:	f7ff fdd6 	bl	1000118c <next_striped_spin_lock_num>
100015e0:	4601      	mov	r1, r0
100015e2:	4620      	mov	r0, r4
100015e4:	f7ff ffde 	bl	100015a4 <lock_init>
100015e8:	7126      	strb	r6, [r4, #4]
100015ea:	f3bf 8f5f 	dmb	sy
100015ee:	3408      	adds	r4, #8
100015f0:	42ac      	cmp	r4, r5
100015f2:	d3f0      	bcc.n	100015d6 <runtime_init_mutex+0x26>
100015f4:	bd70      	pop	{r4, r5, r6, pc}
100015f6:	bf00      	nop
100015f8:	2000156c 	.word	0x2000156c
100015fc:	20001574 	.word	0x20001574

10001600 <mutex_init>:
10001600:	b510      	push	{r4, lr}
10001602:	4604      	mov	r4, r0
10001604:	f7ff fdc2 	bl	1000118c <next_striped_spin_lock_num>
10001608:	4601      	mov	r1, r0
1000160a:	4620      	mov	r0, r4
1000160c:	f7ff ffca 	bl	100015a4 <lock_init>
10001610:	23ff      	movs	r3, #255	@ 0xff
10001612:	7123      	strb	r3, [r4, #4]
10001614:	f3bf 8f5f 	dmb	sy
10001618:	bd10      	pop	{r4, pc}
1000161a:	bf00      	nop

1000161c <critical_section_init>:
1000161c:	b510      	push	{r4, lr}
1000161e:	4604      	mov	r4, r0
10001620:	2001      	movs	r0, #1
10001622:	f7ff fdbf 	bl	100011a4 <spin_lock_claim_unused>
10001626:	4b03      	ldr	r3, [pc, #12]	@ (10001634 <critical_section_init+0x18>)
10001628:	4403      	add	r3, r0
1000162a:	6023      	str	r3, [r4, #0]
1000162c:	f3bf 8f5f 	dmb	sy
10001630:	bd10      	pop	{r4, pc}
10001632:	bf00      	nop
10001634:	20001a30 	.word	0x20001a30

10001638 <critical_section_init_with_lock_num>:
10001638:	4b02      	ldr	r3, [pc, #8]	@ (10001644 <critical_section_init_with_lock_num+0xc>)
1000163a:	440b      	add	r3, r1
1000163c:	6003      	str	r3, [r0, #0]
1000163e:	f3bf 8f5f 	dmb	sy
10001642:	4770      	bx	lr
10001644:	20001a30 	.word	0x20001a30

10001648 <sleep_until_callback>:
10001648:	4b0d      	ldr	r3, [pc, #52]	@ (10001680 <sleep_until_callback+0x38>)
1000164a:	681a      	ldr	r2, [r3, #0]
1000164c:	f3ef 8110 	mrs	r1, PRIMASK
10001650:	b672      	cpsid	i
10001652:	e8d2 cfcf 	ldaexb	ip, [r2]
10001656:	2001      	movs	r0, #1
10001658:	f1bc 0f00 	cmp.w	ip, #0
1000165c:	d1f9      	bne.n	10001652 <sleep_until_callback+0xa>
1000165e:	e8c2 0f4c 	strexb	ip, r0, [r2]
10001662:	f1bc 0f00 	cmp.w	ip, #0
10001666:	d1f4      	bne.n	10001652 <sleep_until_callback+0xa>
10001668:	f3bf 8f5f 	dmb	sy
1000166c:	2200      	movs	r2, #0
1000166e:	681b      	ldr	r3, [r3, #0]
10001670:	e8c3 2f8f 	stlb	r2, [r3]
10001674:	f381 8810 	msr	PRIMASK, r1
10001678:	bf40      	sev
1000167a:	2000      	movs	r0, #0
1000167c:	2100      	movs	r1, #0
1000167e:	4770      	bx	lr
10001680:	20002394 	.word	0x20002394
10001684:	00000000 	.word	0x00000000

10001688 <alarm_pool_irq_handler>:
10001688:	e92d 4ff0 	stmdb	sp!, {r4, r5, r6, r7, r8, r9, sl, fp, lr}
1000168c:	ed2d 8b02 	vpush	{d8}
10001690:	b085      	sub	sp, #20
10001692:	f3ef 8305 	mrs	r3, IPSR
10001696:	b2db      	uxtb	r3, r3
10001698:	3b10      	subs	r3, #16
1000169a:	089a      	lsrs	r2, r3, #2
1000169c:	bf18      	it	ne
1000169e:	2201      	movne	r2, #1
100016a0:	f04f 0101 	mov.w	r1, #1
100016a4:	f003 0003 	and.w	r0, r3, #3
100016a8:	bf18      	it	ne
100016aa:	4dab      	ldrne	r5, [pc, #684]	@ (10001958 <alarm_pool_irq_handler+0x2d0>)
100016ac:	4bab      	ldr	r3, [pc, #684]	@ (1000195c <alarm_pool_irq_handler+0x2d4>)
100016ae:	bf08      	it	eq
100016b0:	4dab      	ldreq	r5, [pc, #684]	@ (10001960 <alarm_pool_irq_handler+0x2d8>)
100016b2:	eb00 0282 	add.w	r2, r0, r2, lsl #2
100016b6:	fa01 fb00 	lsl.w	fp, r1, r0
100016ba:	f853 6022 	ldr.w	r6, [r3, r2, lsl #2]
100016be:	f505 5341 	add.w	r3, r5, #12352	@ 0x3040
100016c2:	ed9f 8ba3 	vldr	d8, [pc, #652]	@ 10001950 <alarm_pool_irq_handler+0x2c8>
100016c6:	9001      	str	r0, [sp, #4]
100016c8:	f8c3 b004 	str.w	fp, [r3, #4]
100016cc:	f8cd b000 	str.w	fp, [sp]
100016d0:	e02f      	b.n	10001732 <alarm_pool_irq_handler+0xaa>
100016d2:	88b3      	ldrh	r3, [r6, #4]
100016d4:	041b      	lsls	r3, r3, #16
100016d6:	f140 808e 	bpl.w	100017f6 <alarm_pool_irq_handler+0x16e>
100016da:	79b3      	ldrb	r3, [r6, #6]
100016dc:	2b00      	cmp	r3, #0
100016de:	f040 80d7 	bne.w	10001890 <alarm_pool_irq_handler+0x208>
100016e2:	f9b6 3008 	ldrsh.w	r3, [r6, #8]
100016e6:	2b00      	cmp	r3, #0
100016e8:	f2c0 8116 	blt.w	10001918 <alarm_pool_irq_handler+0x290>
100016ec:	6972      	ldr	r2, [r6, #20]
100016ee:	eb03 0343 	add.w	r3, r3, r3, lsl #1
100016f2:	eb02 03c3 	add.w	r3, r2, r3, lsl #3
100016f6:	e9d3 4702 	ldrd	r4, r7, [r3, #8]
100016fa:	f1b7 3fff 	cmp.w	r7, #4294967295	@ 0xffffffff
100016fe:	bf08      	it	eq
10001700:	f1b4 3fff 	cmpeq.w	r4, #4294967295	@ 0xffffffff
10001704:	d00e      	beq.n	10001724 <alarm_pool_irq_handler+0x9c>
10001706:	9801      	ldr	r0, [sp, #4]
10001708:	6aab      	ldr	r3, [r5, #40]	@ 0x28
1000170a:	eb05 0180 	add.w	r1, r5, r0, lsl #2
1000170e:	690a      	ldr	r2, [r1, #16]
10001710:	1ad2      	subs	r2, r2, r3
10001712:	1ae3      	subs	r3, r4, r3
10001714:	4293      	cmp	r3, r2
10001716:	d304      	bcc.n	10001722 <alarm_pool_irq_handler+0x9a>
10001718:	2301      	movs	r3, #1
1000171a:	6a2a      	ldr	r2, [r5, #32]
1000171c:	4083      	lsls	r3, r0
1000171e:	4213      	tst	r3, r2
10001720:	d100      	bne.n	10001724 <alarm_pool_irq_handler+0x9c>
10001722:	610c      	str	r4, [r1, #16]
10001724:	4628      	mov	r0, r5
10001726:	f000 fb29 	bl	10001d7c <timer_time_us_64>
1000172a:	42a0      	cmp	r0, r4
1000172c:	41b9      	sbcs	r1, r7
1000172e:	f2c0 80f3 	blt.w	10001918 <alarm_pool_irq_handler+0x290>
10001732:	9b00      	ldr	r3, [sp, #0]
10001734:	63eb      	str	r3, [r5, #60]	@ 0x3c
10001736:	f9b6 4008 	ldrsh.w	r4, [r6, #8]
1000173a:	2c00      	cmp	r4, #0
1000173c:	dbc9      	blt.n	100016d2 <alarm_pool_irq_handler+0x4a>
1000173e:	f8d6 8014 	ldr.w	r8, [r6, #20]
10001742:	eb04 0944 	add.w	r9, r4, r4, lsl #1
10001746:	4628      	mov	r0, r5
10001748:	eb08 07c9 	add.w	r7, r8, r9, lsl #3
1000174c:	e9d7 ba02 	ldrd	fp, sl, [r7, #8]
10001750:	f000 fb14 	bl	10001d7c <timer_time_us_64>
10001754:	4558      	cmp	r0, fp
10001756:	eb71 010a 	sbcs.w	r1, r1, sl
1000175a:	dbba      	blt.n	100016d2 <alarm_pool_irq_handler+0x4a>
1000175c:	f1ba 0f00 	cmp.w	sl, #0
10001760:	f2c0 80bc 	blt.w	100018dc <alarm_pool_irq_handler+0x254>
10001764:	e9d7 3104 	ldrd	r3, r1, [r7, #16]
10001768:	4a7e      	ldr	r2, [pc, #504]	@ (10001964 <alarm_pool_irq_handler+0x2dc>)
1000176a:	4293      	cmp	r3, r2
1000176c:	f000 80e6 	beq.w	1000193c <alarm_pool_irq_handler+0x2b4>
10001770:	887a      	ldrh	r2, [r7, #2]
10001772:	f9b6 0008 	ldrsh.w	r0, [r6, #8]
10001776:	b292      	uxth	r2, r2
10001778:	ea42 4000 	orr.w	r0, r2, r0, lsl #16
1000177c:	4798      	blx	r3
1000177e:	4602      	mov	r2, r0
10001780:	460b      	mov	r3, r1
10001782:	ea52 0103 	orrs.w	r1, r2, r3
10001786:	f000 80a9 	beq.w	100018dc <alarm_pool_irq_handler+0x254>
1000178a:	2b00      	cmp	r3, #0
1000178c:	f280 80ca 	bge.w	10001924 <alarm_pool_irq_handler+0x29c>
10001790:	ebbb 0b02 	subs.w	fp, fp, r2
10001794:	eb6a 0a03 	sbc.w	sl, sl, r3
10001798:	e9c7 ba02 	strd	fp, sl, [r7, #8]
1000179c:	f938 1039 	ldrsh.w	r1, [r8, r9, lsl #3]
100017a0:	2900      	cmp	r1, #0
100017a2:	db96      	blt.n	100016d2 <alarm_pool_irq_handler+0x4a>
100017a4:	f8d6 c014 	ldr.w	ip, [r6, #20]
100017a8:	eb01 0341 	add.w	r3, r1, r1, lsl #1
100017ac:	eb0c 03c3 	add.w	r3, ip, r3, lsl #3
100017b0:	e9d3 2302 	ldrd	r2, r3, [r3, #8]
100017b4:	4593      	cmp	fp, r2
100017b6:	eb7a 0303 	sbcs.w	r3, sl, r3
100017ba:	ea4f 0041 	mov.w	r0, r1, lsl #1
100017be:	db88      	blt.n	100016d2 <alarm_pool_irq_handler+0x4a>
100017c0:	46b6      	mov	lr, r6
100017c2:	f82e 1f08 	strh.w	r1, [lr, #8]!
100017c6:	e000      	b.n	100017ca <alarm_pool_irq_handler+0x142>
100017c8:	0048      	lsls	r0, r1, #1
100017ca:	1843      	adds	r3, r0, r1
100017cc:	eb0c 07c3 	add.w	r7, ip, r3, lsl #3
100017d0:	e9d7 0202 	ldrd	r0, r2, [r7, #8]
100017d4:	4583      	cmp	fp, r0
100017d6:	eb7a 0202 	sbcs.w	r2, sl, r2
100017da:	db04      	blt.n	100017e6 <alarm_pool_irq_handler+0x15e>
100017dc:	f93c 1033 	ldrsh.w	r1, [ip, r3, lsl #3]
100017e0:	46be      	mov	lr, r7
100017e2:	2900      	cmp	r1, #0
100017e4:	daf0      	bge.n	100017c8 <alarm_pool_irq_handler+0x140>
100017e6:	f828 1039 	strh.w	r1, [r8, r9, lsl #3]
100017ea:	f8ae 4000 	strh.w	r4, [lr]
100017ee:	88b3      	ldrh	r3, [r6, #4]
100017f0:	041b      	lsls	r3, r3, #16
100017f2:	f53f af72 	bmi.w	100016da <alarm_pool_irq_handler+0x52>
100017f6:	6933      	ldr	r3, [r6, #16]
100017f8:	f3ef 8210 	mrs	r2, PRIMASK
100017fc:	b672      	cpsid	i
100017fe:	e8d3 0fcf 	ldaexb	r0, [r3]
10001802:	2101      	movs	r1, #1
10001804:	2800      	cmp	r0, #0
10001806:	d1fa      	bne.n	100017fe <alarm_pool_irq_handler+0x176>
10001808:	e8c3 1f40 	strexb	r0, r1, [r3]
1000180c:	2800      	cmp	r0, #0
1000180e:	d1f6      	bne.n	100017fe <alarm_pool_irq_handler+0x176>
10001810:	f3bf 8f5f 	dmb	sy
10001814:	f64f 74ff 	movw	r4, #65535	@ 0xffff
10001818:	88b0      	ldrh	r0, [r6, #4]
1000181a:	2300      	movs	r3, #0
1000181c:	6931      	ldr	r1, [r6, #16]
1000181e:	b200      	sxth	r0, r0
10001820:	80b4      	strh	r4, [r6, #4]
10001822:	e8c1 3f8f 	stlb	r3, [r1]
10001826:	f382 8810 	msr	PRIMASK, r2
1000182a:	4298      	cmp	r0, r3
1000182c:	f6ff af55 	blt.w	100016da <alarm_pool_irq_handler+0x52>
10001830:	4604      	mov	r4, r0
10001832:	46a9      	mov	r9, r5
10001834:	f106 0808 	add.w	r8, r6, #8
10001838:	6977      	ldr	r7, [r6, #20]
1000183a:	eb04 0e44 	add.w	lr, r4, r4, lsl #1
1000183e:	eb07 03ce 	add.w	r3, r7, lr, lsl #3
10001842:	e9d3 5002 	ldrd	r5, r0, [r3, #8]
10001846:	f9b6 3008 	ldrsh.w	r3, [r6, #8]
1000184a:	46c4      	mov	ip, r8
1000184c:	2b00      	cmp	r3, #0
1000184e:	bfa8      	it	ge
10001850:	46a3      	movge	fp, r4
10001852:	da05      	bge.n	10001860 <alarm_pool_irq_handler+0x1d8>
10001854:	e00f      	b.n	10001876 <alarm_pool_irq_handler+0x1ee>
10001856:	f937 303a 	ldrsh.w	r3, [r7, sl, lsl #3]
1000185a:	4694      	mov	ip, r2
1000185c:	2b00      	cmp	r3, #0
1000185e:	db09      	blt.n	10001874 <alarm_pool_irq_handler+0x1ec>
10001860:	eb03 0a43 	add.w	sl, r3, r3, lsl #1
10001864:	eb07 02ca 	add.w	r2, r7, sl, lsl #3
10001868:	e9d2 4102 	ldrd	r4, r1, [r2, #8]
1000186c:	42a5      	cmp	r5, r4
1000186e:	eb70 0101 	sbcs.w	r1, r0, r1
10001872:	daf0      	bge.n	10001856 <alarm_pool_irq_handler+0x1ce>
10001874:	465c      	mov	r4, fp
10001876:	f8ac 4000 	strh.w	r4, [ip]
1000187a:	f937 403e 	ldrsh.w	r4, [r7, lr, lsl #3]
1000187e:	f827 303e 	strh.w	r3, [r7, lr, lsl #3]
10001882:	2c00      	cmp	r4, #0
10001884:	dad8      	bge.n	10001838 <alarm_pool_irq_handler+0x1b0>
10001886:	79b3      	ldrb	r3, [r6, #6]
10001888:	464d      	mov	r5, r9
1000188a:	2b00      	cmp	r3, #0
1000188c:	f43f af29 	beq.w	100016e2 <alarm_pool_irq_handler+0x5a>
10001890:	2300      	movs	r3, #0
10001892:	71b3      	strb	r3, [r6, #6]
10001894:	f9b6 3008 	ldrsh.w	r3, [r6, #8]
10001898:	f106 0c08 	add.w	ip, r6, #8
1000189c:	1c5f      	adds	r7, r3, #1
1000189e:	d104      	bne.n	100018aa <alarm_pool_irq_handler+0x222>
100018a0:	e03a      	b.n	10001918 <alarm_pool_irq_handler+0x290>
100018a2:	4684      	mov	ip, r0
100018a4:	1c5a      	adds	r2, r3, #1
100018a6:	f43f af1c 	beq.w	100016e2 <alarm_pool_irq_handler+0x5a>
100018aa:	6972      	ldr	r2, [r6, #20]
100018ac:	eb03 0143 	add.w	r1, r3, r3, lsl #1
100018b0:	eb02 00c1 	add.w	r0, r2, r1, lsl #3
100018b4:	8844      	ldrh	r4, [r0, #2]
100018b6:	461f      	mov	r7, r3
100018b8:	0424      	lsls	r4, r4, #16
100018ba:	f932 3031 	ldrsh.w	r3, [r2, r1, lsl #3]
100018be:	d5f0      	bpl.n	100018a2 <alarm_pool_irq_handler+0x21a>
100018c0:	ed80 8b02 	vstr	d8, [r0, #8]
100018c4:	f9b6 0008 	ldrsh.w	r0, [r6, #8]
100018c8:	42b8      	cmp	r0, r7
100018ca:	d0eb      	beq.n	100018a4 <alarm_pool_irq_handler+0x21c>
100018cc:	f8ac 3000 	strh.w	r3, [ip]
100018d0:	f9b6 0008 	ldrsh.w	r0, [r6, #8]
100018d4:	f822 0031 	strh.w	r0, [r2, r1, lsl #3]
100018d8:	8137      	strh	r7, [r6, #8]
100018da:	e7e3      	b.n	100018a4 <alarm_pool_irq_handler+0x21c>
100018dc:	f938 3039 	ldrsh.w	r3, [r8, r9, lsl #3]
100018e0:	8133      	strh	r3, [r6, #8]
100018e2:	6933      	ldr	r3, [r6, #16]
100018e4:	f3ef 8210 	mrs	r2, PRIMASK
100018e8:	b672      	cpsid	i
100018ea:	e8d3 0fcf 	ldaexb	r0, [r3]
100018ee:	2101      	movs	r1, #1
100018f0:	2800      	cmp	r0, #0
100018f2:	d1fa      	bne.n	100018ea <alarm_pool_irq_handler+0x262>
100018f4:	e8c3 1f40 	strexb	r0, r1, [r3]
100018f8:	2800      	cmp	r0, #0
100018fa:	d1f6      	bne.n	100018ea <alarm_pool_irq_handler+0x262>
100018fc:	f3bf 8f5f 	dmb	sy
10001900:	f9b6 3002 	ldrsh.w	r3, [r6, #2]
10001904:	f828 3039 	strh.w	r3, [r8, r9, lsl #3]
10001908:	6931      	ldr	r1, [r6, #16]
1000190a:	2300      	movs	r3, #0
1000190c:	8074      	strh	r4, [r6, #2]
1000190e:	e8c1 3f8f 	stlb	r3, [r1]
10001912:	f382 8810 	msr	PRIMASK, r2
10001916:	e6dc      	b.n	100016d2 <alarm_pool_irq_handler+0x4a>
10001918:	bf40      	sev
1000191a:	b005      	add	sp, #20
1000191c:	ecbd 8b02 	vpop	{d8}
10001920:	e8bd 8ff0 	ldmia.w	sp!, {r4, r5, r6, r7, r8, r9, sl, fp, pc}
10001924:	4628      	mov	r0, r5
10001926:	e9cd 2302 	strd	r2, r3, [sp, #8]
1000192a:	f000 fa27 	bl	10001d7c <timer_time_us_64>
1000192e:	9a02      	ldr	r2, [sp, #8]
10001930:	9b03      	ldr	r3, [sp, #12]
10001932:	eb10 0b02 	adds.w	fp, r0, r2
10001936:	eb43 0a01 	adc.w	sl, r3, r1
1000193a:	e72d      	b.n	10001798 <alarm_pool_irq_handler+0x110>
1000193c:	4608      	mov	r0, r1
1000193e:	690b      	ldr	r3, [r1, #16]
10001940:	9102      	str	r1, [sp, #8]
10001942:	4798      	blx	r3
10001944:	2800      	cmp	r0, #0
10001946:	d0c9      	beq.n	100018dc <alarm_pool_irq_handler+0x254>
10001948:	9902      	ldr	r1, [sp, #8]
1000194a:	e9d1 2300 	ldrd	r2, r3, [r1]
1000194e:	e718      	b.n	10001782 <alarm_pool_irq_handler+0xfa>
10001950:	ffffffff 	.word	0xffffffff
10001954:	ffffffff 	.word	0xffffffff
10001958:	400b8000 	.word	0x400b8000
1000195c:	2000236c 	.word	0x2000236c
10001960:	400b0000 	.word	0x400b0000
10001964:	10001689 	.word	0x10001689

10001968 <runtime_init_default_alarm_pool>:
10001968:	b570      	push	{r4, r5, r6, lr}
1000196a:	4d20      	ldr	r5, [pc, #128]	@ (100019ec <runtime_init_default_alarm_pool+0x84>)
1000196c:	692c      	ldr	r4, [r5, #16]
1000196e:	b12c      	cbz	r4, 1000197c <runtime_init_default_alarm_pool+0x14>
10001970:	e8bd 4070 	ldmia.w	sp!, {r4, r5, r6, lr}
10001974:	210a      	movs	r1, #10
10001976:	481e      	ldr	r0, [pc, #120]	@ (100019f0 <runtime_init_default_alarm_pool+0x88>)
10001978:	f7ff be14 	b.w	100015a4 <lock_init>
1000197c:	4e1d      	ldr	r6, [pc, #116]	@ (100019f4 <runtime_init_default_alarm_pool+0x8c>)
1000197e:	2103      	movs	r1, #3
10001980:	4630      	mov	r0, r6
10001982:	f000 f9e9 	bl	10001d58 <timer_hardware_alarm_claim>
10001986:	60ee      	str	r6, [r5, #12]
10001988:	f7ff fc00 	bl	1000118c <next_striped_spin_lock_num>
1000198c:	2103      	movs	r1, #3
1000198e:	4b1a      	ldr	r3, [pc, #104]	@ (100019f8 <runtime_init_default_alarm_pool+0x90>)
10001990:	f64f 72ff 	movw	r2, #65535	@ 0xffff
10001994:	4418      	add	r0, r3
10001996:	4623      	mov	r3, r4
10001998:	2410      	movs	r4, #16
1000199a:	7029      	strb	r1, [r5, #0]
1000199c:	f04f 4150 	mov.w	r1, #3489660928	@ 0xd0000000
100019a0:	6128      	str	r0, [r5, #16]
100019a2:	200f      	movs	r0, #15
100019a4:	812a      	strh	r2, [r5, #8]
100019a6:	80aa      	strh	r2, [r5, #4]
100019a8:	816c      	strh	r4, [r5, #10]
100019aa:	6809      	ldr	r1, [r1, #0]
100019ac:	8068      	strh	r0, [r5, #2]
100019ae:	7069      	strb	r1, [r5, #1]
100019b0:	6968      	ldr	r0, [r5, #20]
100019b2:	1c51      	adds	r1, r2, #1
100019b4:	52c2      	strh	r2, [r0, r3]
100019b6:	3318      	adds	r3, #24
100019b8:	f5b3 7fc0 	cmp.w	r3, #384	@ 0x180
100019bc:	b28a      	uxth	r2, r1
100019be:	d1f7      	bne.n	100019b0 <runtime_init_default_alarm_pool+0x48>
100019c0:	2408      	movs	r4, #8
100019c2:	4b0c      	ldr	r3, [pc, #48]	@ (100019f4 <runtime_init_default_alarm_pool+0x8c>)
100019c4:	4a0d      	ldr	r2, [pc, #52]	@ (100019fc <runtime_init_default_alarm_pool+0x94>)
100019c6:	2003      	movs	r0, #3
100019c8:	60d5      	str	r5, [r2, #12]
100019ca:	490d      	ldr	r1, [pc, #52]	@ (10001a00 <runtime_init_default_alarm_pool+0x98>)
100019cc:	621c      	str	r4, [r3, #32]
100019ce:	f7ff fc5d 	bl	1000128c <irq_set_exclusive_handler>
100019d2:	2101      	movs	r1, #1
100019d4:	2003      	movs	r0, #3
100019d6:	f7ff fc17 	bl	10001208 <irq_set_enabled>
100019da:	4b0a      	ldr	r3, [pc, #40]	@ (10001a04 <runtime_init_default_alarm_pool+0x9c>)
100019dc:	210a      	movs	r1, #10
100019de:	641c      	str	r4, [r3, #64]	@ 0x40
100019e0:	4803      	ldr	r0, [pc, #12]	@ (100019f0 <runtime_init_default_alarm_pool+0x88>)
100019e2:	e8bd 4070 	ldmia.w	sp!, {r4, r5, r6, lr}
100019e6:	f7ff bddd 	b.w	100015a4 <lock_init>
100019ea:	bf00      	nop
100019ec:	20000e78 	.word	0x20000e78
100019f0:	20002394 	.word	0x20002394
100019f4:	400b0000 	.word	0x400b0000
100019f8:	20001a30 	.word	0x20001a30
100019fc:	2000236c 	.word	0x2000236c
10001a00:	10001689 	.word	0x10001689
10001a04:	400b2000 	.word	0x400b2000

10001a08 <alarm_pool_get_default>:
10001a08:	4800      	ldr	r0, [pc, #0]	@ (10001a0c <alarm_pool_get_default+0x4>)
10001a0a:	4770      	bx	lr
10001a0c:	20000e78 	.word	0x20000e78

10001a10 <alarm_pool_add_alarm_at_force_in_context>:
10001a10:	b5f0      	push	{r4, r5, r6, r7, lr}
10001a12:	4601      	mov	r1, r0
10001a14:	6900      	ldr	r0, [r0, #16]
10001a16:	f3ef 8710 	mrs	r7, PRIMASK
10001a1a:	b672      	cpsid	i
10001a1c:	e8d0 5fcf 	ldaexb	r5, [r0]
10001a20:	2401      	movs	r4, #1
10001a22:	2d00      	cmp	r5, #0
10001a24:	d1fa      	bne.n	10001a1c <alarm_pool_add_alarm_at_force_in_context+0xc>
10001a26:	e8c0 4f45 	strexb	r5, r4, [r0]
10001a2a:	2d00      	cmp	r5, #0
10001a2c:	d1f6      	bne.n	10001a1c <alarm_pool_add_alarm_at_force_in_context+0xc>
10001a2e:	f3bf 8f5f 	dmb	sy
10001a32:	f9b1 e002 	ldrsh.w	lr, [r1, #2]
10001a36:	694c      	ldr	r4, [r1, #20]
10001a38:	eb0e 0c4e 	add.w	ip, lr, lr, lsl #1
10001a3c:	f1be 0f00 	cmp.w	lr, #0
10001a40:	ea4f 05cc 	mov.w	r5, ip, lsl #3
10001a44:	6908      	ldr	r0, [r1, #16]
10001a46:	eb04 0ccc 	add.w	ip, r4, ip, lsl #3
10001a4a:	db3c      	blt.n	10001ac6 <alarm_pool_add_alarm_at_force_in_context+0xb6>
10001a4c:	5f66      	ldrsh	r6, [r4, r5]
10001a4e:	804e      	strh	r6, [r1, #2]
10001a50:	2600      	movs	r6, #0
10001a52:	e8c0 6f8f 	stlb	r6, [r0]
10001a56:	f387 8810 	msr	PRIMASK, r7
10001a5a:	f8bc 0002 	ldrh.w	r0, [ip, #2]
10001a5e:	e9cc 2302 	strd	r2, r3, [ip, #8]
10001a62:	3001      	adds	r0, #1
10001a64:	f3c0 000e 	ubfx	r0, r0, #0, #15
10001a68:	2801      	cmp	r0, #1
10001a6a:	bf38      	it	cc
10001a6c:	2001      	movcc	r0, #1
10001a6e:	9b05      	ldr	r3, [sp, #20]
10001a70:	f8ac 0002 	strh.w	r0, [ip, #2]
10001a74:	f8cc 3010 	str.w	r3, [ip, #16]
10001a78:	9b06      	ldr	r3, [sp, #24]
10001a7a:	ea40 400e 	orr.w	r0, r0, lr, lsl #16
10001a7e:	f8cc 3014 	str.w	r3, [ip, #20]
10001a82:	690b      	ldr	r3, [r1, #16]
10001a84:	f3ef 8210 	mrs	r2, PRIMASK
10001a88:	b672      	cpsid	i
10001a8a:	e8d3 cfcf 	ldaexb	ip, [r3]
10001a8e:	2701      	movs	r7, #1
10001a90:	f1bc 0f00 	cmp.w	ip, #0
10001a94:	d1f9      	bne.n	10001a8a <alarm_pool_add_alarm_at_force_in_context+0x7a>
10001a96:	e8c3 7f4c 	strexb	ip, r7, [r3]
10001a9a:	f1bc 0f00 	cmp.w	ip, #0
10001a9e:	d1f4      	bne.n	10001a8a <alarm_pool_add_alarm_at_force_in_context+0x7a>
10001aa0:	f3bf 8f5f 	dmb	sy
10001aa4:	888b      	ldrh	r3, [r1, #4]
10001aa6:	5363      	strh	r3, [r4, r5]
10001aa8:	690b      	ldr	r3, [r1, #16]
10001aaa:	f8a1 e004 	strh.w	lr, [r1, #4]
10001aae:	e8c3 6f8f 	stlb	r6, [r3]
10001ab2:	f382 8810 	msr	PRIMASK, r2
10001ab6:	2201      	movs	r2, #1
10001ab8:	68cb      	ldr	r3, [r1, #12]
10001aba:	7809      	ldrb	r1, [r1, #0]
10001abc:	f503 5301 	add.w	r3, r3, #8256	@ 0x2040
10001ac0:	408a      	lsls	r2, r1
10001ac2:	605a      	str	r2, [r3, #4]
10001ac4:	bdf0      	pop	{r4, r5, r6, r7, pc}
10001ac6:	2300      	movs	r3, #0
10001ac8:	e8c0 3f8f 	stlb	r3, [r0]
10001acc:	f387 8810 	msr	PRIMASK, r7
10001ad0:	f04f 30ff 	mov.w	r0, #4294967295	@ 0xffffffff
10001ad4:	bdf0      	pop	{r4, r5, r6, r7, pc}
10001ad6:	bf00      	nop

10001ad8 <alarm_pool_add_alarm_at>:
10001ad8:	e92d 47f0 	stmdb	sp!, {r4, r5, r6, r7, r8, r9, sl, lr}
10001adc:	f89d 9028 	ldrb.w	r9, [sp, #40]	@ 0x28
10001ae0:	4605      	mov	r5, r0
10001ae2:	e9dd 6708 	ldrd	r6, r7, [sp, #32]
10001ae6:	4690      	mov	r8, r2
10001ae8:	461c      	mov	r4, r3
10001aea:	f1b9 0f00 	cmp.w	r9, #0
10001aee:	d106      	bne.n	10001afe <alarm_pool_add_alarm_at+0x26>
10001af0:	f000 f94c 	bl	10001d8c <time_us_64>
10001af4:	4580      	cmp	r8, r0
10001af6:	eb64 0101 	sbc.w	r1, r4, r1
10001afa:	2900      	cmp	r1, #0
10001afc:	db08      	blt.n	10001b10 <alarm_pool_add_alarm_at+0x38>
10001afe:	4642      	mov	r2, r8
10001b00:	4623      	mov	r3, r4
10001b02:	4628      	mov	r0, r5
10001b04:	e9cd 6708 	strd	r6, r7, [sp, #32]
10001b08:	e8bd 47f0 	ldmia.w	sp!, {r4, r5, r6, r7, r8, r9, sl, lr}
10001b0c:	f7ff bf80 	b.w	10001a10 <alarm_pool_add_alarm_at_force_in_context>
10001b10:	4648      	mov	r0, r9
10001b12:	e8bd 87f0 	ldmia.w	sp!, {r4, r5, r6, r7, r8, r9, sl, pc}
10001b16:	bf00      	nop

10001b18 <alarm_pool_cancel_alarm>:
10001b18:	4603      	mov	r3, r0
10001b1a:	8940      	ldrh	r0, [r0, #10]
10001b1c:	ebb0 4f21 	cmp.w	r0, r1, asr #16
10001b20:	dd37      	ble.n	10001b92 <alarm_pool_cancel_alarm+0x7a>
10001b22:	b510      	push	{r4, lr}
10001b24:	140a      	asrs	r2, r1, #16
10001b26:	6958      	ldr	r0, [r3, #20]
10001b28:	eb02 0242 	add.w	r2, r2, r2, lsl #1
10001b2c:	691c      	ldr	r4, [r3, #16]
10001b2e:	eb00 00c2 	add.w	r0, r0, r2, lsl #3
10001b32:	f3ef 8c10 	mrs	ip, PRIMASK
10001b36:	b672      	cpsid	i
10001b38:	e8d4 efcf 	ldaexb	lr, [r4]
10001b3c:	2201      	movs	r2, #1
10001b3e:	f1be 0f00 	cmp.w	lr, #0
10001b42:	d1f9      	bne.n	10001b38 <alarm_pool_cancel_alarm+0x20>
10001b44:	e8c4 2f4e 	strexb	lr, r2, [r4]
10001b48:	f1be 0f00 	cmp.w	lr, #0
10001b4c:	d1f4      	bne.n	10001b38 <alarm_pool_cancel_alarm+0x20>
10001b4e:	f3bf 8f5f 	dmb	sy
10001b52:	8842      	ldrh	r2, [r0, #2]
10001b54:	b289      	uxth	r1, r1
10001b56:	b292      	uxth	r2, r2
10001b58:	428a      	cmp	r2, r1
10001b5a:	d007      	beq.n	10001b6c <alarm_pool_cancel_alarm+0x54>
10001b5c:	2200      	movs	r2, #0
10001b5e:	691b      	ldr	r3, [r3, #16]
10001b60:	e8c3 2f8f 	stlb	r2, [r3]
10001b64:	f38c 8810 	msr	PRIMASK, ip
10001b68:	2000      	movs	r0, #0
10001b6a:	bd10      	pop	{r4, pc}
10001b6c:	f442 4200 	orr.w	r2, r2, #32768	@ 0x8000
10001b70:	8042      	strh	r2, [r0, #2]
10001b72:	2101      	movs	r1, #1
10001b74:	2200      	movs	r2, #0
10001b76:	6918      	ldr	r0, [r3, #16]
10001b78:	7199      	strb	r1, [r3, #6]
10001b7a:	e8c0 2f8f 	stlb	r2, [r0]
10001b7e:	f38c 8810 	msr	PRIMASK, ip
10001b82:	781c      	ldrb	r4, [r3, #0]
10001b84:	68da      	ldr	r2, [r3, #12]
10001b86:	4608      	mov	r0, r1
10001b88:	f502 5301 	add.w	r3, r2, #8256	@ 0x2040
10001b8c:	40a1      	lsls	r1, r4
10001b8e:	6059      	str	r1, [r3, #4]
10001b90:	bd10      	pop	{r4, pc}
10001b92:	2000      	movs	r0, #0
10001b94:	4770      	bx	lr
10001b96:	bf00      	nop

10001b98 <alarm_pool_core_num>:
10001b98:	7840      	ldrb	r0, [r0, #1]
10001b9a:	4770      	bx	lr

10001b9c <sleep_until>:
10001b9c:	e92d 41f0 	stmdb	sp!, {r4, r5, r6, r7, r8, lr}
10001ba0:	1f85      	subs	r5, r0, #6
10001ba2:	f141 37ff 	adc.w	r7, r1, #4294967295	@ 0xffffffff
10001ba6:	42a8      	cmp	r0, r5
10001ba8:	eb71 0307 	sbcs.w	r3, r1, r7
10001bac:	bf38      	it	cc
10001bae:	2500      	movcc	r5, #0
10001bb0:	b082      	sub	sp, #8
10001bb2:	bf38      	it	cc
10001bb4:	462f      	movcc	r7, r5
10001bb6:	4604      	mov	r4, r0
10001bb8:	460e      	mov	r6, r1
10001bba:	f000 f8e7 	bl	10001d8c <time_us_64>
10001bbe:	1a28      	subs	r0, r5, r0
10001bc0:	eb67 0c01 	sbc.w	ip, r7, r1
10001bc4:	2801      	cmp	r0, #1
10001bc6:	f17c 0c00 	sbcs.w	ip, ip, #0
10001bca:	da06      	bge.n	10001bda <sleep_until+0x3e>
10001bcc:	4620      	mov	r0, r4
10001bce:	4631      	mov	r1, r6
10001bd0:	b002      	add	sp, #8
10001bd2:	e8bd 41f0 	ldmia.w	sp!, {r4, r5, r6, r7, r8, lr}
10001bd6:	f000 b915 	b.w	10001e04 <busy_wait_until>
10001bda:	f000 f8d7 	bl	10001d8c <time_us_64>
10001bde:	4285      	cmp	r5, r0
10001be0:	eb67 0101 	sbc.w	r1, r7, r1
10001be4:	2900      	cmp	r1, #0
10001be6:	db0a      	blt.n	10001bfe <sleep_until+0x62>
10001be8:	2100      	movs	r1, #0
10001bea:	4b17      	ldr	r3, [pc, #92]	@ (10001c48 <sleep_until+0xac>)
10001bec:	462a      	mov	r2, r5
10001bee:	9300      	str	r3, [sp, #0]
10001bf0:	4816      	ldr	r0, [pc, #88]	@ (10001c4c <sleep_until+0xb0>)
10001bf2:	463b      	mov	r3, r7
10001bf4:	9101      	str	r1, [sp, #4]
10001bf6:	f7ff ff0b 	bl	10001a10 <alarm_pool_add_alarm_at_force_in_context>
10001bfa:	3001      	adds	r0, #1
10001bfc:	d0e6      	beq.n	10001bcc <sleep_until+0x30>
10001bfe:	f04f 0c00 	mov.w	ip, #0
10001c02:	4a13      	ldr	r2, [pc, #76]	@ (10001c50 <sleep_until+0xb4>)
10001c04:	4913      	ldr	r1, [pc, #76]	@ (10001c54 <sleep_until+0xb8>)
10001c06:	6a53      	ldr	r3, [r2, #36]	@ 0x24
10001c08:	429f      	cmp	r7, r3
10001c0a:	d804      	bhi.n	10001c16 <sleep_until+0x7a>
10001c0c:	6a90      	ldr	r0, [r2, #40]	@ 0x28
10001c0e:	42a8      	cmp	r0, r5
10001c10:	d2dc      	bcs.n	10001bcc <sleep_until+0x30>
10001c12:	429f      	cmp	r7, r3
10001c14:	d1da      	bne.n	10001bcc <sleep_until+0x30>
10001c16:	680b      	ldr	r3, [r1, #0]
10001c18:	f3ef 8010 	mrs	r0, PRIMASK
10001c1c:	b672      	cpsid	i
10001c1e:	e8d3 8fcf 	ldaexb	r8, [r3]
10001c22:	f05f 0e01 	movs.w	lr, #1
10001c26:	f1b8 0f00 	cmp.w	r8, #0
10001c2a:	d1f8      	bne.n	10001c1e <sleep_until+0x82>
10001c2c:	e8c3 ef48 	strexb	r8, lr, [r3]
10001c30:	f1b8 0f00 	cmp.w	r8, #0
10001c34:	d1f3      	bne.n	10001c1e <sleep_until+0x82>
10001c36:	f3bf 8f5f 	dmb	sy
10001c3a:	680b      	ldr	r3, [r1, #0]
10001c3c:	e8c3 cf8f 	stlb	ip, [r3]
10001c40:	f380 8810 	msr	PRIMASK, r0
10001c44:	bf20      	wfe
10001c46:	e7de      	b.n	10001c06 <sleep_until+0x6a>
10001c48:	10001649 	.word	0x10001649
10001c4c:	20000e78 	.word	0x20000e78
10001c50:	400b0000 	.word	0x400b0000
10001c54:	20002394 	.word	0x20002394

10001c58 <sleep_ms>:
10001c58:	b510      	push	{r4, lr}
10001c5a:	4604      	mov	r4, r0
10001c5c:	f000 f896 	bl	10001d8c <time_us_64>
10001c60:	f44f 737a 	mov.w	r3, #1000	@ 0x3e8
10001c64:	f04f 3cff 	mov.w	ip, #4294967295	@ 0xffffffff
10001c68:	f06f 4200 	mvn.w	r2, #2147483648	@ 0x80000000
10001c6c:	fbe4 0103 	umlal	r0, r1, r4, r3
10001c70:	e8bd 4010 	ldmia.w	sp!, {r4, lr}
10001c74:	4584      	cmp	ip, r0
10001c76:	eb72 0301 	sbcs.w	r3, r2, r1
10001c7a:	bf3c      	itt	cc
10001c7c:	4660      	movcc	r0, ip
10001c7e:	4611      	movcc	r1, r2
10001c80:	f7ff bf8c 	b.w	10001b9c <sleep_until>

10001c84 <best_effort_wfe_or_timeout>:
10001c84:	e92d 43f0 	stmdb	sp!, {r4, r5, r6, r7, r8, r9, lr}
10001c88:	4606      	mov	r6, r0
10001c8a:	460d      	mov	r5, r1
10001c8c:	b083      	sub	sp, #12
10001c8e:	f3ef 8405 	mrs	r4, IPSR
10001c92:	b2e4      	uxtb	r4, r4
10001c94:	b13c      	cbz	r4, 10001ca6 <best_effort_wfe_or_timeout+0x22>
10001c96:	4b2d      	ldr	r3, [pc, #180]	@ (10001d4c <best_effort_wfe_or_timeout+0xc8>)
10001c98:	6a5a      	ldr	r2, [r3, #36]	@ 0x24
10001c9a:	42aa      	cmp	r2, r5
10001c9c:	d21c      	bcs.n	10001cd8 <best_effort_wfe_or_timeout+0x54>
10001c9e:	2000      	movs	r0, #0
10001ca0:	b003      	add	sp, #12
10001ca2:	e8bd 83f0 	ldmia.w	sp!, {r4, r5, r6, r7, r8, r9, pc}
10001ca6:	4f2a      	ldr	r7, [pc, #168]	@ (10001d50 <best_effort_wfe_or_timeout+0xcc>)
10001ca8:	f8d7 900c 	ldr.w	r9, [r7, #12]
10001cac:	f897 8000 	ldrb.w	r8, [r7]
10001cb0:	4648      	mov	r0, r9
10001cb2:	f000 f863 	bl	10001d7c <timer_time_us_64>
10001cb6:	f108 0804 	add.w	r8, r8, #4
10001cba:	f859 3028 	ldr.w	r3, [r9, r8, lsl #2]
10001cbe:	1a1b      	subs	r3, r3, r0
10001cc0:	1a30      	subs	r0, r6, r0
10001cc2:	eb65 0101 	sbc.w	r1, r5, r1
10001cc6:	4298      	cmp	r0, r3
10001cc8:	f171 0100 	sbcs.w	r1, r1, #0
10001ccc:	db10      	blt.n	10001cf0 <best_effort_wfe_or_timeout+0x6c>
10001cce:	bf20      	wfe
10001cd0:	4b1e      	ldr	r3, [pc, #120]	@ (10001d4c <best_effort_wfe_or_timeout+0xc8>)
10001cd2:	6a5a      	ldr	r2, [r3, #36]	@ 0x24
10001cd4:	42aa      	cmp	r2, r5
10001cd6:	d3e2      	bcc.n	10001c9e <best_effort_wfe_or_timeout+0x1a>
10001cd8:	bf14      	ite	ne
10001cda:	2401      	movne	r4, #1
10001cdc:	2400      	moveq	r4, #0
10001cde:	6a9b      	ldr	r3, [r3, #40]	@ 0x28
10001ce0:	42b3      	cmp	r3, r6
10001ce2:	bf34      	ite	cc
10001ce4:	4620      	movcc	r0, r4
10001ce6:	f044 0001 	orrcs.w	r0, r4, #1
10001cea:	b003      	add	sp, #12
10001cec:	e8bd 83f0 	ldmia.w	sp!, {r4, r5, r6, r7, r8, r9, pc}
10001cf0:	f000 f84c 	bl	10001d8c <time_us_64>
10001cf4:	4286      	cmp	r6, r0
10001cf6:	eb65 0101 	sbc.w	r1, r5, r1
10001cfa:	2900      	cmp	r1, #0
10001cfc:	db14      	blt.n	10001d28 <best_effort_wfe_or_timeout+0xa4>
10001cfe:	4b15      	ldr	r3, [pc, #84]	@ (10001d54 <best_effort_wfe_or_timeout+0xd0>)
10001d00:	4638      	mov	r0, r7
10001d02:	e9cd 3400 	strd	r3, r4, [sp]
10001d06:	4632      	mov	r2, r6
10001d08:	462b      	mov	r3, r5
10001d0a:	f7ff fe81 	bl	10001a10 <alarm_pool_add_alarm_at_force_in_context>
10001d0e:	1e01      	subs	r1, r0, #0
10001d10:	dd0a      	ble.n	10001d28 <best_effort_wfe_or_timeout+0xa4>
10001d12:	4b0e      	ldr	r3, [pc, #56]	@ (10001d4c <best_effort_wfe_or_timeout+0xc8>)
10001d14:	6a5a      	ldr	r2, [r3, #36]	@ 0x24
10001d16:	42aa      	cmp	r2, r5
10001d18:	d316      	bcc.n	10001d48 <best_effort_wfe_or_timeout+0xc4>
10001d1a:	6a9b      	ldr	r3, [r3, #40]	@ 0x28
10001d1c:	42b3      	cmp	r3, r6
10001d1e:	d311      	bcc.n	10001d44 <best_effort_wfe_or_timeout+0xc0>
10001d20:	480b      	ldr	r0, [pc, #44]	@ (10001d50 <best_effort_wfe_or_timeout+0xcc>)
10001d22:	f7ff fef9 	bl	10001b18 <alarm_pool_cancel_alarm>
10001d26:	e7b6      	b.n	10001c96 <best_effort_wfe_or_timeout+0x12>
10001d28:	4b08      	ldr	r3, [pc, #32]	@ (10001d4c <best_effort_wfe_or_timeout+0xc8>)
10001d2a:	6a5c      	ldr	r4, [r3, #36]	@ 0x24
10001d2c:	42ac      	cmp	r4, r5
10001d2e:	d3b6      	bcc.n	10001c9e <best_effort_wfe_or_timeout+0x1a>
10001d30:	1b64      	subs	r4, r4, r5
10001d32:	bf18      	it	ne
10001d34:	2401      	movne	r4, #1
10001d36:	6a9b      	ldr	r3, [r3, #40]	@ 0x28
10001d38:	42b3      	cmp	r3, r6
10001d3a:	bf34      	ite	cc
10001d3c:	4620      	movcc	r0, r4
10001d3e:	f044 0001 	orrcs.w	r0, r4, #1
10001d42:	e7ad      	b.n	10001ca0 <best_effort_wfe_or_timeout+0x1c>
10001d44:	42aa      	cmp	r2, r5
10001d46:	d1eb      	bne.n	10001d20 <best_effort_wfe_or_timeout+0x9c>
10001d48:	bf20      	wfe
10001d4a:	e7e9      	b.n	10001d20 <best_effort_wfe_or_timeout+0x9c>
10001d4c:	400b0000 	.word	0x400b0000
10001d50:	20000e78 	.word	0x20000e78
10001d54:	10001649 	.word	0x10001649

10001d58 <timer_hardware_alarm_claim>:
10001d58:	b410      	push	{r4}
10001d5a:	4b05      	ldr	r3, [pc, #20]	@ (10001d70 <timer_hardware_alarm_claim+0x18>)
10001d5c:	4c05      	ldr	r4, [pc, #20]	@ (10001d74 <timer_hardware_alarm_claim+0x1c>)
10001d5e:	4a06      	ldr	r2, [pc, #24]	@ (10001d78 <timer_hardware_alarm_claim+0x20>)
10001d60:	42a0      	cmp	r0, r4
10001d62:	bf14      	ite	ne
10001d64:	4618      	movne	r0, r3
10001d66:	1c58      	addeq	r0, r3, #1
10001d68:	f85d 4b04 	ldr.w	r4, [sp], #4
10001d6c:	f7ff b9a2 	b.w	100010b4 <hw_claim_or_assert>
10001d70:	20001ed0 	.word	0x20001ed0
10001d74:	400b8000 	.word	0x400b8000
10001d78:	1000c7a8 	.word	0x1000c7a8

10001d7c <timer_time_us_64>:
10001d7c:	4603      	mov	r3, r0
10001d7e:	6a41      	ldr	r1, [r0, #36]	@ 0x24
10001d80:	460a      	mov	r2, r1
10001d82:	6a98      	ldr	r0, [r3, #40]	@ 0x28
10001d84:	6a59      	ldr	r1, [r3, #36]	@ 0x24
10001d86:	428a      	cmp	r2, r1
10001d88:	d1fa      	bne.n	10001d80 <timer_time_us_64+0x4>
10001d8a:	4770      	bx	lr

10001d8c <time_us_64>:
10001d8c:	4b03      	ldr	r3, [pc, #12]	@ (10001d9c <time_us_64+0x10>)
10001d8e:	6a59      	ldr	r1, [r3, #36]	@ 0x24
10001d90:	460a      	mov	r2, r1
10001d92:	6a98      	ldr	r0, [r3, #40]	@ 0x28
10001d94:	6a59      	ldr	r1, [r3, #36]	@ 0x24
10001d96:	4291      	cmp	r1, r2
10001d98:	d1fa      	bne.n	10001d90 <time_us_64+0x4>
10001d9a:	4770      	bx	lr
10001d9c:	400b0000 	.word	0x400b0000

10001da0 <busy_wait_us>:
10001da0:	b410      	push	{r4}
10001da2:	4a17      	ldr	r2, [pc, #92]	@ (10001e00 <busy_wait_us+0x60>)
10001da4:	6a53      	ldr	r3, [r2, #36]	@ 0x24
10001da6:	469c      	mov	ip, r3
10001da8:	6a94      	ldr	r4, [r2, #40]	@ 0x28
10001daa:	6a53      	ldr	r3, [r2, #36]	@ 0x24
10001dac:	4563      	cmp	r3, ip
10001dae:	d1fa      	bne.n	10001da6 <busy_wait_us+0x6>
10001db0:	1900      	adds	r0, r0, r4
10001db2:	4159      	adcs	r1, r3
10001db4:	f04f 0200 	mov.w	r2, #0
10001db8:	bf28      	it	cs
10001dba:	2201      	movcs	r2, #1
10001dbc:	4603      	mov	r3, r0
10001dbe:	b1ca      	cbz	r2, 10001df4 <busy_wait_us+0x54>
10001dc0:	4b0f      	ldr	r3, [pc, #60]	@ (10001e00 <busy_wait_us+0x60>)
10001dc2:	6a59      	ldr	r1, [r3, #36]	@ 0x24
10001dc4:	1c4b      	adds	r3, r1, #1
10001dc6:	bf08      	it	eq
10001dc8:	460b      	moveq	r3, r1
10001dca:	d008      	beq.n	10001dde <busy_wait_us+0x3e>
10001dcc:	f04f 31ff 	mov.w	r1, #4294967295	@ 0xffffffff
10001dd0:	460b      	mov	r3, r1
10001dd2:	480b      	ldr	r0, [pc, #44]	@ (10001e00 <busy_wait_us+0x60>)
10001dd4:	6a42      	ldr	r2, [r0, #36]	@ 0x24
10001dd6:	428a      	cmp	r2, r1
10001dd8:	d3fc      	bcc.n	10001dd4 <busy_wait_us+0x34>
10001dda:	428a      	cmp	r2, r1
10001ddc:	d107      	bne.n	10001dee <busy_wait_us+0x4e>
10001dde:	4a08      	ldr	r2, [pc, #32]	@ (10001e00 <busy_wait_us+0x60>)
10001de0:	e002      	b.n	10001de8 <busy_wait_us+0x48>
10001de2:	6a50      	ldr	r0, [r2, #36]	@ 0x24
10001de4:	4288      	cmp	r0, r1
10001de6:	d102      	bne.n	10001dee <busy_wait_us+0x4e>
10001de8:	6a90      	ldr	r0, [r2, #40]	@ 0x28
10001dea:	4298      	cmp	r0, r3
10001dec:	d3f9      	bcc.n	10001de2 <busy_wait_us+0x42>
10001dee:	f85d 4b04 	ldr.w	r4, [sp], #4
10001df2:	4770      	bx	lr
10001df4:	4a02      	ldr	r2, [pc, #8]	@ (10001e00 <busy_wait_us+0x60>)
10001df6:	6a52      	ldr	r2, [r2, #36]	@ 0x24
10001df8:	4291      	cmp	r1, r2
10001dfa:	d8ea      	bhi.n	10001dd2 <busy_wait_us+0x32>
10001dfc:	e7ed      	b.n	10001dda <busy_wait_us+0x3a>
10001dfe:	bf00      	nop
10001e00:	400b0000 	.word	0x400b0000

10001e04 <busy_wait_until>:
10001e04:	4a07      	ldr	r2, [pc, #28]	@ (10001e24 <busy_wait_until+0x20>)
10001e06:	6a53      	ldr	r3, [r2, #36]	@ 0x24
10001e08:	4299      	cmp	r1, r3
10001e0a:	d8fc      	bhi.n	10001e06 <busy_wait_until+0x2>
10001e0c:	4299      	cmp	r1, r3
10001e0e:	d107      	bne.n	10001e20 <busy_wait_until+0x1c>
10001e10:	4b04      	ldr	r3, [pc, #16]	@ (10001e24 <busy_wait_until+0x20>)
10001e12:	e002      	b.n	10001e1a <busy_wait_until+0x16>
10001e14:	6a5a      	ldr	r2, [r3, #36]	@ 0x24
10001e16:	4291      	cmp	r1, r2
10001e18:	d102      	bne.n	10001e20 <busy_wait_until+0x1c>
10001e1a:	6a9a      	ldr	r2, [r3, #40]	@ 0x28
10001e1c:	4290      	cmp	r0, r2
10001e1e:	d8f9      	bhi.n	10001e14 <busy_wait_until+0x10>
10001e20:	4770      	bx	lr
10001e22:	bf00      	nop
10001e24:	400b0000 	.word	0x400b0000

10001e28 <clock_configure_internal>:
10001e28:	e92d 41f0 	stmdb	sp!, {r4, r5, r6, r7, r8, lr}
10001e2c:	eb00 0c40 	add.w	ip, r0, r0, lsl #1
10001e30:	ea4f 0c8c 	mov.w	ip, ip, lsl #2
10001e34:	f10c 4c80 	add.w	ip, ip, #1073741824	@ 0x40000000
10001e38:	f50c 3c80 	add.w	ip, ip, #65536	@ 0x10000
10001e3c:	9d06      	ldr	r5, [sp, #24]
10001e3e:	4690      	mov	r8, r2
10001e40:	f8dc 2004 	ldr.w	r2, [ip, #4]
10001e44:	1f04      	subs	r4, r0, #4
10001e46:	42aa      	cmp	r2, r5
10001e48:	b2e4      	uxtb	r4, r4
10001e4a:	bf38      	it	cc
10001e4c:	f8cc 5004 	strcc.w	r5, [ip, #4]
10001e50:	2c01      	cmp	r4, #1
10001e52:	d92a      	bls.n	10001eaa <clock_configure_internal+0x82>
10001e54:	f44f 6e00 	mov.w	lr, #2048	@ 0x800
10001e58:	4e25      	ldr	r6, [pc, #148]	@ (10001ef0 <clock_configure_internal+0xc8>)
10001e5a:	f50c 5240 	add.w	r2, ip, #12288	@ 0x3000
10001e5e:	f8c2 e000 	str.w	lr, [r2]
10001e62:	f856 2020 	ldr.w	r2, [r6, r0, lsl #2]
10001e66:	b9aa      	cbnz	r2, 10001e94 <clock_configure_internal+0x6c>
10001e68:	f8dc 2000 	ldr.w	r2, [ip]
10001e6c:	f50c 5780 	add.w	r7, ip, #4096	@ 0x1000
10001e70:	ea82 1248 	eor.w	r2, r2, r8, lsl #5
10001e74:	f002 02e0 	and.w	r2, r2, #224	@ 0xe0
10001e78:	2c01      	cmp	r4, #1
10001e7a:	603a      	str	r2, [r7, #0]
10001e7c:	d929      	bls.n	10001ed2 <clock_configure_internal+0xaa>
10001e7e:	f44f 6200 	mov.w	r2, #2048	@ 0x800
10001e82:	f846 3020 	str.w	r3, [r6, r0, lsl #2]
10001e86:	f50c 5300 	add.w	r3, ip, #8192	@ 0x2000
10001e8a:	601a      	str	r2, [r3, #0]
10001e8c:	f8cc 5004 	str.w	r5, [ip, #4]
10001e90:	e8bd 81f0 	ldmia.w	sp!, {r4, r5, r6, r7, r8, pc}
10001e94:	6977      	ldr	r7, [r6, #20]
10001e96:	fbb7 fef2 	udiv	lr, r7, r2
10001e9a:	f10e 0e01 	add.w	lr, lr, #1
10001e9e:	eb0e 0e4e 	add.w	lr, lr, lr, lsl #1
10001ea2:	f1be 0e03 	subs.w	lr, lr, #3
10001ea6:	d2fc      	bcs.n	10001ea2 <clock_configure_internal+0x7a>
10001ea8:	e7de      	b.n	10001e68 <clock_configure_internal+0x40>
10001eaa:	2901      	cmp	r1, #1
10001eac:	d1d2      	bne.n	10001e54 <clock_configure_internal+0x2c>
10001eae:	2403      	movs	r4, #3
10001eb0:	f50c 5240 	add.w	r2, ip, #12288	@ 0x3000
10001eb4:	6014      	str	r4, [r2, #0]
10001eb6:	f8dc 2008 	ldr.w	r2, [ip, #8]
10001eba:	07d2      	lsls	r2, r2, #31
10001ebc:	d5fb      	bpl.n	10001eb6 <clock_configure_internal+0x8e>
10001ebe:	f8dc 2000 	ldr.w	r2, [ip]
10001ec2:	f50c 5780 	add.w	r7, ip, #4096	@ 0x1000
10001ec6:	ea82 1248 	eor.w	r2, r2, r8, lsl #5
10001eca:	f002 02e0 	and.w	r2, r2, #224	@ 0xe0
10001ece:	4e08      	ldr	r6, [pc, #32]	@ (10001ef0 <clock_configure_internal+0xc8>)
10001ed0:	603a      	str	r2, [r7, #0]
10001ed2:	2201      	movs	r2, #1
10001ed4:	f8dc 4000 	ldr.w	r4, [ip]
10001ed8:	404c      	eors	r4, r1
10001eda:	f004 0403 	and.w	r4, r4, #3
10001ede:	603c      	str	r4, [r7, #0]
10001ee0:	fa02 f101 	lsl.w	r1, r2, r1
10001ee4:	f8dc 2008 	ldr.w	r2, [ip, #8]
10001ee8:	420a      	tst	r2, r1
10001eea:	d0fb      	beq.n	10001ee4 <clock_configure_internal+0xbc>
10001eec:	e7c7      	b.n	10001e7e <clock_configure_internal+0x56>
10001eee:	bf00      	nop
10001ef0:	20001ed4 	.word	0x20001ed4

10001ef4 <clock_configure_undivided>:
10001ef4:	b510      	push	{r4, lr}
10001ef6:	f44f 3480 	mov.w	r4, #65536	@ 0x10000
10001efa:	b082      	sub	sp, #8
10001efc:	9400      	str	r4, [sp, #0]
10001efe:	f7ff ff93 	bl	10001e28 <clock_configure_internal>
10001f02:	b002      	add	sp, #8
10001f04:	bd10      	pop	{r4, pc}
10001f06:	bf00      	nop

10001f08 <clock_get_hz>:
10001f08:	4b01      	ldr	r3, [pc, #4]	@ (10001f10 <clock_get_hz+0x8>)
10001f0a:	f853 0020 	ldr.w	r0, [r3, r0, lsl #2]
10001f0e:	4770      	bx	lr
10001f10:	20001ed4 	.word	0x20001ed4

10001f14 <pll_init>:
10001f14:	b470      	push	{r4, r5, r6}
10001f16:	9d03      	ldr	r5, [sp, #12]
10001f18:	6804      	ldr	r4, [r0, #0]
10001f1a:	032d      	lsls	r5, r5, #12
10001f1c:	ea45 4503 	orr.w	r5, r5, r3, lsl #16
10001f20:	4b1b      	ldr	r3, [pc, #108]	@ (10001f90 <pll_init+0x7c>)
10001f22:	2c00      	cmp	r4, #0
10001f24:	fbb3 f3f1 	udiv	r3, r3, r1
10001f28:	fbb2 f6f3 	udiv	r6, r2, r3
10001f2c:	db1f      	blt.n	10001f6e <pll_init+0x5a>
10001f2e:	4a19      	ldr	r2, [pc, #100]	@ (10001f94 <pll_init+0x80>)
10001f30:	4b19      	ldr	r3, [pc, #100]	@ (10001f98 <pll_init+0x84>)
10001f32:	4290      	cmp	r0, r2
10001f34:	bf14      	ite	ne
10001f36:	f44f 4280 	movne.w	r2, #16384	@ 0x4000
10001f3a:	f44f 4200 	moveq.w	r2, #32768	@ 0x8000
10001f3e:	4c17      	ldr	r4, [pc, #92]	@ (10001f9c <pll_init+0x88>)
10001f40:	601a      	str	r2, [r3, #0]
10001f42:	f503 5380 	add.w	r3, r3, #4096	@ 0x1000
10001f46:	601a      	str	r2, [r3, #0]
10001f48:	68a3      	ldr	r3, [r4, #8]
10001f4a:	ea32 0303 	bics.w	r3, r2, r3
10001f4e:	d1fb      	bne.n	10001f48 <pll_init+0x34>
10001f50:	2221      	movs	r2, #33	@ 0x21
10001f52:	f500 5340 	add.w	r3, r0, #12288	@ 0x3000
10001f56:	3304      	adds	r3, #4
10001f58:	6001      	str	r1, [r0, #0]
10001f5a:	6086      	str	r6, [r0, #8]
10001f5c:	601a      	str	r2, [r3, #0]
10001f5e:	6802      	ldr	r2, [r0, #0]
10001f60:	2a00      	cmp	r2, #0
10001f62:	dafc      	bge.n	10001f5e <pll_init+0x4a>
10001f64:	2208      	movs	r2, #8
10001f66:	60c5      	str	r5, [r0, #12]
10001f68:	601a      	str	r2, [r3, #0]
10001f6a:	bc70      	pop	{r4, r5, r6}
10001f6c:	4770      	bx	lr
10001f6e:	6803      	ldr	r3, [r0, #0]
10001f70:	f003 033f 	and.w	r3, r3, #63	@ 0x3f
10001f74:	428b      	cmp	r3, r1
10001f76:	d1da      	bne.n	10001f2e <pll_init+0x1a>
10001f78:	6883      	ldr	r3, [r0, #8]
10001f7a:	f3c3 030b 	ubfx	r3, r3, #0, #12
10001f7e:	42b3      	cmp	r3, r6
10001f80:	d1d5      	bne.n	10001f2e <pll_init+0x1a>
10001f82:	68c3      	ldr	r3, [r0, #12]
10001f84:	f403 23ee 	and.w	r3, r3, #487424	@ 0x77000
10001f88:	42ab      	cmp	r3, r5
10001f8a:	d1d0      	bne.n	10001f2e <pll_init+0x1a>
10001f8c:	e7ed      	b.n	10001f6a <pll_init+0x56>
10001f8e:	bf00      	nop
10001f90:	00b71b00 	.word	0x00b71b00
10001f94:	40058000 	.word	0x40058000
10001f98:	40022000 	.word	0x40022000
10001f9c:	40020000 	.word	0x40020000

10001fa0 <watchdog_reboot>:
10001fa0:	b430      	push	{r4, r5}
10001fa2:	f04f 4480 	mov.w	r4, #1073741824	@ 0x40000000
10001fa6:	4b1c      	ldr	r3, [pc, #112]	@ (10002018 <watchdog_reboot+0x78>)
10001fa8:	601c      	str	r4, [r3, #0]
10001faa:	b1e0      	cbz	r0, 10001fe6 <watchdog_reboot+0x46>
10001fac:	4c1b      	ldr	r4, [pc, #108]	@ (1000201c <watchdog_reboot+0x7c>)
10001fae:	f5a3 5340 	sub.w	r3, r3, #12288	@ 0x3000
10001fb2:	61dc      	str	r4, [r3, #28]
10001fb4:	4c1a      	ldr	r4, [pc, #104]	@ (10002020 <watchdog_reboot+0x80>)
10001fb6:	f040 0001 	orr.w	r0, r0, #1
10001fba:	4044      	eors	r4, r0
10001fbc:	621c      	str	r4, [r3, #32]
10001fbe:	6259      	str	r1, [r3, #36]	@ 0x24
10001fc0:	6298      	str	r0, [r3, #40]	@ 0x28
10001fc2:	f04f 4580 	mov.w	r5, #1073741824	@ 0x40000000
10001fc6:	f04f 61e0 	mov.w	r1, #117440512	@ 0x7000000
10001fca:	4b13      	ldr	r3, [pc, #76]	@ (10002018 <watchdog_reboot+0x78>)
10001fcc:	4815      	ldr	r0, [pc, #84]	@ (10002024 <watchdog_reboot+0x84>)
10001fce:	4c16      	ldr	r4, [pc, #88]	@ (10002028 <watchdog_reboot+0x88>)
10001fd0:	601d      	str	r5, [r3, #0]
10001fd2:	6084      	str	r4, [r0, #8]
10001fd4:	6019      	str	r1, [r3, #0]
10001fd6:	b94a      	cbnz	r2, 10001fec <watchdog_reboot+0x4c>
10001fd8:	f04f 4200 	mov.w	r2, #2147483648	@ 0x80000000
10001fdc:	f5a3 5380 	sub.w	r3, r3, #4096	@ 0x1000
10001fe0:	601a      	str	r2, [r3, #0]
10001fe2:	bc30      	pop	{r4, r5}
10001fe4:	4770      	bx	lr
10001fe6:	4b11      	ldr	r3, [pc, #68]	@ (1000202c <watchdog_reboot+0x8c>)
10001fe8:	61d8      	str	r0, [r3, #28]
10001fea:	e7ea      	b.n	10001fc2 <watchdog_reboot+0x22>
10001fec:	f44f 737a 	mov.w	r3, #1000	@ 0x3e8
10001ff0:	fb03 f202 	mul.w	r2, r3, r2
10001ff4:	f1b2 7f80 	cmp.w	r2, #16777216	@ 0x1000000
10001ff8:	bf2a      	itet	cs
10001ffa:	f06f 437f 	mvncs.w	r3, #4278190080	@ 0xff000000
10001ffe:	4613      	movcc	r3, r2
10002000:	461a      	movcs	r2, r3
10002002:	f04f 4180 	mov.w	r1, #1073741824	@ 0x40000000
10002006:	4c0a      	ldr	r4, [pc, #40]	@ (10002030 <watchdog_reboot+0x90>)
10002008:	4808      	ldr	r0, [pc, #32]	@ (1000202c <watchdog_reboot+0x8c>)
1000200a:	6023      	str	r3, [r4, #0]
1000200c:	4b09      	ldr	r3, [pc, #36]	@ (10002034 <watchdog_reboot+0x94>)
1000200e:	6042      	str	r2, [r0, #4]
10002010:	6019      	str	r1, [r3, #0]
10002012:	bc30      	pop	{r4, r5}
10002014:	4770      	bx	lr
10002016:	bf00      	nop
10002018:	400db000 	.word	0x400db000
1000201c:	b007c0d3 	.word	0xb007c0d3
10002020:	4ff83f2d 	.word	0x4ff83f2d
10002024:	4001a000 	.word	0x4001a000
10002028:	01fffff3 	.word	0x01fffff3
1000202c:	400d8000 	.word	0x400d8000
10002030:	2000235c 	.word	0x2000235c
10002034:	400da000 	.word	0x400da000

10002038 <tick_start>:
10002038:	2301      	movs	r3, #1
1000203a:	eb00 0040 	add.w	r0, r0, r0, lsl #1
1000203e:	0080      	lsls	r0, r0, #2
10002040:	f100 4080 	add.w	r0, r0, #1073741824	@ 0x40000000
10002044:	f500 1084 	add.w	r0, r0, #1081344	@ 0x108000
10002048:	6041      	str	r1, [r0, #4]
1000204a:	6003      	str	r3, [r0, #0]
1000204c:	4770      	bx	lr
1000204e:	bf00      	nop

10002050 <rom_reboot.constprop.0.isra.0>:
10002050:	2300      	movs	r3, #0
10002052:	b570      	push	{r4, r5, r6, lr}
10002054:	4604      	mov	r4, r0
10002056:	460d      	mov	r5, r1
10002058:	8adb      	ldrh	r3, [r3, #22]
1000205a:	2200      	movs	r2, #0
1000205c:	e842 f200 	tt	r2, r2
10002060:	0252      	lsls	r2, r2, #9
10002062:	bf54      	ite	pl
10002064:	2110      	movpl	r1, #16
10002066:	2104      	movmi	r1, #4
10002068:	f244 2052 	movw	r0, #16978	@ 0x4252
1000206c:	4798      	blx	r3
1000206e:	4686      	mov	lr, r0
10002070:	462b      	mov	r3, r5
10002072:	4622      	mov	r2, r4
10002074:	46f4      	mov	ip, lr
10002076:	e8bd 4070 	ldmia.w	sp!, {r4, r5, r6, lr}
1000207a:	210a      	movs	r1, #10
1000207c:	f44f 7081 	mov.w	r0, #258	@ 0x102
10002080:	4760      	bx	ip
10002082:	bf00      	nop

10002084 <rom_func_lookup>:
10002084:	2300      	movs	r3, #0
10002086:	8adb      	ldrh	r3, [r3, #22]
10002088:	2200      	movs	r2, #0
1000208a:	e842 f200 	tt	r2, r2
1000208e:	0252      	lsls	r2, r2, #9
10002090:	d401      	bmi.n	10002096 <rom_func_lookup+0x12>
10002092:	2110      	movs	r1, #16
10002094:	4718      	bx	r3
10002096:	2104      	movs	r1, #4
10002098:	4718      	bx	r3
1000209a:	bf00      	nop

1000209c <rom_reset_usb_boot_extra>:
1000209c:	b508      	push	{r3, lr}
1000209e:	4603      	mov	r3, r0
100020a0:	4608      	mov	r0, r1
100020a2:	1e19      	subs	r1, r3, #0
100020a4:	db02      	blt.n	100020ac <rom_reset_usb_boot_extra+0x10>
100020a6:	b11a      	cbz	r2, 100020b0 <rom_reset_usb_boot_extra+0x14>
100020a8:	f040 0030 	orr.w	r0, r0, #48	@ 0x30
100020ac:	f7ff ffd0 	bl	10002050 <rom_reboot.constprop.0.isra.0>
100020b0:	f040 0020 	orr.w	r0, r0, #32
100020b4:	e7fa      	b.n	100020ac <rom_reset_usb_boot_extra+0x10>
100020b6:	bf00      	nop

100020b8 <runtime_init_bootrom_locking_enable>:
100020b8:	4a03      	ldr	r2, [pc, #12]	@ (100020c8 <runtime_init_bootrom_locking_enable+0x10>)
100020ba:	f8d2 3828 	ldr.w	r3, [r2, #2088]	@ 0x828
100020be:	2b00      	cmp	r3, #0
100020c0:	d0fb      	beq.n	100020ba <runtime_init_bootrom_locking_enable+0x2>
100020c2:	f3bf 8f5f 	dmb	sy
100020c6:	4770      	bx	lr
100020c8:	400e0000 	.word	0x400e0000

100020cc <runtime_init_boot_locks_reset>:
100020cc:	2100      	movs	r1, #0
100020ce:	4b04      	ldr	r3, [pc, #16]	@ (100020e0 <runtime_init_boot_locks_reset+0x14>)
100020d0:	4a04      	ldr	r2, [pc, #16]	@ (100020e4 <runtime_init_boot_locks_reset+0x18>)
100020d2:	f3bf 8f5f 	dmb	sy
100020d6:	f843 1b04 	str.w	r1, [r3], #4
100020da:	4293      	cmp	r3, r2
100020dc:	d1f9      	bne.n	100020d2 <runtime_init_boot_locks_reset+0x6>
100020de:	4770      	bx	lr
100020e0:	400e080c 	.word	0x400e080c
100020e4:	400e082c 	.word	0x400e082c

100020e8 <xosc_init>:
100020e8:	b410      	push	{r4}
100020ea:	f44f 708d 	mov.w	r0, #282	@ 0x11a
100020ee:	f44f 642a 	mov.w	r4, #2720	@ 0xaa0
100020f2:	4a06      	ldr	r2, [pc, #24]	@ (1000210c <xosc_init+0x24>)
100020f4:	4b06      	ldr	r3, [pc, #24]	@ (10002110 <xosc_init+0x28>)
100020f6:	4907      	ldr	r1, [pc, #28]	@ (10002114 <xosc_init+0x2c>)
100020f8:	6014      	str	r4, [r2, #0]
100020fa:	60d0      	str	r0, [r2, #12]
100020fc:	6019      	str	r1, [r3, #0]
100020fe:	6853      	ldr	r3, [r2, #4]
10002100:	2b00      	cmp	r3, #0
10002102:	dafc      	bge.n	100020fe <xosc_init+0x16>
10002104:	f85d 4b04 	ldr.w	r4, [sp], #4
10002108:	4770      	bx	lr
1000210a:	bf00      	nop
1000210c:	40048000 	.word	0x40048000
10002110:	4004a000 	.word	0x4004a000
10002114:	00fab000 	.word	0x00fab000

10002118 <first_per_core_initializer>:
10002118:	4770      	bx	lr
1000211a:	bf00      	nop

1000211c <hard_assertion_failure>:
1000211c:	b508      	push	{r3, lr}
1000211e:	4801      	ldr	r0, [pc, #4]	@ (10002124 <hard_assertion_failure+0x8>)
10002120:	f7fe ffb0 	bl	10001084 <panic>
10002124:	1000c7cc 	.word	0x1000c7cc

10002128 <runtime_run_initializers>:
10002128:	b538      	push	{r3, r4, r5, lr}
1000212a:	4c05      	ldr	r4, [pc, #20]	@ (10002140 <runtime_run_initializers+0x18>)
1000212c:	4d05      	ldr	r5, [pc, #20]	@ (10002144 <runtime_run_initializers+0x1c>)
1000212e:	42ac      	cmp	r4, r5
10002130:	d204      	bcs.n	1000213c <runtime_run_initializers+0x14>
10002132:	f854 3b04 	ldr.w	r3, [r4], #4
10002136:	4798      	blx	r3
10002138:	42ac      	cmp	r4, r5
1000213a:	d3fa      	bcc.n	10002132 <runtime_run_initializers+0xa>
1000213c:	bd38      	pop	{r3, r4, r5, pc}
1000213e:	bf00      	nop
10002140:	1000c178 	.word	0x1000c178
10002144:	1000c1b8 	.word	0x1000c1b8

10002148 <runtime_init_early_resets>:
10002148:	b410      	push	{r4}
1000214a:	4807      	ldr	r0, [pc, #28]	@ (10002168 <runtime_init_early_resets+0x20>)
1000214c:	4c07      	ldr	r4, [pc, #28]	@ (1000216c <runtime_init_early_resets+0x24>)
1000214e:	4b08      	ldr	r3, [pc, #32]	@ (10002170 <runtime_init_early_resets+0x28>)
10002150:	4a08      	ldr	r2, [pc, #32]	@ (10002174 <runtime_init_early_resets+0x2c>)
10002152:	4909      	ldr	r1, [pc, #36]	@ (10002178 <runtime_init_early_resets+0x30>)
10002154:	6004      	str	r4, [r0, #0]
10002156:	601a      	str	r2, [r3, #0]
10002158:	688b      	ldr	r3, [r1, #8]
1000215a:	ea32 0303 	bics.w	r3, r2, r3
1000215e:	d1fb      	bne.n	10002158 <runtime_init_early_resets+0x10>
10002160:	f85d 4b04 	ldr.w	r4, [sp], #4
10002164:	4770      	bx	lr
10002166:	bf00      	nop
10002168:	40022000 	.word	0x40022000
1000216c:	efef3b7f 	.word	0xefef3b7f
10002170:	40023000 	.word	0x40023000
10002174:	03f3fff6 	.word	0x03f3fff6
10002178:	40020000 	.word	0x40020000

1000217c <runtime_init_usb_power_down>:
1000217c:	4b04      	ldr	r3, [pc, #16]	@ (10002190 <runtime_init_usb_power_down+0x14>)
1000217e:	6cdb      	ldr	r3, [r3, #76]	@ 0x4c
10002180:	f5b3 4f00 	cmp.w	r3, #32768	@ 0x8000
10002184:	d103      	bne.n	1000218e <runtime_init_usb_power_down+0x12>
10002186:	f44f 2280 	mov.w	r2, #262144	@ 0x40000
1000218a:	4b02      	ldr	r3, [pc, #8]	@ (10002194 <runtime_init_usb_power_down+0x18>)
1000218c:	64da      	str	r2, [r3, #76]	@ 0x4c
1000218e:	4770      	bx	lr
10002190:	50110000 	.word	0x50110000
10002194:	50112000 	.word	0x50112000

10002198 <runtime_init_per_core_enable_coprocessors>:
10002198:	f04f 22e0 	mov.w	r2, #3758153728	@ 0xe000e000
1000219c:	4b04      	ldr	r3, [pc, #16]	@ (100021b0 <runtime_init_per_core_enable_coprocessors+0x18>)
1000219e:	f8d2 1d88 	ldr.w	r1, [r2, #3464]	@ 0xd88
100021a2:	430b      	orrs	r3, r1
100021a4:	f8c2 3d88 	str.w	r3, [r2, #3464]	@ 0xd88
100021a8:	ee10 0430 			dcp_rcmp r0
100021ac:	4770      	bx	lr
100021ae:	bf00      	nop
100021b0:	00300303 	.word	0x00300303

100021b4 <runtime_init_post_clock_resets>:
100021b4:	f06f 4160 	mvn.w	r1, #3758096384	@ 0xe0000000
100021b8:	4b04      	ldr	r3, [pc, #16]	@ (100021cc <runtime_init_post_clock_resets+0x18>)
100021ba:	4a05      	ldr	r2, [pc, #20]	@ (100021d0 <runtime_init_post_clock_resets+0x1c>)
100021bc:	6019      	str	r1, [r3, #0]
100021be:	6893      	ldr	r3, [r2, #8]
100021c0:	43db      	mvns	r3, r3
100021c2:	f033 4360 	bics.w	r3, r3, #3758096384	@ 0xe0000000
100021c6:	d1fa      	bne.n	100021be <runtime_init_post_clock_resets+0xa>
100021c8:	4770      	bx	lr
100021ca:	bf00      	nop
100021cc:	40023000 	.word	0x40023000
100021d0:	40020000 	.word	0x40020000

100021d4 <runtime_init_bootrom_reset>:
100021d4:	b510      	push	{r4, lr}
100021d6:	f245 2053 	movw	r0, #21075	@ 0x5253
100021da:	f7ff ff53 	bl	10002084 <rom_func_lookup>
100021de:	e8bd 4010 	ldmia.w	sp!, {r4, lr}
100021e2:	4603      	mov	r3, r0
100021e4:	2004      	movs	r0, #4
100021e6:	4718      	bx	r3

100021e8 <runtime_init_per_core_bootrom_reset>:
100021e8:	b510      	push	{r4, lr}
100021ea:	f245 2053 	movw	r0, #21075	@ 0x5253
100021ee:	f7ff ff49 	bl	10002084 <rom_func_lookup>
100021f2:	e8bd 4010 	ldmia.w	sp!, {r4, lr}
100021f6:	4603      	mov	r3, r0
100021f8:	2001      	movs	r0, #1
100021fa:	4718      	bx	r3

100021fc <runtime_init_spin_locks_reset>:
100021fc:	f7fe bfea 	b.w	100011d4 <spin_locks_reset>

10002200 <runtime_init_install_ram_vector_table>:
10002200:	b510      	push	{r4, lr}
10002202:	4b05      	ldr	r3, [pc, #20]	@ (10002218 <runtime_init_install_ram_vector_table+0x18>)
10002204:	4c05      	ldr	r4, [pc, #20]	@ (1000221c <runtime_init_install_ram_vector_table+0x1c>)
10002206:	f44f 7288 	mov.w	r2, #272	@ 0x110
1000220a:	4618      	mov	r0, r3
1000220c:	68a1      	ldr	r1, [r4, #8]
1000220e:	f005 faef 	bl	100077f0 <memcpy>
10002212:	60a0      	str	r0, [r4, #8]
10002214:	bd10      	pop	{r4, pc}
10002216:	bf00      	nop
10002218:	20000000 	.word	0x20000000
1000221c:	e000ed00 	.word	0xe000ed00

10002220 <runtime_init_clocks>:
10002220:	2300      	movs	r3, #0
10002222:	b570      	push	{r4, r5, r6, lr}
10002224:	4c2b      	ldr	r4, [pc, #172]	@ (100022d4 <runtime_init_clocks+0xb4>)
10002226:	b082      	sub	sp, #8
10002228:	f8c4 3084 	str.w	r3, [r4, #132]	@ 0x84
1000222c:	f7ff ff5c 	bl	100020e8 <xosc_init>
10002230:	2201      	movs	r2, #1
10002232:	4b29      	ldr	r3, [pc, #164]	@ (100022d8 <runtime_init_clocks+0xb8>)
10002234:	63da      	str	r2, [r3, #60]	@ 0x3c
10002236:	6c63      	ldr	r3, [r4, #68]	@ 0x44
10002238:	2b01      	cmp	r3, #1
1000223a:	d1fc      	bne.n	10002236 <runtime_init_clocks+0x16>
1000223c:	2103      	movs	r1, #3
1000223e:	4a26      	ldr	r2, [pc, #152]	@ (100022d8 <runtime_init_clocks+0xb8>)
10002240:	4b24      	ldr	r3, [pc, #144]	@ (100022d4 <runtime_init_clocks+0xb4>)
10002242:	6311      	str	r1, [r2, #48]	@ 0x30
10002244:	6b9c      	ldr	r4, [r3, #56]	@ 0x38
10002246:	2c01      	cmp	r4, #1
10002248:	d1fc      	bne.n	10002244 <runtime_init_clocks+0x24>
1000224a:	2602      	movs	r6, #2
1000224c:	2505      	movs	r5, #5
1000224e:	4621      	mov	r1, r4
10002250:	2305      	movs	r3, #5
10002252:	4a22      	ldr	r2, [pc, #136]	@ (100022dc <runtime_init_clocks+0xbc>)
10002254:	4822      	ldr	r0, [pc, #136]	@ (100022e0 <runtime_init_clocks+0xc0>)
10002256:	9600      	str	r6, [sp, #0]
10002258:	f7ff fe5c 	bl	10001f14 <pll_init>
1000225c:	4621      	mov	r1, r4
1000225e:	462b      	mov	r3, r5
10002260:	4a20      	ldr	r2, [pc, #128]	@ (100022e4 <runtime_init_clocks+0xc4>)
10002262:	4821      	ldr	r0, [pc, #132]	@ (100022e8 <runtime_init_clocks+0xc8>)
10002264:	9500      	str	r5, [sp, #0]
10002266:	f7ff fe55 	bl	10001f14 <pll_init>
1000226a:	2200      	movs	r2, #0
1000226c:	2004      	movs	r0, #4
1000226e:	4631      	mov	r1, r6
10002270:	4b1e      	ldr	r3, [pc, #120]	@ (100022ec <runtime_init_clocks+0xcc>)
10002272:	f7ff fe3f 	bl	10001ef4 <clock_configure_undivided>
10002276:	4621      	mov	r1, r4
10002278:	4628      	mov	r0, r5
1000227a:	2200      	movs	r2, #0
1000227c:	4b1c      	ldr	r3, [pc, #112]	@ (100022f0 <runtime_init_clocks+0xd0>)
1000227e:	f7ff fe39 	bl	10001ef4 <clock_configure_undivided>
10002282:	2200      	movs	r2, #0
10002284:	2008      	movs	r0, #8
10002286:	4611      	mov	r1, r2
10002288:	4b1a      	ldr	r3, [pc, #104]	@ (100022f4 <runtime_init_clocks+0xd4>)
1000228a:	f7ff fe33 	bl	10001ef4 <clock_configure_undivided>
1000228e:	2200      	movs	r2, #0
10002290:	2009      	movs	r0, #9
10002292:	4611      	mov	r1, r2
10002294:	4b17      	ldr	r3, [pc, #92]	@ (100022f4 <runtime_init_clocks+0xd4>)
10002296:	f7ff fe2d 	bl	10001ef4 <clock_configure_undivided>
1000229a:	2200      	movs	r2, #0
1000229c:	2006      	movs	r0, #6
1000229e:	4611      	mov	r1, r2
100022a0:	4b13      	ldr	r3, [pc, #76]	@ (100022f0 <runtime_init_clocks+0xd0>)
100022a2:	f7ff fe27 	bl	10001ef4 <clock_configure_undivided>
100022a6:	2200      	movs	r2, #0
100022a8:	4b11      	ldr	r3, [pc, #68]	@ (100022f0 <runtime_init_clocks+0xd0>)
100022aa:	2007      	movs	r0, #7
100022ac:	4611      	mov	r1, r2
100022ae:	f7ff fe21 	bl	10001ef4 <clock_configure_undivided>
100022b2:	2004      	movs	r0, #4
100022b4:	f7ff fe28 	bl	10001f08 <clock_get_hz>
100022b8:	2400      	movs	r4, #0
100022ba:	4b0f      	ldr	r3, [pc, #60]	@ (100022f8 <runtime_init_clocks+0xd8>)
100022bc:	fba3 3500 	umull	r3, r5, r3, r0
100022c0:	0cad      	lsrs	r5, r5, #18
100022c2:	b2e0      	uxtb	r0, r4
100022c4:	4629      	mov	r1, r5
100022c6:	3401      	adds	r4, #1
100022c8:	f7ff feb6 	bl	10002038 <tick_start>
100022cc:	2c06      	cmp	r4, #6
100022ce:	d1f8      	bne.n	100022c2 <runtime_init_clocks+0xa2>
100022d0:	b002      	add	sp, #8
100022d2:	bd70      	pop	{r4, r5, r6, pc}
100022d4:	40010000 	.word	0x40010000
100022d8:	40013000 	.word	0x40013000
100022dc:	59682f00 	.word	0x59682f00
100022e0:	40050000 	.word	0x40050000
100022e4:	47868c00 	.word	0x47868c00
100022e8:	40058000 	.word	0x40058000
100022ec:	00b71b00 	.word	0x00b71b00
100022f0:	08f0d180 	.word	0x08f0d180
100022f4:	02dc6c00 	.word	0x02dc6c00
100022f8:	431bde83 	.word	0x431bde83

100022fc <generic_save_state>:
100022fc:	b086      	sub	sp, #24
100022fe:	b403      	push	{r0, r1}
10002300:	fc51 0408 	dcp_pxmd r0, r1
10002304:	e9cd 0102 	strd	r0, r1, [sp, #8]
10002308:	fc51 0409 	dcp_pymd r0, r1
1000230c:	e9cd 0104 	strd	r0, r1, [sp, #16]
10002310:	ec51 040a 	dcp_refd r0, r1
10002314:	e9cd 0106 	strd	r0, r1, [sp, #24]
10002318:	bc03      	pop	{r0, r1}
1000231a:	47f0      	blx	lr

1000231c <generic_restore_state>:
1000231c:	e8bd 5000 	ldmia.w	sp!, {ip, lr}
10002320:	ec4e c400 	dcp_wxmd ip, lr
10002324:	e8bd 5000 	ldmia.w	sp!, {ip, lr}
10002328:	ec4e c401 	dcp_wymd ip, lr
1000232c:	e8bd 5000 	ldmia.w	sp!, {ip, lr}
10002330:	ec4e c402 	dcp_wefd ip, lr
10002334:	bd00      	pop	{pc}
10002336:	0000      	movs	r0, r0
10002338:	b500      	push	{lr}
1000233a:	f7ff ffdf 	bl	100022fc <generic_save_state>
1000233e:	e002      	b.n	10002346 <__wrap___aeabi_dadd+0x6>

10002340 <__wrap___aeabi_dadd>:
10002340:	fe10 f430 	dcp_pcmp APSR_nzcv
10002344:	d4f8      	bmi.n	10002338 <generic_restore_state+0x1c>
10002346:	ec41 0410 	dcp_wxup r0, r1
1000234a:	ec43 2411 	dcp_wyup r2, r3
1000234e:	ee00 0401 			dcp_add0
10002352:	ee10 0401 			dcp_add1
10002356:	ee80 0420 			dcp_nrdd
1000235a:	ec51 0410 	dcp_rdda r0, r1
1000235e:	4770      	bx	lr
10002360:	b500      	push	{lr}
10002362:	f7ff ffcb 	bl	100022fc <generic_save_state>
10002366:	e002      	b.n	1000236e <__wrap___aeabi_dsub+0x6>

10002368 <__wrap___aeabi_dsub>:
10002368:	fe10 f430 	dcp_pcmp APSR_nzcv
1000236c:	d4f8      	bmi.n	10002360 <__wrap___aeabi_dadd+0x20>
1000236e:	ec41 0410 	dcp_wxup r0, r1
10002372:	ec43 2411 	dcp_wyup r2, r3
10002376:	ee00 0401 			dcp_add0
1000237a:	ee10 0421 			dcp_sub1
1000237e:	ee80 0420 			dcp_nrdd
10002382:	ec51 0430 	dcp_rdds r0, r1
10002386:	4770      	bx	lr
10002388:	b500      	push	{lr}
1000238a:	f7ff ffb7 	bl	100022fc <generic_save_state>
1000238e:	e002      	b.n	10002396 <__wrap___aeabi_dmul+0x6>

10002390 <__wrap___aeabi_dmul>:
10002390:	fe10 f430 	dcp_pcmp APSR_nzcv
10002394:	d4f8      	bmi.n	10002388 <__wrap___aeabi_dsub+0x20>
10002396:	b510      	push	{r4, lr}
10002398:	ec41 0410 	dcp_wxup r0, r1
1000239c:	ec43 2411 	dcp_wyup r2, r3
100023a0:	ec51 0404 	dcp_rxms r0, r1, #0x0
100023a4:	ec53 2405 	dcp_ryms r2, r3, #0x0
100023a8:	fba0 4c02 	umull	r4, ip, r0, r2
100023ac:	f05f 0e00 	movs.w	lr, #0
100023b0:	fbe0 ce03 	umlal	ip, lr, r0, r3
100023b4:	fbe1 ce02 	umlal	ip, lr, r1, r2
100023b8:	ec4c 4420 	dcp_wxms r4, ip
100023bc:	2400      	movs	r4, #0
100023be:	fbe1 e403 	umlal	lr, r4, r1, r3
100023c2:	ec44 e430 	dcp_wxmo lr, r4
100023c6:	ee80 0420 			dcp_nrdd
100023ca:	ec51 0450 	dcp_rddm r0, r1
100023ce:	e8bd 4010 	ldmia.w	sp!, {r4, lr}
100023d2:	4770      	bx	lr
100023d4:	b500      	push	{lr}
100023d6:	f7ff ff91 	bl	100022fc <generic_save_state>
100023da:	e002      	b.n	100023e2 <__wrap___aeabi_ddiv+0x6>

100023dc <__wrap___aeabi_ddiv>:
100023dc:	fe10 f430 	dcp_pcmp APSR_nzcv
100023e0:	d4f8      	bmi.n	100023d4 <__wrap___aeabi_dmul+0x44>
100023e2:	ec41 0410 	dcp_wxup r0, r1
100023e6:	ec43 2411 	dcp_wyup r2, r3
100023ea:	ec51 0421 	dcp_rymr r0, r1
100023ee:	fba0 1201 	umull	r1, r2, r0, r1
100023f2:	ea6f 0282 	mvn.w	r2, r2, lsl #2
100023f6:	fb52 0010 	smmlar	r0, r2, r0, r0
100023fa:	fb52 f212 	smmulr	r2, r2, r2
100023fe:	fb52 0010 	smmlar	r0, r2, r0, r0
10002402:	eba0 7cd0 	sub.w	ip, r0, r0, lsr #31
10002406:	ec53 2404 	dcp_rxms r2, r3, #0x0
1000240a:	fb5c f113 	smmulr	r1, ip, r3
1000240e:	ec53 2415 	dcp_ryms r2, r3, #0x1
10002412:	fba1 2002 	umull	r2, r0, r1, r2
10002416:	fb01 0003 	mla	r0, r1, r3, r0
1000241a:	ec53 2444 	dcp_rxms r2, r3, #0x4
1000241e:	eba2 0000 	sub.w	r0, r2, r0
10002422:	fb50 f21c 	smmulr	r2, r0, ip
10002426:	ea4f 1311 	mov.w	r3, r1, lsr #4
1000242a:	eb12 7001 	adds.w	r0, r2, r1, lsl #28
1000242e:	eb43 71e2 	adc.w	r1, r3, r2, asr #31
10002432:	ea40 5051 	orr.w	r0, r0, r1, lsr #21
10002436:	ea20 5091 	bic.w	r0, r0, r1, lsr #22
1000243a:	f020 0007 	bic.w	r0, r0, #7
1000243e:	ec53 2475 	dcp_ryms r2, r3, #0x7
10002442:	fba0 3c02 	umull	r3, ip, r0, r2
10002446:	ec53 2475 	dcp_ryms r2, r3, #0x7
1000244a:	fb00 cc03 	mla	ip, r0, r3, ip
1000244e:	fb01 cc02 	mla	ip, r1, r2, ip
10002452:	ec53 2404 	dcp_rxms r2, r3, #0x0
10002456:	ebac 4c82 	sub.w	ip, ip, r2, lsl #18
1000245a:	ea40 705c 	orr.w	r0, r0, ip, lsr #29
1000245e:	f1a0 0001 	sub.w	r0, r0, #1
10002462:	ec41 0440 	dcp_wxdd r0, r1
10002466:	ee80 0420 			dcp_nrdd
1000246a:	ec51 0470 	dcp_rddd r0, r1
1000246e:	4770      	bx	lr
10002470:	b500      	push	{lr}
10002472:	f7ff ff43 	bl	100022fc <generic_save_state>
10002476:	e002      	b.n	1000247e <__wrap___aeabi_d2f+0x6>

10002478 <__wrap___aeabi_d2f>:
10002478:	fe10 f430 	dcp_pcmp APSR_nzcv
1000247c:	d4f8      	bmi.n	10002470 <__wrap___aeabi_ddiv+0x94>
1000247e:	ec41 0410 	dcp_wxup r0, r1
10002482:	ee80 0422 			dcp_nrdf
10002486:	ee10 04b2 			dcp_rdfg r0
1000248a:	4770      	bx	lr
1000248c:	b500      	push	{lr}
1000248e:	f7ff ff35 	bl	100022fc <generic_save_state>
10002492:	e002      	b.n	1000249a <__wrap___aeabi_i2d+0x6>

10002494 <__wrap___aeabi_i2d>:
10002494:	fe10 f430 	dcp_pcmp APSR_nzcv
10002498:	d4f8      	bmi.n	1000248c <__wrap___aeabi_d2f+0x14>
1000249a:	ec40 0470 	dcp_wxic r0, r0
1000249e:	ee00 0401 			dcp_add0
100024a2:	ee10 0421 			dcp_sub1
100024a6:	ee80 0420 			dcp_nrdd
100024aa:	ec51 0430 	dcp_rdds r0, r1
100024ae:	4770      	bx	lr
100024b0:	b500      	push	{lr}
100024b2:	f7ff ff23 	bl	100022fc <generic_save_state>
100024b6:	e002      	b.n	100024be <__wrap___aeabi_ui2d+0x6>

100024b8 <__wrap___aeabi_ui2d>:
100024b8:	fe10 f430 	dcp_pcmp APSR_nzcv
100024bc:	d4f8      	bmi.n	100024b0 <__wrap___aeabi_i2d+0x1c>
100024be:	ec40 0460 	dcp_wxuc r0, r0
100024c2:	ee00 0401 			dcp_add0
100024c6:	ee10 0421 			dcp_sub1
100024ca:	ee80 0420 			dcp_nrdd
100024ce:	ec51 0430 	dcp_rdds r0, r1
100024d2:	4770      	bx	lr
100024d4:	b500      	push	{lr}
100024d6:	f7ff ff11 	bl	100022fc <generic_save_state>
100024da:	e002      	b.n	100024e2 <double2int_z_entry>

100024dc <__wrap___aeabi_d2iz>:
100024dc:	fe10 f430 	dcp_pcmp APSR_nzcv
100024e0:	d4f8      	bmi.n	100024d4 <__wrap___aeabi_ui2d+0x1c>

100024e2 <double2int_z_entry>:
100024e2:	ec41 0480 	dcp_wxdc r0, r1
100024e6:	ee00 0401 			dcp_add0
100024ea:	ee10 0401 			dcp_add1
100024ee:	ee80 0440 			dcp_ntdc
100024f2:	ee10 0413 			dcp_rdic r0
100024f6:	4770      	bx	lr
100024f8:	b500      	push	{lr}
100024fa:	f7ff feff 	bl	100022fc <generic_save_state>
100024fe:	e002      	b.n	10002506 <double2uint_z_entry>

10002500 <__wrap___aeabi_d2uiz>:
10002500:	fe10 f430 	dcp_pcmp APSR_nzcv
10002504:	d4f8      	bmi.n	100024f8 <double2int_z_entry+0x16>

10002506 <double2uint_z_entry>:
10002506:	ec41 0480 	dcp_wxdc r0, r1
1000250a:	ee00 0401 			dcp_add0
1000250e:	ee10 0401 			dcp_add1
10002512:	ee80 0440 			dcp_ntdc
10002516:	ee10 0433 			dcp_rduc r0
1000251a:	4770      	bx	lr
1000251c:	b500      	push	{lr}
1000251e:	f7ff feed 	bl	100022fc <generic_save_state>
10002522:	e002      	b.n	1000252a <__wrap___aeabi_dcmpun+0x6>

10002524 <__wrap___aeabi_dcmpun>:
10002524:	fe10 f430 	dcp_pcmp APSR_nzcv
10002528:	d4f8      	bmi.n	1000251c <double2uint_z_entry+0x16>
1000252a:	ec41 0410 	dcp_wxup r0, r1
1000252e:	ec43 2411 	dcp_wyup r2, r3
10002532:	ee00 0401 			dcp_add0
10002536:	ee10 0430 			dcp_rcmp r0
1000253a:	f3c0 7000 	ubfx	r0, r0, #28, #1
1000253e:	4770      	bx	lr
10002540:	b500      	push	{lr}
10002542:	f7ff fedb 	bl	100022fc <generic_save_state>
10002546:	e002      	b.n	1000254e <__wrap___aeabi_dcmpeq+0x6>

10002548 <__wrap___aeabi_dcmpeq>:
10002548:	fe10 f430 	dcp_pcmp APSR_nzcv
1000254c:	d4f8      	bmi.n	10002540 <__wrap___aeabi_dcmpun+0x1c>
1000254e:	ec41 0410 	dcp_wxup r0, r1
10002552:	ec43 2411 	dcp_wyup r2, r3
10002556:	ee00 0401 			dcp_add0
1000255a:	ee10 0430 			dcp_rcmp r0
1000255e:	f3c0 7080 	ubfx	r0, r0, #30, #1
10002562:	4770      	bx	lr
10002564:	b500      	push	{lr}
10002566:	f7ff fec9 	bl	100022fc <generic_save_state>
1000256a:	e002      	b.n	10002572 <__wrap___aeabi_dcmplt+0x6>

1000256c <__wrap___aeabi_dcmplt>:
1000256c:	fe10 f430 	dcp_pcmp APSR_nzcv
10002570:	d4f8      	bmi.n	10002564 <__wrap___aeabi_dcmpeq+0x1c>
10002572:	ec43 2410 	dcp_wxup r2, r3
10002576:	ec41 0411 	dcp_wyup r0, r1
1000257a:	ee00 0401 			dcp_add0
1000257e:	ee10 f430 			dcp_rcmp APSR_nzcv
10002582:	bf8c      	ite	hi
10002584:	2001      	movhi	r0, #1
10002586:	2000      	movls	r0, #0
10002588:	4770      	bx	lr
1000258a:	bf00      	nop
1000258c:	b500      	push	{lr}
1000258e:	f7ff feb5 	bl	100022fc <generic_save_state>
10002592:	e002      	b.n	1000259a <__wrap___aeabi_dcmple+0x6>

10002594 <__wrap___aeabi_dcmple>:
10002594:	fe10 f430 	dcp_pcmp APSR_nzcv
10002598:	d4f8      	bmi.n	1000258c <__wrap___aeabi_dcmplt+0x20>
1000259a:	ec43 2410 	dcp_wxup r2, r3
1000259e:	ec41 0411 	dcp_wyup r0, r1
100025a2:	ee00 0401 			dcp_add0
100025a6:	ee10 f430 			dcp_rcmp APSR_nzcv
100025aa:	bf2c      	ite	cs
100025ac:	2001      	movcs	r0, #1
100025ae:	2000      	movcc	r0, #0
100025b0:	4770      	bx	lr
100025b2:	bf00      	nop
100025b4:	b500      	push	{lr}
100025b6:	f7ff fea1 	bl	100022fc <generic_save_state>
100025ba:	e002      	b.n	100025c2 <__wrap___aeabi_dcmpge+0x6>

100025bc <__wrap___aeabi_dcmpge>:
100025bc:	fe10 f430 	dcp_pcmp APSR_nzcv
100025c0:	d4f8      	bmi.n	100025b4 <__wrap___aeabi_dcmple+0x20>
100025c2:	ec41 0410 	dcp_wxup r0, r1
100025c6:	ec43 2411 	dcp_wyup r2, r3
100025ca:	ee00 0401 			dcp_add0
100025ce:	ee10 f430 			dcp_rcmp APSR_nzcv
100025d2:	bf2c      	ite	cs
100025d4:	2001      	movcs	r0, #1
100025d6:	2000      	movcc	r0, #0
100025d8:	4770      	bx	lr
100025da:	bf00      	nop
100025dc:	b500      	push	{lr}
100025de:	f7ff fe8d 	bl	100022fc <generic_save_state>
100025e2:	e002      	b.n	100025ea <__wrap___aeabi_dcmpgt+0x6>

100025e4 <__wrap___aeabi_dcmpgt>:
100025e4:	fe10 f430 	dcp_pcmp APSR_nzcv
100025e8:	d4f8      	bmi.n	100025dc <__wrap___aeabi_dcmpge+0x20>
100025ea:	ec41 0410 	dcp_wxup r0, r1
100025ee:	ec43 2411 	dcp_wyup r2, r3
100025f2:	ee00 0401 			dcp_add0
100025f6:	ee10 f430 			dcp_rcmp APSR_nzcv
100025fa:	bf8c      	ite	hi
100025fc:	2001      	movhi	r0, #1
100025fe:	2000      	movls	r0, #0
10002600:	4770      	bx	lr
10002602:	bf00      	nop

10002604 <__wrap___aeabi_l2d>:
10002604:	2200      	movs	r2, #0

10002606 <fix642double>:
10002606:	2900      	cmp	r1, #0
10002608:	da50      	bge.n	100026ac <ufix642double>
1000260a:	4240      	negs	r0, r0
1000260c:	eb61 0141 	sbc.w	r1, r1, r1, lsl #1
10002610:	b1c9      	cbz	r1, 10002646 <fix642double+0x40>
10002612:	fab1 f381 	clz	r3, r1
10002616:	3b0b      	subs	r3, #11
10002618:	d417      	bmi.n	1000264a <fix642double+0x44>
1000261a:	f1d3 0c20 	rsbs	ip, r3, #32
1000261e:	fa30 fc0c 	lsrs.w	ip, r0, ip
10002622:	4098      	lsls	r0, r3
10002624:	4099      	lsls	r1, r3
10002626:	ea51 010c 	orrs.w	r1, r1, ip
1000262a:	441a      	add	r2, r3
1000262c:	4252      	negs	r2, r2
1000262e:	f202 4232 	addw	r2, r2, #1074	@ 0x432
10002632:	eb01 5102 	add.w	r1, r1, r2, lsl #20
10002636:	f041 4100 	orr.w	r1, r1, #2147483648	@ 0x80000000
1000263a:	f240 73fe 	movw	r3, #2046	@ 0x7fe
1000263e:	429a      	cmp	r2, r3
10002640:	bf38      	it	cc
10002642:	4770      	bxcc	lr
10002644:	e021      	b.n	1000268a <fix642double+0x84>
10002646:	4611      	mov	r1, r2
10002648:	e07e      	b.n	10002748 <fix2double_neg>
1000264a:	f103 0321 	add.w	r3, r3, #33	@ 0x21
1000264e:	fa10 fc03 	lsls.w	ip, r0, r3
10002652:	f1a3 0301 	sub.w	r3, r3, #1
10002656:	fa01 fc03 	lsl.w	ip, r1, r3
1000265a:	f1c3 0320 	rsb	r3, r3, #32
1000265e:	fa20 f003 	lsr.w	r0, r0, r3
10002662:	fa21 f103 	lsr.w	r1, r1, r3
10002666:	ea40 000c 	orr.w	r0, r0, ip
1000266a:	eba3 0202 	sub.w	r2, r3, r2
1000266e:	f202 4232 	addw	r2, r2, #1074	@ 0x432
10002672:	d014      	beq.n	1000269e <fix642double+0x98>
10002674:	f150 0000 	adcs.w	r0, r0, #0
10002678:	eb41 5102 	adc.w	r1, r1, r2, lsl #20
1000267c:	f041 4100 	orr.w	r1, r1, #2147483648	@ 0x80000000
10002680:	f240 73fe 	movw	r3, #2046	@ 0x7fe
10002684:	429a      	cmp	r2, r3
10002686:	bf38      	it	cc
10002688:	4770      	bxcc	lr
1000268a:	f04f 0100 	mov.w	r1, #0
1000268e:	bfa8      	it	ge
10002690:	f6c7 71f0 	movtge	r1, #32752	@ 0x7ff0
10002694:	f04f 0000 	mov.w	r0, #0
10002698:	4770      	bx	lr
1000269a:	2100      	movs	r1, #0
1000269c:	4770      	bx	lr
1000269e:	d3eb      	bcc.n	10002678 <fix642double+0x72>
100026a0:	f150 0000 	adcs.w	r0, r0, #0
100026a4:	f020 0001 	bic.w	r0, r0, #1
100026a8:	e7e6      	b.n	10002678 <fix642double+0x72>

100026aa <__wrap___aeabi_ul2d>:
100026aa:	2200      	movs	r2, #0

100026ac <ufix642double>:
100026ac:	b1b9      	cbz	r1, 100026de <ufix642double+0x32>
100026ae:	fab1 f381 	clz	r3, r1
100026b2:	3b0b      	subs	r3, #11
100026b4:	d416      	bmi.n	100026e4 <ufix642double+0x38>
100026b6:	f1d3 0c20 	rsbs	ip, r3, #32
100026ba:	fa30 fc0c 	lsrs.w	ip, r0, ip
100026be:	4098      	lsls	r0, r3
100026c0:	4099      	lsls	r1, r3
100026c2:	ea51 010c 	orrs.w	r1, r1, ip
100026c6:	441a      	add	r2, r3
100026c8:	4252      	negs	r2, r2
100026ca:	f202 4232 	addw	r2, r2, #1074	@ 0x432
100026ce:	eb01 5102 	add.w	r1, r1, r2, lsl #20
100026d2:	f240 73fe 	movw	r3, #2046	@ 0x7fe
100026d6:	429a      	cmp	r2, r3
100026d8:	bf38      	it	cc
100026da:	4770      	bxcc	lr
100026dc:	e020      	b.n	10002720 <ufix642double+0x74>
100026de:	4611      	mov	r1, r2
100026e0:	f000 b866 	b.w	100027b0 <ufix2double>
100026e4:	f103 0321 	add.w	r3, r3, #33	@ 0x21
100026e8:	fa10 fc03 	lsls.w	ip, r0, r3
100026ec:	f1a3 0301 	sub.w	r3, r3, #1
100026f0:	fa01 fc03 	lsl.w	ip, r1, r3
100026f4:	f1c3 0320 	rsb	r3, r3, #32
100026f8:	fa20 f003 	lsr.w	r0, r0, r3
100026fc:	fa21 f103 	lsr.w	r1, r1, r3
10002700:	ea40 000c 	orr.w	r0, r0, ip
10002704:	eba3 0202 	sub.w	r2, r3, r2
10002708:	f202 4232 	addw	r2, r2, #1074	@ 0x432
1000270c:	d012      	beq.n	10002734 <ufix642double+0x88>
1000270e:	f150 0000 	adcs.w	r0, r0, #0
10002712:	eb41 5102 	adc.w	r1, r1, r2, lsl #20
10002716:	f240 73fe 	movw	r3, #2046	@ 0x7fe
1000271a:	429a      	cmp	r2, r3
1000271c:	bf38      	it	cc
1000271e:	4770      	bxcc	lr
10002720:	f04f 0100 	mov.w	r1, #0
10002724:	bfa8      	it	ge
10002726:	f6c7 71f0 	movtge	r1, #32752	@ 0x7ff0
1000272a:	f04f 0000 	mov.w	r0, #0
1000272e:	4770      	bx	lr
10002730:	2100      	movs	r1, #0
10002732:	4770      	bx	lr
10002734:	d3ed      	bcc.n	10002712 <ufix642double+0x66>
10002736:	f150 0000 	adcs.w	r0, r0, #0
1000273a:	f020 0001 	bic.w	r0, r0, #1
1000273e:	e7e8      	b.n	10002712 <ufix642double+0x66>

10002740 <fix2double>:
10002740:	2800      	cmp	r0, #0
10002742:	f280 8035 	bge.w	100027b0 <ufix2double>
10002746:	4240      	negs	r0, r0

10002748 <fix2double_neg>:
10002748:	fab0 f380 	clz	r3, r0
1000274c:	3b0b      	subs	r3, #11
1000274e:	d411      	bmi.n	10002774 <fix2double_neg+0x2c>
10002750:	4098      	lsls	r0, r3
10002752:	eb01 0203 	add.w	r2, r1, r3
10002756:	4252      	negs	r2, r2
10002758:	f202 4212 	addw	r2, r2, #1042	@ 0x412
1000275c:	eb00 5102 	add.w	r1, r0, r2, lsl #20
10002760:	f041 4100 	orr.w	r1, r1, #2147483648	@ 0x80000000
10002764:	f04f 0000 	mov.w	r0, #0
10002768:	f240 73fe 	movw	r3, #2046	@ 0x7fe
1000276c:	429a      	cmp	r2, r3
1000276e:	bf38      	it	cc
10002770:	4770      	bxcc	lr
10002772:	e013      	b.n	1000279c <fix2double_neg+0x54>
10002774:	f1c3 0300 	rsb	r3, r3, #0
10002778:	fa30 fc03 	lsrs.w	ip, r0, r3
1000277c:	f1c3 0220 	rsb	r2, r3, #32
10002780:	4090      	lsls	r0, r2
10002782:	eba3 0201 	sub.w	r2, r3, r1
10002786:	f202 4212 	addw	r2, r2, #1042	@ 0x412
1000278a:	eb0c 5102 	add.w	r1, ip, r2, lsl #20
1000278e:	f041 4100 	orr.w	r1, r1, #2147483648	@ 0x80000000
10002792:	f240 73fe 	movw	r3, #2046	@ 0x7fe
10002796:	429a      	cmp	r2, r3
10002798:	bf38      	it	cc
1000279a:	4770      	bxcc	lr
1000279c:	f04f 4100 	mov.w	r1, #2147483648	@ 0x80000000
100027a0:	bfa8      	it	ge
100027a2:	f6cf 71f0 	movtge	r1, #65520	@ 0xfff0
100027a6:	f04f 0000 	mov.w	r0, #0
100027aa:	4770      	bx	lr
100027ac:	2100      	movs	r1, #0
100027ae:	4770      	bx	lr

100027b0 <ufix2double>:
100027b0:	b360      	cbz	r0, 1000280c <ufix2double+0x5c>
100027b2:	fab0 f380 	clz	r3, r0
100027b6:	3b0b      	subs	r3, #11
100027b8:	d40f      	bmi.n	100027da <ufix2double+0x2a>
100027ba:	4098      	lsls	r0, r3
100027bc:	eb01 0203 	add.w	r2, r1, r3
100027c0:	4252      	negs	r2, r2
100027c2:	f202 4212 	addw	r2, r2, #1042	@ 0x412
100027c6:	eb00 5102 	add.w	r1, r0, r2, lsl #20
100027ca:	f04f 0000 	mov.w	r0, #0
100027ce:	f240 73fe 	movw	r3, #2046	@ 0x7fe
100027d2:	429a      	cmp	r2, r3
100027d4:	bf38      	it	cc
100027d6:	4770      	bxcc	lr
100027d8:	e010      	b.n	100027fc <ufix2double+0x4c>
100027da:	425b      	negs	r3, r3
100027dc:	fa30 fc03 	lsrs.w	ip, r0, r3
100027e0:	f1c3 0220 	rsb	r2, r3, #32
100027e4:	4090      	lsls	r0, r2
100027e6:	eba3 0201 	sub.w	r2, r3, r1
100027ea:	f202 4212 	addw	r2, r2, #1042	@ 0x412
100027ee:	eb0c 5102 	add.w	r1, ip, r2, lsl #20
100027f2:	f240 73fe 	movw	r3, #2046	@ 0x7fe
100027f6:	429a      	cmp	r2, r3
100027f8:	bf38      	it	cc
100027fa:	4770      	bxcc	lr
100027fc:	f04f 0100 	mov.w	r1, #0
10002800:	bfa8      	it	ge
10002802:	f6c7 71f0 	movtge	r1, #32752	@ 0x7ff0
10002806:	f04f 0000 	mov.w	r0, #0
1000280a:	4770      	bx	lr
1000280c:	2100      	movs	r1, #0
1000280e:	4770      	bx	lr

10002810 <__wrap___aeabi_d2lz>:
10002810:	2200      	movs	r2, #0

10002812 <double2fix64_z>:
10002812:	f2a2 4232 	subw	r2, r2, #1074	@ 0x432
10002816:	ea5f 5c21 	movs.w	ip, r1, asr #20
1000281a:	f1ac 0301 	sub.w	r3, ip, #1
1000281e:	eba1 5103 	sub.w	r1, r1, r3, lsl #20
10002822:	055b      	lsls	r3, r3, #21
10002824:	f513 0f80 	cmn.w	r3, #4194304	@ 0x400000
10002828:	d232      	bcs.n	10002890 <double2fix64_z+0x7e>
1000282a:	eb12 5253 	adds.w	r2, r2, r3, lsr #21
1000282e:	d410      	bmi.n	10002852 <double2fix64_z+0x40>
10002830:	2a0b      	cmp	r2, #11
10002832:	da36      	bge.n	100028a2 <double2fix64_z+0x90>
10002834:	4091      	lsls	r1, r2
10002836:	f1d2 0320 	rsbs	r3, r2, #32
1000283a:	fa30 f303 	lsrs.w	r3, r0, r3
1000283e:	4319      	orrs	r1, r3
10002840:	4090      	lsls	r0, r2
10002842:	f1bc 0f00 	cmp.w	ip, #0
10002846:	bfa8      	it	ge
10002848:	4770      	bxge	lr
1000284a:	4240      	negs	r0, r0
1000284c:	eb61 0141 	sbc.w	r1, r1, r1, lsl #1
10002850:	4770      	bx	lr
10002852:	3220      	adds	r2, #32
10002854:	dd0e      	ble.n	10002874 <double2fix64_z+0x62>
10002856:	fa01 f302 	lsl.w	r3, r1, r2
1000285a:	f1d2 0220 	rsbs	r2, r2, #32
1000285e:	40d1      	lsrs	r1, r2
10002860:	40d0      	lsrs	r0, r2
10002862:	4318      	orrs	r0, r3
10002864:	f1bc 0f00 	cmp.w	ip, #0
10002868:	bfa8      	it	ge
1000286a:	4770      	bxge	lr
1000286c:	4240      	negs	r0, r0
1000286e:	eb61 0141 	sbc.w	r1, r1, r1, lsl #1
10002872:	4770      	bx	lr
10002874:	4252      	negs	r2, r2
10002876:	f382 0205 	usat	r2, #5, r2
1000287a:	fa31 f002 	lsrs.w	r0, r1, r2
1000287e:	2100      	movs	r1, #0
10002880:	f1bc 0f00 	cmp.w	ip, #0
10002884:	bfa8      	it	ge
10002886:	4770      	bxge	lr
10002888:	4240      	negs	r0, r0
1000288a:	eb61 0141 	sbc.w	r1, r1, r1, lsl #1
1000288e:	4770      	bx	lr
10002890:	d002      	beq.n	10002898 <double2fix64_z+0x86>
10002892:	2000      	movs	r0, #0
10002894:	2100      	movs	r1, #0
10002896:	4770      	bx	lr
10002898:	ea50 3101 	orrs.w	r1, r0, r1, lsl #12
1000289c:	bf18      	it	ne
1000289e:	f04f 0c00 	movne.w	ip, #0
100028a2:	f06f 4100 	mvn.w	r1, #2147483648	@ 0x80000000
100028a6:	eb01 71dc 	add.w	r1, r1, ip, lsr #31
100028aa:	ea6f 70ec 	mvn.w	r0, ip, asr #31
100028ae:	4770      	bx	lr

100028b0 <__wrap_malloc>:
100028b0:	b510      	push	{r4, lr}
100028b2:	4604      	mov	r4, r0
100028b4:	f004 f80a 	bl	100068cc <malloc>
100028b8:	b128      	cbz	r0, 100028c6 <__wrap_malloc+0x16>
100028ba:	4603      	mov	r3, r0
100028bc:	4a03      	ldr	r2, [pc, #12]	@ (100028cc <__wrap_malloc+0x1c>)
100028be:	4423      	add	r3, r4
100028c0:	4293      	cmp	r3, r2
100028c2:	d800      	bhi.n	100028c6 <__wrap_malloc+0x16>
100028c4:	bd10      	pop	{r4, pc}
100028c6:	4802      	ldr	r0, [pc, #8]	@ (100028d0 <__wrap_malloc+0x20>)
100028c8:	f7fe fbdc 	bl	10001084 <panic>
100028cc:	20080000 	.word	0x20080000
100028d0:	1000c7d8 	.word	0x1000c7d8

100028d4 <__wrap_realloc>:
100028d4:	b510      	push	{r4, lr}
100028d6:	460c      	mov	r4, r1
100028d8:	f004 fad0 	bl	10006e7c <realloc>
100028dc:	b128      	cbz	r0, 100028ea <__wrap_realloc+0x16>
100028de:	4603      	mov	r3, r0
100028e0:	4a03      	ldr	r2, [pc, #12]	@ (100028f0 <__wrap_realloc+0x1c>)
100028e2:	4423      	add	r3, r4
100028e4:	4293      	cmp	r3, r2
100028e6:	d800      	bhi.n	100028ea <__wrap_realloc+0x16>
100028e8:	bd10      	pop	{r4, pc}
100028ea:	4802      	ldr	r0, [pc, #8]	@ (100028f4 <__wrap_realloc+0x20>)
100028ec:	f7fe fbca 	bl	10001084 <panic>
100028f0:	20080000 	.word	0x20080000
100028f4:	1000c7d8 	.word	0x1000c7d8

100028f8 <__wrap_free>:
100028f8:	f003 bff0 	b.w	100068dc <free>

100028fc <_out_buffer>:
100028fc:	429a      	cmp	r2, r3
100028fe:	bf38      	it	cc
10002900:	5488      	strbcc	r0, [r1, r2]
10002902:	4770      	bx	lr

10002904 <_out_null>:
10002904:	4770      	bx	lr
10002906:	bf00      	nop

10002908 <_out_rev>:
10002908:	e92d 4ff0 	stmdb	sp!, {r4, r5, r6, r7, r8, r9, sl, fp, lr}
1000290c:	b083      	sub	sp, #12
1000290e:	4699      	mov	r9, r3
10002910:	e9dd ab0d 	ldrd	sl, fp, [sp, #52]	@ 0x34
10002914:	9b0f      	ldr	r3, [sp, #60]	@ 0x3c
10002916:	4688      	mov	r8, r1
10002918:	4611      	mov	r1, r2
1000291a:	079a      	lsls	r2, r3, #30
1000291c:	4607      	mov	r7, r0
1000291e:	d116      	bne.n	1000294e <_out_rev+0x46>
10002920:	45da      	cmp	sl, fp
10002922:	d23a      	bcs.n	1000299a <_out_rev+0x92>
10002924:	460c      	mov	r4, r1
10002926:	460d      	mov	r5, r1
10002928:	ebab 060a 	sub.w	r6, fp, sl
1000292c:	440e      	add	r6, r1
1000292e:	4622      	mov	r2, r4
10002930:	464b      	mov	r3, r9
10002932:	4641      	mov	r1, r8
10002934:	2020      	movs	r0, #32
10002936:	3401      	adds	r4, #1
10002938:	47b8      	blx	r7
1000293a:	42b4      	cmp	r4, r6
1000293c:	d1f7      	bne.n	1000292e <_out_rev+0x26>
1000293e:	4629      	mov	r1, r5
10002940:	f1ba 0f00 	cmp.w	sl, #0
10002944:	d108      	bne.n	10002958 <_out_rev+0x50>
10002946:	4620      	mov	r0, r4
10002948:	b003      	add	sp, #12
1000294a:	e8bd 8ff0 	ldmia.w	sp!, {r4, r5, r6, r7, r8, r9, sl, fp, pc}
1000294e:	460c      	mov	r4, r1
10002950:	f1ba 0f00 	cmp.w	sl, #0
10002954:	d010      	beq.n	10002978 <_out_rev+0x70>
10002956:	460e      	mov	r6, r1
10002958:	4655      	mov	r5, sl
1000295a:	9b0c      	ldr	r3, [sp, #48]	@ 0x30
1000295c:	442e      	add	r6, r5
1000295e:	449a      	add	sl, r3
10002960:	9101      	str	r1, [sp, #4]
10002962:	1b72      	subs	r2, r6, r5
10002964:	464b      	mov	r3, r9
10002966:	3d01      	subs	r5, #1
10002968:	4641      	mov	r1, r8
1000296a:	f81a 0d01 	ldrb.w	r0, [sl, #-1]!
1000296e:	4634      	mov	r4, r6
10002970:	47b8      	blx	r7
10002972:	2d00      	cmp	r5, #0
10002974:	d1f5      	bne.n	10002962 <_out_rev+0x5a>
10002976:	9901      	ldr	r1, [sp, #4]
10002978:	9b0f      	ldr	r3, [sp, #60]	@ 0x3c
1000297a:	079b      	lsls	r3, r3, #30
1000297c:	d5e3      	bpl.n	10002946 <_out_rev+0x3e>
1000297e:	1a65      	subs	r5, r4, r1
10002980:	45ab      	cmp	fp, r5
10002982:	d9e0      	bls.n	10002946 <_out_rev+0x3e>
10002984:	4622      	mov	r2, r4
10002986:	464b      	mov	r3, r9
10002988:	4641      	mov	r1, r8
1000298a:	2020      	movs	r0, #32
1000298c:	3501      	adds	r5, #1
1000298e:	47b8      	blx	r7
10002990:	455d      	cmp	r5, fp
10002992:	f104 0401 	add.w	r4, r4, #1
10002996:	d3f5      	bcc.n	10002984 <_out_rev+0x7c>
10002998:	e7d5      	b.n	10002946 <_out_rev+0x3e>
1000299a:	460c      	mov	r4, r1
1000299c:	f1ba 0f00 	cmp.w	sl, #0
100029a0:	d1d9      	bne.n	10002956 <_out_rev+0x4e>
100029a2:	e7d0      	b.n	10002946 <_out_rev+0x3e>

100029a4 <_ntoa_format>:
100029a4:	e92d 4ff0 	stmdb	sp!, {r4, r5, r6, r7, r8, r9, sl, fp, lr}
100029a8:	9f0f      	ldr	r7, [sp, #60]	@ 0x3c
100029aa:	f8dd 8024 	ldr.w	r8, [sp, #36]	@ 0x24
100029ae:	f017 0f02 	tst.w	r7, #2
100029b2:	9c0a      	ldr	r4, [sp, #40]	@ 0x28
100029b4:	f89d a02c 	ldrb.w	sl, [sp, #44]	@ 0x2c
100029b8:	9d0e      	ldr	r5, [sp, #56]	@ 0x38
100029ba:	e9dd 960c 	ldrd	r9, r6, [sp, #48]	@ 0x30
100029be:	d144      	bne.n	10002a4a <_ntoa_format+0xa6>
100029c0:	bbf5      	cbnz	r5, 10002a40 <_ntoa_format+0x9c>
100029c2:	42b4      	cmp	r4, r6
100029c4:	d241      	bcs.n	10002a4a <_ntoa_format+0xa6>
100029c6:	f007 0b01 	and.w	fp, r7, #1
100029ca:	f104 3cff 	add.w	ip, r4, #4294967295	@ 0xffffffff
100029ce:	f04f 0e30 	mov.w	lr, #48	@ 0x30
100029d2:	44c4      	add	ip, r8
100029d4:	e004      	b.n	100029e0 <_ntoa_format+0x3c>
100029d6:	3401      	adds	r4, #1
100029d8:	42a6      	cmp	r6, r4
100029da:	f80c ef01 	strb.w	lr, [ip, #1]!
100029de:	d901      	bls.n	100029e4 <_ntoa_format+0x40>
100029e0:	2c20      	cmp	r4, #32
100029e2:	d1f8      	bne.n	100029d6 <_ntoa_format+0x32>
100029e4:	f1bb 0f00 	cmp.w	fp, #0
100029e8:	f000 8088 	beq.w	10002afc <_ntoa_format+0x158>
100029ec:	42a5      	cmp	r5, r4
100029ee:	d92c      	bls.n	10002a4a <_ntoa_format+0xa6>
100029f0:	f104 3cff 	add.w	ip, r4, #4294967295	@ 0xffffffff
100029f4:	f04f 0e30 	mov.w	lr, #48	@ 0x30
100029f8:	44c4      	add	ip, r8
100029fa:	e004      	b.n	10002a06 <_ntoa_format+0x62>
100029fc:	3401      	adds	r4, #1
100029fe:	42ac      	cmp	r4, r5
10002a00:	f80c ef01 	strb.w	lr, [ip, #1]!
10002a04:	d021      	beq.n	10002a4a <_ntoa_format+0xa6>
10002a06:	2c20      	cmp	r4, #32
10002a08:	d1f8      	bne.n	100029fc <_ntoa_format+0x58>
10002a0a:	f017 0f10 	tst.w	r7, #16
10002a0e:	d00e      	beq.n	10002a2e <_ntoa_format+0x8a>
10002a10:	f417 6f80 	tst.w	r7, #1024	@ 0x400
10002a14:	d154      	bne.n	10002ac0 <_ntoa_format+0x11c>
10002a16:	42a6      	cmp	r6, r4
10002a18:	d063      	beq.n	10002ae2 <_ntoa_format+0x13e>
10002a1a:	42a5      	cmp	r5, r4
10002a1c:	d061      	beq.n	10002ae2 <_ntoa_format+0x13e>
10002a1e:	f1b9 0f10 	cmp.w	r9, #16
10002a22:	d050      	beq.n	10002ac6 <_ntoa_format+0x122>
10002a24:	f1b9 0f02 	cmp.w	r9, #2
10002a28:	d056      	beq.n	10002ad8 <_ntoa_format+0x134>
10002a2a:	2c20      	cmp	r4, #32
10002a2c:	d129      	bne.n	10002a82 <_ntoa_format+0xde>
10002a2e:	2420      	movs	r4, #32
10002a30:	e9cd 570b 	strd	r5, r7, [sp, #44]	@ 0x2c
10002a34:	e9cd 8409 	strd	r8, r4, [sp, #36]	@ 0x24
10002a38:	e8bd 4ff0 	ldmia.w	sp!, {r4, r5, r6, r7, r8, r9, sl, fp, lr}
10002a3c:	f7ff bf64 	b.w	10002908 <_out_rev>
10002a40:	f017 0b01 	ands.w	fp, r7, #1
10002a44:	d134      	bne.n	10002ab0 <_ntoa_format+0x10c>
10002a46:	42b4      	cmp	r4, r6
10002a48:	d3bf      	bcc.n	100029ca <_ntoa_format+0x26>
10002a4a:	f017 0f10 	tst.w	r7, #16
10002a4e:	d01e      	beq.n	10002a8e <_ntoa_format+0xea>
10002a50:	f417 6f80 	tst.w	r7, #1024	@ 0x400
10002a54:	d1e3      	bne.n	10002a1e <_ntoa_format+0x7a>
10002a56:	2c00      	cmp	r4, #0
10002a58:	d1dd      	bne.n	10002a16 <_ntoa_format+0x72>
10002a5a:	f1b9 0f10 	cmp.w	r9, #16
10002a5e:	d063      	beq.n	10002b28 <_ntoa_format+0x184>
10002a60:	f1b9 0f02 	cmp.w	r9, #2
10002a64:	d077      	beq.n	10002b56 <_ntoa_format+0x1b2>
10002a66:	2430      	movs	r4, #48	@ 0x30
10002a68:	f888 4000 	strb.w	r4, [r8]
10002a6c:	2401      	movs	r4, #1
10002a6e:	f1ba 0f00 	cmp.w	sl, #0
10002a72:	d111      	bne.n	10002a98 <_ntoa_format+0xf4>
10002a74:	077e      	lsls	r6, r7, #29
10002a76:	d548      	bpl.n	10002b0a <_ntoa_format+0x166>
10002a78:	262b      	movs	r6, #43	@ 0x2b
10002a7a:	f808 6004 	strb.w	r6, [r8, r4]
10002a7e:	3401      	adds	r4, #1
10002a80:	e7d6      	b.n	10002a30 <_ntoa_format+0x8c>
10002a82:	4626      	mov	r6, r4
10002a84:	3401      	adds	r4, #1
10002a86:	f04f 0c30 	mov.w	ip, #48	@ 0x30
10002a8a:	f808 c006 	strb.w	ip, [r8, r6]
10002a8e:	2c20      	cmp	r4, #32
10002a90:	d0cd      	beq.n	10002a2e <_ntoa_format+0x8a>
10002a92:	f1ba 0f00 	cmp.w	sl, #0
10002a96:	d0ed      	beq.n	10002a74 <_ntoa_format+0xd0>
10002a98:	262d      	movs	r6, #45	@ 0x2d
10002a9a:	f808 6004 	strb.w	r6, [r8, r4]
10002a9e:	3401      	adds	r4, #1
10002aa0:	e9cd 570b 	strd	r5, r7, [sp, #44]	@ 0x2c
10002aa4:	e9cd 8409 	strd	r8, r4, [sp, #36]	@ 0x24
10002aa8:	e8bd 4ff0 	ldmia.w	sp!, {r4, r5, r6, r7, r8, r9, sl, fp, lr}
10002aac:	f7ff bf2c 	b.w	10002908 <_out_rev>
10002ab0:	f1ba 0f00 	cmp.w	sl, #0
10002ab4:	d030      	beq.n	10002b18 <_ntoa_format+0x174>
10002ab6:	42b4      	cmp	r4, r6
10002ab8:	f105 35ff 	add.w	r5, r5, #4294967295	@ 0xffffffff
10002abc:	d385      	bcc.n	100029ca <_ntoa_format+0x26>
10002abe:	e795      	b.n	100029ec <_ntoa_format+0x48>
10002ac0:	f1b9 0f10 	cmp.w	r9, #16
10002ac4:	d1b3      	bne.n	10002a2e <_ntoa_format+0x8a>
10002ac6:	06be      	lsls	r6, r7, #26
10002ac8:	d53b      	bpl.n	10002b42 <_ntoa_format+0x19e>
10002aca:	2c20      	cmp	r4, #32
10002acc:	d0af      	beq.n	10002a2e <_ntoa_format+0x8a>
10002ace:	2658      	movs	r6, #88	@ 0x58
10002ad0:	f808 6004 	strb.w	r6, [r8, r4]
10002ad4:	3401      	adds	r4, #1
10002ad6:	e7a8      	b.n	10002a2a <_ntoa_format+0x86>
10002ad8:	2c20      	cmp	r4, #32
10002ada:	d0a8      	beq.n	10002a2e <_ntoa_format+0x8a>
10002adc:	4626      	mov	r6, r4
10002ade:	3401      	adds	r4, #1
10002ae0:	e007      	b.n	10002af2 <_ntoa_format+0x14e>
10002ae2:	1e66      	subs	r6, r4, #1
10002ae4:	d0b9      	beq.n	10002a5a <_ntoa_format+0xb6>
10002ae6:	f1b9 0f10 	cmp.w	r9, #16
10002aea:	d036      	beq.n	10002b5a <_ntoa_format+0x1b6>
10002aec:	f1b9 0f02 	cmp.w	r9, #2
10002af0:	d1c9      	bne.n	10002a86 <_ntoa_format+0xe2>
10002af2:	f04f 0c62 	mov.w	ip, #98	@ 0x62
10002af6:	f808 c006 	strb.w	ip, [r8, r6]
10002afa:	e796      	b.n	10002a2a <_ntoa_format+0x86>
10002afc:	f017 0f10 	tst.w	r7, #16
10002b00:	d0c5      	beq.n	10002a8e <_ntoa_format+0xea>
10002b02:	f417 6f80 	tst.w	r7, #1024	@ 0x400
10002b06:	d086      	beq.n	10002a16 <_ntoa_format+0x72>
10002b08:	e789      	b.n	10002a1e <_ntoa_format+0x7a>
10002b0a:	073e      	lsls	r6, r7, #28
10002b0c:	d590      	bpl.n	10002a30 <_ntoa_format+0x8c>
10002b0e:	2620      	movs	r6, #32
10002b10:	f808 6004 	strb.w	r6, [r8, r4]
10002b14:	3401      	adds	r4, #1
10002b16:	e78b      	b.n	10002a30 <_ntoa_format+0x8c>
10002b18:	f017 0f0c 	tst.w	r7, #12
10002b1c:	d000      	beq.n	10002b20 <_ntoa_format+0x17c>
10002b1e:	3d01      	subs	r5, #1
10002b20:	42b4      	cmp	r4, r6
10002b22:	f4ff af52 	bcc.w	100029ca <_ntoa_format+0x26>
10002b26:	e761      	b.n	100029ec <_ntoa_format+0x48>
10002b28:	06bc      	lsls	r4, r7, #26
10002b2a:	d412      	bmi.n	10002b52 <_ntoa_format+0x1ae>
10002b2c:	2478      	movs	r4, #120	@ 0x78
10002b2e:	f888 4000 	strb.w	r4, [r8]
10002b32:	2430      	movs	r4, #48	@ 0x30
10002b34:	f888 4001 	strb.w	r4, [r8, #1]
10002b38:	2402      	movs	r4, #2
10002b3a:	f1ba 0f00 	cmp.w	sl, #0
10002b3e:	d099      	beq.n	10002a74 <_ntoa_format+0xd0>
10002b40:	e7aa      	b.n	10002a98 <_ntoa_format+0xf4>
10002b42:	2c20      	cmp	r4, #32
10002b44:	f43f af73 	beq.w	10002a2e <_ntoa_format+0x8a>
10002b48:	2678      	movs	r6, #120	@ 0x78
10002b4a:	f808 6004 	strb.w	r6, [r8, r4]
10002b4e:	3401      	adds	r4, #1
10002b50:	e76b      	b.n	10002a2a <_ntoa_format+0x86>
10002b52:	2458      	movs	r4, #88	@ 0x58
10002b54:	e7eb      	b.n	10002b2e <_ntoa_format+0x18a>
10002b56:	2462      	movs	r4, #98	@ 0x62
10002b58:	e7e9      	b.n	10002b2e <_ntoa_format+0x18a>
10002b5a:	f017 0f20 	tst.w	r7, #32
10002b5e:	f1a4 0c02 	sub.w	ip, r4, #2
10002b62:	d004      	beq.n	10002b6e <_ntoa_format+0x1ca>
10002b64:	f04f 0e58 	mov.w	lr, #88	@ 0x58
10002b68:	f808 e00c 	strb.w	lr, [r8, ip]
10002b6c:	e78b      	b.n	10002a86 <_ntoa_format+0xe2>
10002b6e:	f04f 0e78 	mov.w	lr, #120	@ 0x78
10002b72:	f808 e00c 	strb.w	lr, [r8, ip]
10002b76:	e786      	b.n	10002a86 <_ntoa_format+0xe2>

10002b78 <_ntoa_long>:
10002b78:	e92d 4ff0 	stmdb	sp!, {r4, r5, r6, r7, r8, r9, sl, fp, lr}
10002b7c:	b093      	sub	sp, #76	@ 0x4c
10002b7e:	9c1c      	ldr	r4, [sp, #112]	@ 0x70
10002b80:	f89d b074 	ldrb.w	fp, [sp, #116]	@ 0x74
10002b84:	9d1e      	ldr	r5, [sp, #120]	@ 0x78
10002b86:	f8dd e084 	ldr.w	lr, [sp, #132]	@ 0x84
10002b8a:	b92c      	cbnz	r4, 10002b98 <_ntoa_long+0x20>
10002b8c:	f02e 0610 	bic.w	r6, lr, #16
10002b90:	f41e 6f80 	tst.w	lr, #1024	@ 0x400
10002b94:	46b6      	mov	lr, r6
10002b96:	d135      	bne.n	10002c04 <_ntoa_long+0x8c>
10002b98:	f01e 0f20 	tst.w	lr, #32
10002b9c:	bf14      	ite	ne
10002b9e:	f04f 0941 	movne.w	r9, #65	@ 0x41
10002ba2:	f04f 0961 	moveq.w	r9, #97	@ 0x61
10002ba6:	af0a      	add	r7, sp, #40	@ 0x28
10002ba8:	46b8      	mov	r8, r7
10002baa:	2600      	movs	r6, #0
10002bac:	f1a9 090a 	sub.w	r9, r9, #10
10002bb0:	9009      	str	r0, [sp, #36]	@ 0x24
10002bb2:	e002      	b.n	10002bba <_ntoa_long+0x42>
10002bb4:	2e20      	cmp	r6, #32
10002bb6:	d015      	beq.n	10002be4 <_ntoa_long+0x6c>
10002bb8:	4654      	mov	r4, sl
10002bba:	fbb4 faf5 	udiv	sl, r4, r5
10002bbe:	fb05 4c1a 	mls	ip, r5, sl, r4
10002bc2:	fa5f f08c 	uxtb.w	r0, ip
10002bc6:	f1bc 0f09 	cmp.w	ip, #9
10002bca:	f100 0c30 	add.w	ip, r0, #48	@ 0x30
10002bce:	bf8a      	itet	hi
10002bd0:	4448      	addhi	r0, r9
10002bd2:	fa5f f08c 	uxtbls.w	r0, ip
10002bd6:	b2c0      	uxtbhi	r0, r0
10002bd8:	42ac      	cmp	r4, r5
10002bda:	f808 0b01 	strb.w	r0, [r8], #1
10002bde:	f106 0601 	add.w	r6, r6, #1
10002be2:	d2e7      	bcs.n	10002bb4 <_ntoa_long+0x3c>
10002be4:	9809      	ldr	r0, [sp, #36]	@ 0x24
10002be6:	9c20      	ldr	r4, [sp, #128]	@ 0x80
10002be8:	e9cd 6b01 	strd	r6, fp, [sp, #4]
10002bec:	9405      	str	r4, [sp, #20]
10002bee:	9c1f      	ldr	r4, [sp, #124]	@ 0x7c
10002bf0:	f8cd e018 	str.w	lr, [sp, #24]
10002bf4:	e9cd 5403 	strd	r5, r4, [sp, #12]
10002bf8:	9700      	str	r7, [sp, #0]
10002bfa:	f7ff fed3 	bl	100029a4 <_ntoa_format>
10002bfe:	b013      	add	sp, #76	@ 0x4c
10002c00:	e8bd 8ff0 	ldmia.w	sp!, {r4, r5, r6, r7, r8, r9, sl, fp, pc}
10002c04:	4626      	mov	r6, r4
10002c06:	af0a      	add	r7, sp, #40	@ 0x28
10002c08:	e7ed      	b.n	10002be6 <_ntoa_long+0x6e>
10002c0a:	bf00      	nop

10002c0c <_ntoa_long_long>:
10002c0c:	e92d 4ff0 	stmdb	sp!, {r4, r5, r6, r7, r8, r9, sl, fp, lr}
10002c10:	b097      	sub	sp, #92	@ 0x5c
10002c12:	468e      	mov	lr, r1
10002c14:	e9dd 6420 	ldrd	r6, r4, [sp, #128]	@ 0x80
10002c18:	e9dd 7824 	ldrd	r7, r8, [sp, #144]	@ 0x90
10002c1c:	ea56 0104 	orrs.w	r1, r6, r4
10002c20:	f89d c088 	ldrb.w	ip, [sp, #136]	@ 0x88
10002c24:	d106      	bne.n	10002c34 <_ntoa_long_long+0x28>
10002c26:	9928      	ldr	r1, [sp, #160]	@ 0xa0
10002c28:	9d28      	ldr	r5, [sp, #160]	@ 0xa0
10002c2a:	f021 0110 	bic.w	r1, r1, #16
10002c2e:	9128      	str	r1, [sp, #160]	@ 0xa0
10002c30:	0569      	lsls	r1, r5, #21
10002c32:	d445      	bmi.n	10002cc0 <_ntoa_long_long+0xb4>
10002c34:	9928      	ldr	r1, [sp, #160]	@ 0xa0
10002c36:	f10d 0b38 	add.w	fp, sp, #56	@ 0x38
10002c3a:	f011 0f20 	tst.w	r1, #32
10002c3e:	bf14      	ite	ne
10002c40:	f04f 0a41 	movne.w	sl, #65	@ 0x41
10002c44:	f04f 0a61 	moveq.w	sl, #97	@ 0x61
10002c48:	46d9      	mov	r9, fp
10002c4a:	2500      	movs	r5, #0
10002c4c:	e9cd 0e09 	strd	r0, lr, [sp, #36]	@ 0x24
10002c50:	e9cd 230b 	strd	r2, r3, [sp, #44]	@ 0x2c
10002c54:	f1aa 0a0a 	sub.w	sl, sl, #10
10002c58:	f8cd c034 	str.w	ip, [sp, #52]	@ 0x34
10002c5c:	e003      	b.n	10002c66 <_ntoa_long_long+0x5a>
10002c5e:	2d20      	cmp	r5, #32
10002c60:	d017      	beq.n	10002c92 <_ntoa_long_long+0x86>
10002c62:	4606      	mov	r6, r0
10002c64:	460c      	mov	r4, r1
10002c66:	4621      	mov	r1, r4
10002c68:	463a      	mov	r2, r7
10002c6a:	4643      	mov	r3, r8
10002c6c:	4630      	mov	r0, r6
10002c6e:	f009 fa67 	bl	1000c140 <____aeabi_uldivmod_veneer>
10002c72:	b2d2      	uxtb	r2, r2
10002c74:	2a09      	cmp	r2, #9
10002c76:	f102 0330 	add.w	r3, r2, #48	@ 0x30
10002c7a:	bf8a      	itet	hi
10002c7c:	4452      	addhi	r2, sl
10002c7e:	b2da      	uxtbls	r2, r3
10002c80:	b2d2      	uxtbhi	r2, r2
10002c82:	42be      	cmp	r6, r7
10002c84:	eb74 0408 	sbcs.w	r4, r4, r8
10002c88:	f809 2b01 	strb.w	r2, [r9], #1
10002c8c:	f105 0501 	add.w	r5, r5, #1
10002c90:	d2e5      	bcs.n	10002c5e <_ntoa_long_long+0x52>
10002c92:	f8dd c034 	ldr.w	ip, [sp, #52]	@ 0x34
10002c96:	e9dd 0e09 	ldrd	r0, lr, [sp, #36]	@ 0x24
10002c9a:	e9dd 230b 	ldrd	r2, r3, [sp, #44]	@ 0x2c
10002c9e:	9928      	ldr	r1, [sp, #160]	@ 0xa0
10002ca0:	e9cd 5c01 	strd	r5, ip, [sp, #4]
10002ca4:	9106      	str	r1, [sp, #24]
10002ca6:	9927      	ldr	r1, [sp, #156]	@ 0x9c
10002ca8:	f8cd b000 	str.w	fp, [sp]
10002cac:	9105      	str	r1, [sp, #20]
10002cae:	9926      	ldr	r1, [sp, #152]	@ 0x98
10002cb0:	e9cd 7103 	strd	r7, r1, [sp, #12]
10002cb4:	4671      	mov	r1, lr
10002cb6:	f7ff fe75 	bl	100029a4 <_ntoa_format>
10002cba:	b017      	add	sp, #92	@ 0x5c
10002cbc:	e8bd 8ff0 	ldmia.w	sp!, {r4, r5, r6, r7, r8, r9, sl, fp, pc}
10002cc0:	2500      	movs	r5, #0
10002cc2:	f10d 0b38 	add.w	fp, sp, #56	@ 0x38
10002cc6:	e7ea      	b.n	10002c9e <_ntoa_long_long+0x92>

10002cc8 <_etoa>:
10002cc8:	e92d 4ff0 	stmdb	sp!, {r4, r5, r6, r7, r8, r9, sl, fp, lr}
10002ccc:	b095      	sub	sp, #84	@ 0x54
10002cce:	9c20      	ldr	r4, [sp, #128]	@ 0x80
10002cd0:	e9dd ab1e 	ldrd	sl, fp, [sp, #120]	@ 0x78
10002cd4:	9408      	str	r4, [sp, #32]
10002cd6:	9c21      	ldr	r4, [sp, #132]	@ 0x84
10002cd8:	460d      	mov	r5, r1
10002cda:	461e      	mov	r6, r3
10002cdc:	9009      	str	r0, [sp, #36]	@ 0x24
10002cde:	920b      	str	r2, [sp, #44]	@ 0x2c
10002ce0:	465b      	mov	r3, fp
10002ce2:	4652      	mov	r2, sl
10002ce4:	4650      	mov	r0, sl
10002ce6:	4659      	mov	r1, fp
10002ce8:	9f22      	ldr	r7, [sp, #136]	@ 0x88
10002cea:	940a      	str	r4, [sp, #40]	@ 0x28
10002cec:	f7ff fc1a 	bl	10002524 <__wrap___aeabi_dcmpun>
10002cf0:	2800      	cmp	r0, #0
10002cf2:	f040 8097 	bne.w	10002e24 <_etoa+0x15c>
10002cf6:	4650      	mov	r0, sl
10002cf8:	4659      	mov	r1, fp
10002cfa:	f04f 32ff 	mov.w	r2, #4294967295	@ 0xffffffff
10002cfe:	4b66      	ldr	r3, [pc, #408]	@ (10002e98 <_etoa+0x1d0>)
10002d00:	f7ff fc70 	bl	100025e4 <__wrap___aeabi_dcmpgt>
10002d04:	2800      	cmp	r0, #0
10002d06:	f040 808d 	bne.w	10002e24 <_etoa+0x15c>
10002d0a:	4650      	mov	r0, sl
10002d0c:	4659      	mov	r1, fp
10002d0e:	f04f 32ff 	mov.w	r2, #4294967295	@ 0xffffffff
10002d12:	f46f 1380 	mvn.w	r3, #1048576	@ 0x100000
10002d16:	f7ff fc29 	bl	1000256c <__wrap___aeabi_dcmplt>
10002d1a:	2800      	cmp	r0, #0
10002d1c:	f040 8082 	bne.w	10002e24 <_etoa+0x15c>
10002d20:	4650      	mov	r0, sl
10002d22:	4659      	mov	r1, fp
10002d24:	2200      	movs	r2, #0
10002d26:	2300      	movs	r3, #0
10002d28:	f7ff fc20 	bl	1000256c <__wrap___aeabi_dcmplt>
10002d2c:	2800      	cmp	r0, #0
10002d2e:	f040 8188 	bne.w	10003042 <_etoa+0x37a>
10002d32:	e9cd ab06 	strd	sl, fp, [sp, #24]
10002d36:	e9dd 3406 	ldrd	r3, r4, [sp, #24]
10002d3a:	f407 6200 	and.w	r2, r7, #2048	@ 0x800
10002d3e:	4699      	mov	r9, r3
10002d40:	f417 6380 	ands.w	r3, r7, #1024	@ 0x400
10002d44:	46a0      	mov	r8, r4
10002d46:	9212      	str	r2, [sp, #72]	@ 0x48
10002d48:	9313      	str	r3, [sp, #76]	@ 0x4c
10002d4a:	d17b      	bne.n	10002e44 <_etoa+0x17c>
10002d4c:	ea59 0304 	orrs.w	r3, r9, r4
10002d50:	f040 80a4 	bne.w	10002e9c <_etoa+0x1d4>
10002d54:	2a00      	cmp	r2, #0
10002d56:	f040 818e 	bne.w	10003076 <_etoa+0x3ae>
10002d5a:	2306      	movs	r3, #6
10002d5c:	9308      	str	r3, [sp, #32]
10002d5e:	f017 0202 	ands.w	r2, r7, #2
10002d62:	920e      	str	r2, [sp, #56]	@ 0x38
10002d64:	f040 818a 	bne.w	1000307c <_etoa+0x3b4>
10002d68:	9b0a      	ldr	r3, [sp, #40]	@ 0x28
10002d6a:	2104      	movs	r1, #4
10002d6c:	2b04      	cmp	r3, #4
10002d6e:	bf38      	it	cc
10002d70:	2304      	movcc	r3, #4
10002d72:	3b04      	subs	r3, #4
10002d74:	9110      	str	r1, [sp, #64]	@ 0x40
10002d76:	920c      	str	r2, [sp, #48]	@ 0x30
10002d78:	9312      	str	r3, [sp, #72]	@ 0x48
10002d7a:	4650      	mov	r0, sl
10002d7c:	4659      	mov	r1, fp
10002d7e:	2200      	movs	r2, #0
10002d80:	2300      	movs	r3, #0
10002d82:	f7ff fbf3 	bl	1000256c <__wrap___aeabi_dcmplt>
10002d86:	2800      	cmp	r0, #0
10002d88:	f040 81c9 	bne.w	1000311e <_etoa+0x456>
10002d8c:	ed9d 7b06 	vldr	d7, [sp, #24]
10002d90:	9b12      	ldr	r3, [sp, #72]	@ 0x48
10002d92:	9a0b      	ldr	r2, [sp, #44]	@ 0x2c
10002d94:	9303      	str	r3, [sp, #12]
10002d96:	9b08      	ldr	r3, [sp, #32]
10002d98:	ed8d 7b00 	vstr	d7, [sp]
10002d9c:	9302      	str	r3, [sp, #8]
10002d9e:	f427 6300 	bic.w	r3, r7, #2048	@ 0x800
10002da2:	9304      	str	r3, [sp, #16]
10002da4:	4629      	mov	r1, r5
10002da6:	4633      	mov	r3, r6
10002da8:	9809      	ldr	r0, [sp, #36]	@ 0x24
10002daa:	f000 fa21 	bl	100031f0 <_ftoa>
10002dae:	4602      	mov	r2, r0
10002db0:	f017 0f20 	tst.w	r7, #32
10002db4:	bf0c      	ite	eq
10002db6:	2065      	moveq	r0, #101	@ 0x65
10002db8:	2045      	movne	r0, #69	@ 0x45
10002dba:	4633      	mov	r3, r6
10002dbc:	4629      	mov	r1, r5
10002dbe:	9c09      	ldr	r4, [sp, #36]	@ 0x24
10002dc0:	1c57      	adds	r7, r2, #1
10002dc2:	47a0      	blx	r4
10002dc4:	2305      	movs	r3, #5
10002dc6:	9305      	str	r3, [sp, #20]
10002dc8:	9b10      	ldr	r3, [sp, #64]	@ 0x40
10002dca:	2000      	movs	r0, #0
10002dcc:	3b01      	subs	r3, #1
10002dce:	9304      	str	r3, [sp, #16]
10002dd0:	230a      	movs	r3, #10
10002dd2:	990c      	ldr	r1, [sp, #48]	@ 0x30
10002dd4:	e9cd 3002 	strd	r3, r0, [sp, #8]
10002dd8:	ea81 73e1 	eor.w	r3, r1, r1, asr #31
10002ddc:	eba3 73e1 	sub.w	r3, r3, r1, asr #31
10002de0:	0fc9      	lsrs	r1, r1, #31
10002de2:	e9cd 3100 	strd	r3, r1, [sp]
10002de6:	463a      	mov	r2, r7
10002de8:	4633      	mov	r3, r6
10002dea:	4629      	mov	r1, r5
10002dec:	4620      	mov	r0, r4
10002dee:	f7ff fec3 	bl	10002b78 <_ntoa_long>
10002df2:	9b0e      	ldr	r3, [sp, #56]	@ 0x38
10002df4:	4607      	mov	r7, r0
10002df6:	b18b      	cbz	r3, 10002e1c <_etoa+0x154>
10002df8:	9b0b      	ldr	r3, [sp, #44]	@ 0x2c
10002dfa:	eba0 0803 	sub.w	r8, r0, r3
10002dfe:	9b0a      	ldr	r3, [sp, #40]	@ 0x28
10002e00:	4543      	cmp	r3, r8
10002e02:	d90b      	bls.n	10002e1c <_etoa+0x154>
10002e04:	4699      	mov	r9, r3
10002e06:	463a      	mov	r2, r7
10002e08:	4633      	mov	r3, r6
10002e0a:	4629      	mov	r1, r5
10002e0c:	2020      	movs	r0, #32
10002e0e:	f108 0801 	add.w	r8, r8, #1
10002e12:	47a0      	blx	r4
10002e14:	45c1      	cmp	r9, r8
10002e16:	f107 0701 	add.w	r7, r7, #1
10002e1a:	d8f4      	bhi.n	10002e06 <_etoa+0x13e>
10002e1c:	4638      	mov	r0, r7
10002e1e:	b015      	add	sp, #84	@ 0x54
10002e20:	e8bd 8ff0 	ldmia.w	sp!, {r4, r5, r6, r7, r8, r9, sl, fp, pc}
10002e24:	9b0a      	ldr	r3, [sp, #40]	@ 0x28
10002e26:	4629      	mov	r1, r5
10002e28:	e9dd 4008 	ldrd	r4, r0, [sp, #32]
10002e2c:	9321      	str	r3, [sp, #132]	@ 0x84
10002e2e:	4633      	mov	r3, r6
10002e30:	e9cd ab1e 	strd	sl, fp, [sp, #120]	@ 0x78
10002e34:	9a0b      	ldr	r2, [sp, #44]	@ 0x2c
10002e36:	9722      	str	r7, [sp, #136]	@ 0x88
10002e38:	9420      	str	r4, [sp, #128]	@ 0x80
10002e3a:	b015      	add	sp, #84	@ 0x54
10002e3c:	e8bd 4ff0 	ldmia.w	sp!, {r4, r5, r6, r7, r8, r9, sl, fp, lr}
10002e40:	f000 b9d6 	b.w	100031f0 <_ftoa>
10002e44:	ea59 0304 	orrs.w	r3, r9, r4
10002e48:	d12a      	bne.n	10002ea0 <_etoa+0x1d8>
10002e4a:	9b12      	ldr	r3, [sp, #72]	@ 0x48
10002e4c:	2b00      	cmp	r3, #0
10002e4e:	d086      	beq.n	10002d5e <_etoa+0x96>
10002e50:	2300      	movs	r3, #0
10002e52:	930c      	str	r3, [sp, #48]	@ 0x30
10002e54:	9b08      	ldr	r3, [sp, #32]
10002e56:	9a0c      	ldr	r2, [sp, #48]	@ 0x30
10002e58:	4293      	cmp	r3, r2
10002e5a:	f300 81ba 	bgt.w	100031d2 <_etoa+0x50a>
10002e5e:	f04f 0800 	mov.w	r8, #0
10002e62:	4650      	mov	r0, sl
10002e64:	4659      	mov	r1, fp
10002e66:	2200      	movs	r2, #0
10002e68:	2300      	movs	r3, #0
10002e6a:	f7ff fb7f 	bl	1000256c <__wrap___aeabi_dcmplt>
10002e6e:	2800      	cmp	r0, #0
10002e70:	f040 80ed 	bne.w	1000304e <_etoa+0x386>
10002e74:	ed9d 7b06 	vldr	d7, [sp, #24]
10002e78:	9b0a      	ldr	r3, [sp, #40]	@ 0x28
10002e7a:	ed8d 7b1e 	vstr	d7, [sp, #120]	@ 0x78
10002e7e:	e9cd 8320 	strd	r8, r3, [sp, #128]	@ 0x80
10002e82:	f427 6300 	bic.w	r3, r7, #2048	@ 0x800
10002e86:	f443 6380 	orr.w	r3, r3, #1024	@ 0x400
10002e8a:	9322      	str	r3, [sp, #136]	@ 0x88
10002e8c:	4629      	mov	r1, r5
10002e8e:	4633      	mov	r3, r6
10002e90:	9a0b      	ldr	r2, [sp, #44]	@ 0x2c
10002e92:	9809      	ldr	r0, [sp, #36]	@ 0x24
10002e94:	e7d1      	b.n	10002e3a <_etoa+0x172>
10002e96:	bf00      	nop
10002e98:	7fefffff 	.word	0x7fefffff
10002e9c:	2306      	movs	r3, #6
10002e9e:	9308      	str	r3, [sp, #32]
10002ea0:	f3c8 500a 	ubfx	r0, r8, #20, #11
10002ea4:	f2a0 30ff 	subw	r0, r0, #1023	@ 0x3ff
10002ea8:	f7ff faf4 	bl	10002494 <__wrap___aeabi_i2d>
10002eac:	a3c0      	add	r3, pc, #768	@ (adr r3, 100031b0 <_etoa+0x4e8>)
10002eae:	e9d3 2300 	ldrd	r2, r3, [r3]
10002eb2:	f7ff fa6d 	bl	10002390 <__wrap___aeabi_dmul>
10002eb6:	a3c0      	add	r3, pc, #768	@ (adr r3, 100031b8 <_etoa+0x4f0>)
10002eb8:	e9d3 2300 	ldrd	r2, r3, [r3]
10002ebc:	f7ff fa40 	bl	10002340 <__wrap___aeabi_dadd>
10002ec0:	f3c8 0313 	ubfx	r3, r8, #0, #20
10002ec4:	e9cd 010c 	strd	r0, r1, [sp, #48]	@ 0x30
10002ec8:	f043 517f 	orr.w	r1, r3, #1069547520	@ 0x3fc00000
10002ecc:	4648      	mov	r0, r9
10002ece:	2200      	movs	r2, #0
10002ed0:	4bb1      	ldr	r3, [pc, #708]	@ (10003198 <_etoa+0x4d0>)
10002ed2:	f441 1140 	orr.w	r1, r1, #3145728	@ 0x300000
10002ed6:	f7ff fa47 	bl	10002368 <__wrap___aeabi_dsub>
10002eda:	a3a3      	add	r3, pc, #652	@ (adr r3, 10003168 <_etoa+0x4a0>)
10002edc:	e9d3 2300 	ldrd	r2, r3, [r3]
10002ee0:	f7ff fa56 	bl	10002390 <__wrap___aeabi_dmul>
10002ee4:	4602      	mov	r2, r0
10002ee6:	460b      	mov	r3, r1
10002ee8:	e9dd 010c 	ldrd	r0, r1, [sp, #48]	@ 0x30
10002eec:	f7ff fa28 	bl	10002340 <__wrap___aeabi_dadd>
10002ef0:	f7ff faf4 	bl	100024dc <__wrap___aeabi_d2iz>
10002ef4:	900c      	str	r0, [sp, #48]	@ 0x30
10002ef6:	f7ff facd 	bl	10002494 <__wrap___aeabi_i2d>
10002efa:	a39d      	add	r3, pc, #628	@ (adr r3, 10003170 <_etoa+0x4a8>)
10002efc:	e9d3 2300 	ldrd	r2, r3, [r3]
10002f00:	4680      	mov	r8, r0
10002f02:	4689      	mov	r9, r1
10002f04:	f7ff fa44 	bl	10002390 <__wrap___aeabi_dmul>
10002f08:	2200      	movs	r2, #0
10002f0a:	4ba4      	ldr	r3, [pc, #656]	@ (1000319c <_etoa+0x4d4>)
10002f0c:	f7ff fa18 	bl	10002340 <__wrap___aeabi_dadd>
10002f10:	f7ff fae4 	bl	100024dc <__wrap___aeabi_d2iz>
10002f14:	4603      	mov	r3, r0
10002f16:	4649      	mov	r1, r9
10002f18:	461c      	mov	r4, r3
10002f1a:	a397      	add	r3, pc, #604	@ (adr r3, 10003178 <_etoa+0x4b0>)
10002f1c:	e9d3 2300 	ldrd	r2, r3, [r3]
10002f20:	4640      	mov	r0, r8
10002f22:	f7ff fa35 	bl	10002390 <__wrap___aeabi_dmul>
10002f26:	4680      	mov	r8, r0
10002f28:	4620      	mov	r0, r4
10002f2a:	4689      	mov	r9, r1
10002f2c:	f7ff fab2 	bl	10002494 <__wrap___aeabi_i2d>
10002f30:	a393      	add	r3, pc, #588	@ (adr r3, 10003180 <_etoa+0x4b8>)
10002f32:	e9d3 2300 	ldrd	r2, r3, [r3]
10002f36:	f7ff fa2b 	bl	10002390 <__wrap___aeabi_dmul>
10002f3a:	4602      	mov	r2, r0
10002f3c:	460b      	mov	r3, r1
10002f3e:	4640      	mov	r0, r8
10002f40:	4649      	mov	r1, r9
10002f42:	f7ff fa11 	bl	10002368 <__wrap___aeabi_dsub>
10002f46:	4602      	mov	r2, r0
10002f48:	460b      	mov	r3, r1
10002f4a:	4680      	mov	r8, r0
10002f4c:	4689      	mov	r9, r1
10002f4e:	f7ff fa1f 	bl	10002390 <__wrap___aeabi_dmul>
10002f52:	4642      	mov	r2, r8
10002f54:	464b      	mov	r3, r9
10002f56:	e9cd 010e 	strd	r0, r1, [sp, #56]	@ 0x38
10002f5a:	4640      	mov	r0, r8
10002f5c:	4649      	mov	r1, r9
10002f5e:	f7ff f9ef 	bl	10002340 <__wrap___aeabi_dadd>
10002f62:	2200      	movs	r2, #0
10002f64:	e9cd 0110 	strd	r0, r1, [sp, #64]	@ 0x40
10002f68:	e9dd 010e 	ldrd	r0, r1, [sp, #56]	@ 0x38
10002f6c:	4b8c      	ldr	r3, [pc, #560]	@ (100031a0 <_etoa+0x4d8>)
10002f6e:	f7ff fa35 	bl	100023dc <__wrap___aeabi_ddiv>
10002f72:	2200      	movs	r2, #0
10002f74:	4b8b      	ldr	r3, [pc, #556]	@ (100031a4 <_etoa+0x4dc>)
10002f76:	f7ff f9e3 	bl	10002340 <__wrap___aeabi_dadd>
10002f7a:	4602      	mov	r2, r0
10002f7c:	460b      	mov	r3, r1
10002f7e:	e9dd 010e 	ldrd	r0, r1, [sp, #56]	@ 0x38
10002f82:	f7ff fa2b 	bl	100023dc <__wrap___aeabi_ddiv>
10002f86:	2200      	movs	r2, #0
10002f88:	4b87      	ldr	r3, [pc, #540]	@ (100031a8 <_etoa+0x4e0>)
10002f8a:	f7ff f9d9 	bl	10002340 <__wrap___aeabi_dadd>
10002f8e:	4602      	mov	r2, r0
10002f90:	460b      	mov	r3, r1
10002f92:	e9dd 010e 	ldrd	r0, r1, [sp, #56]	@ 0x38
10002f96:	f7ff fa21 	bl	100023dc <__wrap___aeabi_ddiv>
10002f9a:	4642      	mov	r2, r8
10002f9c:	464b      	mov	r3, r9
10002f9e:	4680      	mov	r8, r0
10002fa0:	4689      	mov	r9, r1
10002fa2:	2000      	movs	r0, #0
10002fa4:	f04f 4180 	mov.w	r1, #1073741824	@ 0x40000000
10002fa8:	f7ff f9de 	bl	10002368 <__wrap___aeabi_dsub>
10002fac:	4602      	mov	r2, r0
10002fae:	460b      	mov	r3, r1
10002fb0:	4640      	mov	r0, r8
10002fb2:	4649      	mov	r1, r9
10002fb4:	f7ff f9c4 	bl	10002340 <__wrap___aeabi_dadd>
10002fb8:	4602      	mov	r2, r0
10002fba:	460b      	mov	r3, r1
10002fbc:	e9dd 0110 	ldrd	r0, r1, [sp, #64]	@ 0x40
10002fc0:	f7ff fa0c 	bl	100023dc <__wrap___aeabi_ddiv>
10002fc4:	2200      	movs	r2, #0
10002fc6:	4b79      	ldr	r3, [pc, #484]	@ (100031ac <_etoa+0x4e4>)
10002fc8:	f7ff f9ba 	bl	10002340 <__wrap___aeabi_dadd>
10002fcc:	f204 3cff 	addw	ip, r4, #1023	@ 0x3ff
10002fd0:	2200      	movs	r2, #0
10002fd2:	ea4f 530c 	mov.w	r3, ip, lsl #20
10002fd6:	f7ff f9db 	bl	10002390 <__wrap___aeabi_dmul>
10002fda:	e9dd 2306 	ldrd	r2, r3, [sp, #24]
10002fde:	4680      	mov	r8, r0
10002fe0:	4689      	mov	r9, r1
10002fe2:	f7ff faff 	bl	100025e4 <__wrap___aeabi_dcmpgt>
10002fe6:	b150      	cbz	r0, 10002ffe <_etoa+0x336>
10002fe8:	9b0c      	ldr	r3, [sp, #48]	@ 0x30
10002fea:	4640      	mov	r0, r8
10002fec:	3b01      	subs	r3, #1
10002fee:	4649      	mov	r1, r9
10002ff0:	930c      	str	r3, [sp, #48]	@ 0x30
10002ff2:	2200      	movs	r2, #0
10002ff4:	4b6b      	ldr	r3, [pc, #428]	@ (100031a4 <_etoa+0x4dc>)
10002ff6:	f7ff f9f1 	bl	100023dc <__wrap___aeabi_ddiv>
10002ffa:	4680      	mov	r8, r0
10002ffc:	4689      	mov	r9, r1
10002ffe:	9b0c      	ldr	r3, [sp, #48]	@ 0x30
10003000:	9a12      	ldr	r2, [sp, #72]	@ 0x48
10003002:	3363      	adds	r3, #99	@ 0x63
10003004:	2bc6      	cmp	r3, #198	@ 0xc6
10003006:	f007 0302 	and.w	r3, r7, #2
1000300a:	930e      	str	r3, [sp, #56]	@ 0x38
1000300c:	d80c      	bhi.n	10003028 <_etoa+0x360>
1000300e:	2a00      	cmp	r2, #0
10003010:	d167      	bne.n	100030e2 <_etoa+0x41a>
10003012:	9a0a      	ldr	r2, [sp, #40]	@ 0x28
10003014:	2a04      	cmp	r2, #4
10003016:	d97f      	bls.n	10003118 <_etoa+0x450>
10003018:	2b00      	cmp	r3, #0
1000301a:	f000 80d4 	beq.w	100031c6 <_etoa+0x4fe>
1000301e:	2304      	movs	r3, #4
10003020:	9310      	str	r3, [sp, #64]	@ 0x40
10003022:	2302      	movs	r3, #2
10003024:	930e      	str	r3, [sp, #56]	@ 0x38
10003026:	e06a      	b.n	100030fe <_etoa+0x436>
10003028:	2a00      	cmp	r2, #0
1000302a:	d12f      	bne.n	1000308c <_etoa+0x3c4>
1000302c:	9a0a      	ldr	r2, [sp, #40]	@ 0x28
1000302e:	2a05      	cmp	r2, #5
10003030:	d904      	bls.n	1000303c <_etoa+0x374>
10003032:	2b00      	cmp	r3, #0
10003034:	f000 80d2 	beq.w	100031dc <_etoa+0x514>
10003038:	2302      	movs	r3, #2
1000303a:	930e      	str	r3, [sp, #56]	@ 0x38
1000303c:	2305      	movs	r3, #5
1000303e:	9310      	str	r3, [sp, #64]	@ 0x40
10003040:	e061      	b.n	10003106 <_etoa+0x43e>
10003042:	f10b 4300 	add.w	r3, fp, #2147483648	@ 0x80000000
10003046:	f8cd a018 	str.w	sl, [sp, #24]
1000304a:	9307      	str	r3, [sp, #28]
1000304c:	e673      	b.n	10002d36 <_etoa+0x6e>
1000304e:	9b0a      	ldr	r3, [sp, #40]	@ 0x28
10003050:	4629      	mov	r1, r5
10003052:	e9cd 8320 	strd	r8, r3, [sp, #128]	@ 0x80
10003056:	f427 6300 	bic.w	r3, r7, #2048	@ 0x800
1000305a:	f443 6380 	orr.w	r3, r3, #1024	@ 0x400
1000305e:	9322      	str	r3, [sp, #136]	@ 0x88
10003060:	4633      	mov	r3, r6
10003062:	e9dd 6706 	ldrd	r6, r7, [sp, #24]
10003066:	4634      	mov	r4, r6
10003068:	f107 4500 	add.w	r5, r7, #2147483648	@ 0x80000000
1000306c:	e9cd 451e 	strd	r4, r5, [sp, #120]	@ 0x78
10003070:	9a0b      	ldr	r2, [sp, #44]	@ 0x2c
10003072:	9809      	ldr	r0, [sp, #36]	@ 0x24
10003074:	e6e1      	b.n	10002e3a <_etoa+0x172>
10003076:	f04f 0805 	mov.w	r8, #5
1000307a:	e6f2      	b.n	10002e62 <_etoa+0x19a>
1000307c:	2204      	movs	r2, #4
1000307e:	2300      	movs	r3, #0
10003080:	9210      	str	r2, [sp, #64]	@ 0x40
10003082:	2202      	movs	r2, #2
10003084:	9312      	str	r3, [sp, #72]	@ 0x48
10003086:	920e      	str	r2, [sp, #56]	@ 0x38
10003088:	930c      	str	r3, [sp, #48]	@ 0x30
1000308a:	e676      	b.n	10002d7a <_etoa+0xb2>
1000308c:	2305      	movs	r3, #5
1000308e:	9310      	str	r3, [sp, #64]	@ 0x40
10003090:	ea58 0309 	orrs.w	r3, r8, r9
10003094:	f43f aede 	beq.w	10002e54 <_etoa+0x18c>
10003098:	e9dd 0106 	ldrd	r0, r1, [sp, #24]
1000309c:	a33a      	add	r3, pc, #232	@ (adr r3, 10003188 <_etoa+0x4c0>)
1000309e:	e9d3 2300 	ldrd	r2, r3, [r3]
100030a2:	f7ff fa8b 	bl	100025bc <__wrap___aeabi_dcmpge>
100030a6:	b148      	cbz	r0, 100030bc <_etoa+0x3f4>
100030a8:	e9dd 0106 	ldrd	r0, r1, [sp, #24]
100030ac:	a338      	add	r3, pc, #224	@ (adr r3, 10003190 <_etoa+0x4c8>)
100030ae:	e9d3 2300 	ldrd	r2, r3, [r3]
100030b2:	f7ff fa5b 	bl	1000256c <__wrap___aeabi_dcmplt>
100030b6:	2800      	cmp	r0, #0
100030b8:	f47f aecc 	bne.w	10002e54 <_etoa+0x18c>
100030bc:	9b08      	ldr	r3, [sp, #32]
100030be:	b19b      	cbz	r3, 100030e8 <_etoa+0x420>
100030c0:	9a13      	ldr	r2, [sp, #76]	@ 0x4c
100030c2:	2a00      	cmp	r2, #0
100030c4:	d041      	beq.n	1000314a <_etoa+0x482>
100030c6:	3b01      	subs	r3, #1
100030c8:	9a10      	ldr	r2, [sp, #64]	@ 0x40
100030ca:	9308      	str	r3, [sp, #32]
100030cc:	9b0a      	ldr	r3, [sp, #40]	@ 0x28
100030ce:	4293      	cmp	r3, r2
100030d0:	d904      	bls.n	100030dc <_etoa+0x414>
100030d2:	990e      	ldr	r1, [sp, #56]	@ 0x38
100030d4:	2900      	cmp	r1, #0
100030d6:	d043      	beq.n	10003160 <_etoa+0x498>
100030d8:	2302      	movs	r3, #2
100030da:	930e      	str	r3, [sp, #56]	@ 0x38
100030dc:	2300      	movs	r3, #0
100030de:	9312      	str	r3, [sp, #72]	@ 0x48
100030e0:	e00d      	b.n	100030fe <_etoa+0x436>
100030e2:	2304      	movs	r3, #4
100030e4:	9310      	str	r3, [sp, #64]	@ 0x40
100030e6:	e7d3      	b.n	10003090 <_etoa+0x3c8>
100030e8:	9b0a      	ldr	r3, [sp, #40]	@ 0x28
100030ea:	9a10      	ldr	r2, [sp, #64]	@ 0x40
100030ec:	4293      	cmp	r3, r2
100030ee:	d967      	bls.n	100031c0 <_etoa+0x4f8>
100030f0:	990e      	ldr	r1, [sp, #56]	@ 0x38
100030f2:	2900      	cmp	r1, #0
100030f4:	d034      	beq.n	10003160 <_etoa+0x498>
100030f6:	9b08      	ldr	r3, [sp, #32]
100030f8:	9312      	str	r3, [sp, #72]	@ 0x48
100030fa:	2302      	movs	r3, #2
100030fc:	930e      	str	r3, [sp, #56]	@ 0x38
100030fe:	9b0c      	ldr	r3, [sp, #48]	@ 0x30
10003100:	2b00      	cmp	r3, #0
10003102:	f43f ae3a 	beq.w	10002d7a <_etoa+0xb2>
10003106:	e9dd 0106 	ldrd	r0, r1, [sp, #24]
1000310a:	4642      	mov	r2, r8
1000310c:	464b      	mov	r3, r9
1000310e:	f7ff f965 	bl	100023dc <__wrap___aeabi_ddiv>
10003112:	e9cd 0106 	strd	r0, r1, [sp, #24]
10003116:	e630      	b.n	10002d7a <_etoa+0xb2>
10003118:	2304      	movs	r3, #4
1000311a:	9310      	str	r3, [sp, #64]	@ 0x40
1000311c:	e7ef      	b.n	100030fe <_etoa+0x436>
1000311e:	e9dd ab06 	ldrd	sl, fp, [sp, #24]
10003122:	46d0      	mov	r8, sl
10003124:	9b12      	ldr	r3, [sp, #72]	@ 0x48
10003126:	f10b 4900 	add.w	r9, fp, #2147483648	@ 0x80000000
1000312a:	9303      	str	r3, [sp, #12]
1000312c:	9b08      	ldr	r3, [sp, #32]
1000312e:	9a0b      	ldr	r2, [sp, #44]	@ 0x2c
10003130:	9302      	str	r3, [sp, #8]
10003132:	f427 6300 	bic.w	r3, r7, #2048	@ 0x800
10003136:	9304      	str	r3, [sp, #16]
10003138:	4629      	mov	r1, r5
1000313a:	4633      	mov	r3, r6
1000313c:	e9cd 8900 	strd	r8, r9, [sp]
10003140:	9809      	ldr	r0, [sp, #36]	@ 0x24
10003142:	f000 f855 	bl	100031f0 <_ftoa>
10003146:	4602      	mov	r2, r0
10003148:	e632      	b.n	10002db0 <_etoa+0xe8>
1000314a:	9b0a      	ldr	r3, [sp, #40]	@ 0x28
1000314c:	9a10      	ldr	r2, [sp, #64]	@ 0x40
1000314e:	4293      	cmp	r3, r2
10003150:	d94a      	bls.n	100031e8 <_etoa+0x520>
10003152:	990e      	ldr	r1, [sp, #56]	@ 0x38
10003154:	b121      	cbz	r1, 10003160 <_etoa+0x498>
10003156:	9b13      	ldr	r3, [sp, #76]	@ 0x4c
10003158:	9312      	str	r3, [sp, #72]	@ 0x48
1000315a:	2302      	movs	r3, #2
1000315c:	930e      	str	r3, [sp, #56]	@ 0x38
1000315e:	e7ce      	b.n	100030fe <_etoa+0x436>
10003160:	1a9b      	subs	r3, r3, r2
10003162:	9312      	str	r3, [sp, #72]	@ 0x48
10003164:	e7cb      	b.n	100030fe <_etoa+0x436>
10003166:	bf00      	nop
10003168:	636f4361 	.word	0x636f4361
1000316c:	3fd287a7 	.word	0x3fd287a7
10003170:	0979a371 	.word	0x0979a371
10003174:	400a934f 	.word	0x400a934f
10003178:	bbb55516 	.word	0xbbb55516
1000317c:	40026bb1 	.word	0x40026bb1
10003180:	fefa39ef 	.word	0xfefa39ef
10003184:	3fe62e42 	.word	0x3fe62e42
10003188:	eb1c432d 	.word	0xeb1c432d
1000318c:	3f1a36e2 	.word	0x3f1a36e2
10003190:	00000000 	.word	0x00000000
10003194:	412e8480 	.word	0x412e8480
10003198:	3ff80000 	.word	0x3ff80000
1000319c:	3fe00000 	.word	0x3fe00000
100031a0:	402c0000 	.word	0x402c0000
100031a4:	40240000 	.word	0x40240000
100031a8:	40180000 	.word	0x40180000
100031ac:	3ff00000 	.word	0x3ff00000
100031b0:	509f79fb 	.word	0x509f79fb
100031b4:	3fd34413 	.word	0x3fd34413
100031b8:	8b60c8b3 	.word	0x8b60c8b3
100031bc:	3fc68a28 	.word	0x3fc68a28
100031c0:	9b08      	ldr	r3, [sp, #32]
100031c2:	9312      	str	r3, [sp, #72]	@ 0x48
100031c4:	e79b      	b.n	100030fe <_etoa+0x436>
100031c6:	2304      	movs	r3, #4
100031c8:	9310      	str	r3, [sp, #64]	@ 0x40
100031ca:	9b0a      	ldr	r3, [sp, #40]	@ 0x28
100031cc:	3b04      	subs	r3, #4
100031ce:	9312      	str	r3, [sp, #72]	@ 0x48
100031d0:	e795      	b.n	100030fe <_etoa+0x436>
100031d2:	eba3 0802 	sub.w	r8, r3, r2
100031d6:	f108 38ff 	add.w	r8, r8, #4294967295	@ 0xffffffff
100031da:	e642      	b.n	10002e62 <_etoa+0x19a>
100031dc:	2305      	movs	r3, #5
100031de:	9310      	str	r3, [sp, #64]	@ 0x40
100031e0:	9b0a      	ldr	r3, [sp, #40]	@ 0x28
100031e2:	3b05      	subs	r3, #5
100031e4:	9312      	str	r3, [sp, #72]	@ 0x48
100031e6:	e78e      	b.n	10003106 <_etoa+0x43e>
100031e8:	9b13      	ldr	r3, [sp, #76]	@ 0x4c
100031ea:	9312      	str	r3, [sp, #72]	@ 0x48
100031ec:	e787      	b.n	100030fe <_etoa+0x436>
100031ee:	bf00      	nop

100031f0 <_ftoa>:
100031f0:	e92d 4ff0 	stmdb	sp!, {r4, r5, r6, r7, r8, r9, sl, fp, lr}
100031f4:	b097      	sub	sp, #92	@ 0x5c
100031f6:	e9dd 6720 	ldrd	r6, r7, [sp, #128]	@ 0x80
100031fa:	e9cd 0105 	strd	r0, r1, [sp, #20]
100031fe:	e9dd 5822 	ldrd	r5, r8, [sp, #136]	@ 0x88
10003202:	9207      	str	r2, [sp, #28]
10003204:	930c      	str	r3, [sp, #48]	@ 0x30
10003206:	4632      	mov	r2, r6
10003208:	463b      	mov	r3, r7
1000320a:	4630      	mov	r0, r6
1000320c:	4639      	mov	r1, r7
1000320e:	f8dd 9090 	ldr.w	r9, [sp, #144]	@ 0x90
10003212:	f7ff f987 	bl	10002524 <__wrap___aeabi_dcmpun>
10003216:	2800      	cmp	r0, #0
10003218:	f040 81bd 	bne.w	10003596 <_ftoa+0x3a6>
1000321c:	4630      	mov	r0, r6
1000321e:	4639      	mov	r1, r7
10003220:	f04f 32ff 	mov.w	r2, #4294967295	@ 0xffffffff
10003224:	f46f 1380 	mvn.w	r3, #1048576	@ 0x100000
10003228:	f7ff f9a0 	bl	1000256c <__wrap___aeabi_dcmplt>
1000322c:	2800      	cmp	r0, #0
1000322e:	f040 8110 	bne.w	10003452 <_ftoa+0x262>
10003232:	4630      	mov	r0, r6
10003234:	4639      	mov	r1, r7
10003236:	f04f 32ff 	mov.w	r2, #4294967295	@ 0xffffffff
1000323a:	4bc1      	ldr	r3, [pc, #772]	@ (10003540 <_ftoa+0x350>)
1000323c:	f7ff f9d2 	bl	100025e4 <__wrap___aeabi_dcmpgt>
10003240:	2800      	cmp	r0, #0
10003242:	f040 80e6 	bne.w	10003412 <_ftoa+0x222>
10003246:	a3ba      	add	r3, pc, #744	@ (adr r3, 10003530 <_ftoa+0x340>)
10003248:	e9d3 2300 	ldrd	r2, r3, [r3]
1000324c:	4630      	mov	r0, r6
1000324e:	4639      	mov	r1, r7
10003250:	f7ff f9c8 	bl	100025e4 <__wrap___aeabi_dcmpgt>
10003254:	2800      	cmp	r0, #0
10003256:	f040 80ce 	bne.w	100033f6 <_ftoa+0x206>
1000325a:	a3b7      	add	r3, pc, #732	@ (adr r3, 10003538 <_ftoa+0x348>)
1000325c:	e9d3 2300 	ldrd	r2, r3, [r3]
10003260:	4630      	mov	r0, r6
10003262:	4639      	mov	r1, r7
10003264:	f7ff f982 	bl	1000256c <__wrap___aeabi_dcmplt>
10003268:	2800      	cmp	r0, #0
1000326a:	f040 80c4 	bne.w	100033f6 <_ftoa+0x206>
1000326e:	4630      	mov	r0, r6
10003270:	4639      	mov	r1, r7
10003272:	2200      	movs	r2, #0
10003274:	2300      	movs	r3, #0
10003276:	f7ff f979 	bl	1000256c <__wrap___aeabi_dcmplt>
1000327a:	2800      	cmp	r0, #0
1000327c:	f040 80de 	bne.w	1000343c <_ftoa+0x24c>
10003280:	900d      	str	r0, [sp, #52]	@ 0x34
10003282:	f419 6f80 	tst.w	r9, #1024	@ 0x400
10003286:	bf08      	it	eq
10003288:	2506      	moveq	r5, #6
1000328a:	2130      	movs	r1, #48	@ 0x30
1000328c:	462b      	mov	r3, r5
1000328e:	aa0e      	add	r2, sp, #56	@ 0x38
10003290:	f1a5 0a20 	sub.w	sl, r5, #32
10003294:	e005      	b.n	100032a2 <_ftoa+0xb2>
10003296:	3b01      	subs	r3, #1
10003298:	4553      	cmp	r3, sl
1000329a:	f802 1b01 	strb.w	r1, [r2], #1
1000329e:	f000 8142 	beq.w	10003526 <_ftoa+0x336>
100032a2:	2b09      	cmp	r3, #9
100032a4:	d8f7      	bhi.n	10003296 <_ftoa+0xa6>
100032a6:	469a      	mov	sl, r3
100032a8:	1aed      	subs	r5, r5, r3
100032aa:	4639      	mov	r1, r7
100032ac:	4630      	mov	r0, r6
100032ae:	f7ff f915 	bl	100024dc <__wrap___aeabi_d2iz>
100032b2:	4ba4      	ldr	r3, [pc, #656]	@ (10003544 <_ftoa+0x354>)
100032b4:	4604      	mov	r4, r0
100032b6:	eb03 03ca 	add.w	r3, r3, sl, lsl #3
100032ba:	ed93 7b00 	vldr	d7, [r3]
100032be:	ed8d 7b08 	vstr	d7, [sp, #32]
100032c2:	f7ff f8e7 	bl	10002494 <__wrap___aeabi_i2d>
100032c6:	4602      	mov	r2, r0
100032c8:	460b      	mov	r3, r1
100032ca:	4630      	mov	r0, r6
100032cc:	4639      	mov	r1, r7
100032ce:	f7ff f84b 	bl	10002368 <__wrap___aeabi_dsub>
100032d2:	e9dd 2308 	ldrd	r2, r3, [sp, #32]
100032d6:	f7ff f85b 	bl	10002390 <__wrap___aeabi_dmul>
100032da:	4602      	mov	r2, r0
100032dc:	460b      	mov	r3, r1
100032de:	e9cd 230a 	strd	r2, r3, [sp, #40]	@ 0x28
100032e2:	f7ff f90d 	bl	10002500 <__wrap___aeabi_d2uiz>
100032e6:	4683      	mov	fp, r0
100032e8:	f7ff f8e6 	bl	100024b8 <__wrap___aeabi_ui2d>
100032ec:	4602      	mov	r2, r0
100032ee:	460b      	mov	r3, r1
100032f0:	e9dd 010a 	ldrd	r0, r1, [sp, #40]	@ 0x28
100032f4:	f7ff f838 	bl	10002368 <__wrap___aeabi_dsub>
100032f8:	4602      	mov	r2, r0
100032fa:	460b      	mov	r3, r1
100032fc:	e9cd 230a 	strd	r2, r3, [sp, #40]	@ 0x28
10003300:	2200      	movs	r2, #0
10003302:	4b91      	ldr	r3, [pc, #580]	@ (10003548 <_ftoa+0x358>)
10003304:	f7ff f96e 	bl	100025e4 <__wrap___aeabi_dcmpgt>
10003308:	2800      	cmp	r0, #0
1000330a:	f000 80b3 	beq.w	10003474 <_ftoa+0x284>
1000330e:	f10b 0b01 	add.w	fp, fp, #1
10003312:	4658      	mov	r0, fp
10003314:	f7ff f8d0 	bl	100024b8 <__wrap___aeabi_ui2d>
10003318:	4602      	mov	r2, r0
1000331a:	460b      	mov	r3, r1
1000331c:	e9dd 0108 	ldrd	r0, r1, [sp, #32]
10003320:	f7ff f938 	bl	10002594 <__wrap___aeabi_dcmple>
10003324:	b110      	cbz	r0, 1000332c <_ftoa+0x13c>
10003326:	f04f 0b00 	mov.w	fp, #0
1000332a:	3401      	adds	r4, #1
1000332c:	f1ba 0f00 	cmp.w	sl, #0
10003330:	f000 80b2 	beq.w	10003498 <_ftoa+0x2a8>
10003334:	1e68      	subs	r0, r5, #1
10003336:	ab0e      	add	r3, sp, #56	@ 0x38
10003338:	4e84      	ldr	r6, [pc, #528]	@ (1000354c <_ftoa+0x35c>)
1000333a:	4418      	add	r0, r3
1000333c:	e00f      	b.n	1000335e <_ftoa+0x16e>
1000333e:	fba6 210b 	umull	r2, r1, r6, fp
10003342:	08c9      	lsrs	r1, r1, #3
10003344:	eb01 0281 	add.w	r2, r1, r1, lsl #2
10003348:	ebab 0242 	sub.w	r2, fp, r2, lsl #1
1000334c:	3230      	adds	r2, #48	@ 0x30
1000334e:	f1bb 0f09 	cmp.w	fp, #9
10003352:	f800 2f01 	strb.w	r2, [r0, #1]!
10003356:	f240 80cf 	bls.w	100034f8 <_ftoa+0x308>
1000335a:	468b      	mov	fp, r1
1000335c:	461d      	mov	r5, r3
1000335e:	2d20      	cmp	r5, #32
10003360:	f105 0301 	add.w	r3, r5, #1
10003364:	f10a 3aff 	add.w	sl, sl, #4294967295	@ 0xffffffff
10003368:	d1e9      	bne.n	1000333e <_ftoa+0x14e>
1000336a:	2520      	movs	r5, #32
1000336c:	1e69      	subs	r1, r5, #1
1000336e:	ab0e      	add	r3, sp, #56	@ 0x38
10003370:	4877      	ldr	r0, [pc, #476]	@ (10003550 <_ftoa+0x360>)
10003372:	4419      	add	r1, r3
10003374:	e010      	b.n	10003398 <_ftoa+0x1a8>
10003376:	fb80 6204 	smull	r6, r2, r0, r4
1000337a:	ebc3 03a2 	rsb	r3, r3, r2, asr #2
1000337e:	eb03 0283 	add.w	r2, r3, r3, lsl #2
10003382:	eba4 0442 	sub.w	r4, r4, r2, lsl #1
10003386:	f104 0230 	add.w	r2, r4, #48	@ 0x30
1000338a:	3501      	adds	r5, #1
1000338c:	461c      	mov	r4, r3
1000338e:	f801 2f01 	strb.w	r2, [r1, #1]!
10003392:	2b00      	cmp	r3, #0
10003394:	f000 809f 	beq.w	100034d6 <_ftoa+0x2e6>
10003398:	2d20      	cmp	r5, #32
1000339a:	ea4f 73e4 	mov.w	r3, r4, asr #31
1000339e:	d1ea      	bne.n	10003376 <_ftoa+0x186>
100033a0:	f009 0303 	and.w	r3, r9, #3
100033a4:	2b01      	cmp	r3, #1
100033a6:	d118      	bne.n	100033da <_ftoa+0x1ea>
100033a8:	f1b8 0f00 	cmp.w	r8, #0
100033ac:	d015      	beq.n	100033da <_ftoa+0x1ea>
100033ae:	9b0d      	ldr	r3, [sp, #52]	@ 0x34
100033b0:	2b00      	cmp	r3, #0
100033b2:	f000 80d5 	beq.w	10003560 <_ftoa+0x370>
100033b6:	f108 38ff 	add.w	r8, r8, #4294967295	@ 0xffffffff
100033ba:	f1b8 0f20 	cmp.w	r8, #32
100033be:	d90c      	bls.n	100033da <_ftoa+0x1ea>
100033c0:	1e6b      	subs	r3, r5, #1
100033c2:	a90e      	add	r1, sp, #56	@ 0x38
100033c4:	2230      	movs	r2, #48	@ 0x30
100033c6:	440b      	add	r3, r1
100033c8:	e005      	b.n	100033d6 <_ftoa+0x1e6>
100033ca:	3501      	adds	r5, #1
100033cc:	4545      	cmp	r5, r8
100033ce:	f803 2f01 	strb.w	r2, [r3, #1]!
100033d2:	f080 8084 	bcs.w	100034de <_ftoa+0x2ee>
100033d6:	2d20      	cmp	r5, #32
100033d8:	d1f7      	bne.n	100033ca <_ftoa+0x1da>
100033da:	ac0e      	add	r4, sp, #56	@ 0x38
100033dc:	e9cd 8902 	strd	r8, r9, [sp, #8]
100033e0:	e9dd 1206 	ldrd	r1, r2, [sp, #24]
100033e4:	9b0c      	ldr	r3, [sp, #48]	@ 0x30
100033e6:	9805      	ldr	r0, [sp, #20]
100033e8:	9501      	str	r5, [sp, #4]
100033ea:	9400      	str	r4, [sp, #0]
100033ec:	f7ff fa8c 	bl	10002908 <_out_rev>
100033f0:	b017      	add	sp, #92	@ 0x5c
100033f2:	e8bd 8ff0 	ldmia.w	sp!, {r4, r5, r6, r7, r8, r9, sl, fp, pc}
100033f6:	9b0c      	ldr	r3, [sp, #48]	@ 0x30
100033f8:	9805      	ldr	r0, [sp, #20]
100033fa:	e9cd 6720 	strd	r6, r7, [sp, #128]	@ 0x80
100033fe:	e9dd 1206 	ldrd	r1, r2, [sp, #24]
10003402:	e9cd 8923 	strd	r8, r9, [sp, #140]	@ 0x8c
10003406:	9522      	str	r5, [sp, #136]	@ 0x88
10003408:	b017      	add	sp, #92	@ 0x5c
1000340a:	e8bd 4ff0 	ldmia.w	sp!, {r4, r5, r6, r7, r8, r9, sl, fp, lr}
1000340e:	f7ff bc5b 	b.w	10002cc8 <_etoa>
10003412:	f019 0f04 	tst.w	r9, #4
10003416:	bf18      	it	ne
10003418:	2304      	movne	r3, #4
1000341a:	e9dd 1206 	ldrd	r1, r2, [sp, #24]
1000341e:	bf0a      	itet	eq
10003420:	2303      	moveq	r3, #3
10003422:	4c4c      	ldrne	r4, [pc, #304]	@ (10003554 <_ftoa+0x364>)
10003424:	4c4c      	ldreq	r4, [pc, #304]	@ (10003558 <_ftoa+0x368>)
10003426:	9321      	str	r3, [sp, #132]	@ 0x84
10003428:	9805      	ldr	r0, [sp, #20]
1000342a:	9b0c      	ldr	r3, [sp, #48]	@ 0x30
1000342c:	e9cd 8922 	strd	r8, r9, [sp, #136]	@ 0x88
10003430:	9420      	str	r4, [sp, #128]	@ 0x80
10003432:	b017      	add	sp, #92	@ 0x5c
10003434:	e8bd 4ff0 	ldmia.w	sp!, {r4, r5, r6, r7, r8, r9, sl, fp, lr}
10003438:	f7ff ba66 	b.w	10002908 <_out_rev>
1000343c:	463b      	mov	r3, r7
1000343e:	4632      	mov	r2, r6
10003440:	2000      	movs	r0, #0
10003442:	2100      	movs	r1, #0
10003444:	f7fe ff90 	bl	10002368 <__wrap___aeabi_dsub>
10003448:	2301      	movs	r3, #1
1000344a:	4606      	mov	r6, r0
1000344c:	460f      	mov	r7, r1
1000344e:	930d      	str	r3, [sp, #52]	@ 0x34
10003450:	e717      	b.n	10003282 <_ftoa+0x92>
10003452:	2404      	movs	r4, #4
10003454:	e9dd 1206 	ldrd	r1, r2, [sp, #24]
10003458:	9b0c      	ldr	r3, [sp, #48]	@ 0x30
1000345a:	9805      	ldr	r0, [sp, #20]
1000345c:	4d3f      	ldr	r5, [pc, #252]	@ (1000355c <_ftoa+0x36c>)
1000345e:	f8cd 908c 	str.w	r9, [sp, #140]	@ 0x8c
10003462:	f8cd 8088 	str.w	r8, [sp, #136]	@ 0x88
10003466:	e9cd 5420 	strd	r5, r4, [sp, #128]	@ 0x80
1000346a:	b017      	add	sp, #92	@ 0x5c
1000346c:	e8bd 4ff0 	ldmia.w	sp!, {r4, r5, r6, r7, r8, r9, sl, fp, lr}
10003470:	f7ff ba4a 	b.w	10002908 <_out_rev>
10003474:	2200      	movs	r2, #0
10003476:	e9dd 010a 	ldrd	r0, r1, [sp, #40]	@ 0x28
1000347a:	4b33      	ldr	r3, [pc, #204]	@ (10003548 <_ftoa+0x358>)
1000347c:	f7ff f876 	bl	1000256c <__wrap___aeabi_dcmplt>
10003480:	2800      	cmp	r0, #0
10003482:	f47f af53 	bne.w	1000332c <_ftoa+0x13c>
10003486:	f1bb 0f00 	cmp.w	fp, #0
1000348a:	d17f      	bne.n	1000358c <_ftoa+0x39c>
1000348c:	f10b 0b01 	add.w	fp, fp, #1
10003490:	f1ba 0f00 	cmp.w	sl, #0
10003494:	f47f af4e 	bne.w	10003334 <_ftoa+0x144>
10003498:	4620      	mov	r0, r4
1000349a:	f7fe fffb 	bl	10002494 <__wrap___aeabi_i2d>
1000349e:	4602      	mov	r2, r0
100034a0:	460b      	mov	r3, r1
100034a2:	4630      	mov	r0, r6
100034a4:	4639      	mov	r1, r7
100034a6:	f7fe ff5f 	bl	10002368 <__wrap___aeabi_dsub>
100034aa:	2200      	movs	r2, #0
100034ac:	4b26      	ldr	r3, [pc, #152]	@ (10003548 <_ftoa+0x358>)
100034ae:	4606      	mov	r6, r0
100034b0:	460f      	mov	r7, r1
100034b2:	f7ff f85b 	bl	1000256c <__wrap___aeabi_dcmplt>
100034b6:	2800      	cmp	r0, #0
100034b8:	f47f af58 	bne.w	1000336c <_ftoa+0x17c>
100034bc:	4630      	mov	r0, r6
100034be:	4639      	mov	r1, r7
100034c0:	2200      	movs	r2, #0
100034c2:	4b21      	ldr	r3, [pc, #132]	@ (10003548 <_ftoa+0x358>)
100034c4:	f7ff f88e 	bl	100025e4 <__wrap___aeabi_dcmpgt>
100034c8:	2800      	cmp	r0, #0
100034ca:	f47f af4f 	bne.w	1000336c <_ftoa+0x17c>
100034ce:	3401      	adds	r4, #1
100034d0:	f024 0401 	bic.w	r4, r4, #1
100034d4:	e74a      	b.n	1000336c <_ftoa+0x17c>
100034d6:	f009 0303 	and.w	r3, r9, #3
100034da:	2b01      	cmp	r3, #1
100034dc:	d06a      	beq.n	100035b4 <_ftoa+0x3c4>
100034de:	2d20      	cmp	r5, #32
100034e0:	f43f af7b 	beq.w	100033da <_ftoa+0x1ea>
100034e4:	9b0d      	ldr	r3, [sp, #52]	@ 0x34
100034e6:	2b00      	cmp	r3, #0
100034e8:	d045      	beq.n	10003576 <_ftoa+0x386>
100034ea:	222d      	movs	r2, #45	@ 0x2d
100034ec:	eb0d 0305 	add.w	r3, sp, r5
100034f0:	f883 2038 	strb.w	r2, [r3, #56]	@ 0x38
100034f4:	3501      	adds	r5, #1
100034f6:	e770      	b.n	100033da <_ftoa+0x1ea>
100034f8:	2b20      	cmp	r3, #32
100034fa:	f43f af36 	beq.w	1000336a <_ftoa+0x17a>
100034fe:	aa0e      	add	r2, sp, #56	@ 0x38
10003500:	4415      	add	r5, r2
10003502:	449a      	add	sl, r3
10003504:	2230      	movs	r2, #48	@ 0x30
10003506:	e005      	b.n	10003514 <_ftoa+0x324>
10003508:	3301      	adds	r3, #1
1000350a:	2b20      	cmp	r3, #32
1000350c:	f805 2f01 	strb.w	r2, [r5, #1]!
10003510:	f43f af2b 	beq.w	1000336a <_ftoa+0x17a>
10003514:	4553      	cmp	r3, sl
10003516:	d1f7      	bne.n	10003508 <_ftoa+0x318>
10003518:	212e      	movs	r1, #46	@ 0x2e
1000351a:	eb0d 0203 	add.w	r2, sp, r3
1000351e:	f882 1038 	strb.w	r1, [r2, #56]	@ 0x38
10003522:	1c5d      	adds	r5, r3, #1
10003524:	e722      	b.n	1000336c <_ftoa+0x17c>
10003526:	2520      	movs	r5, #32
10003528:	e6bf      	b.n	100032aa <_ftoa+0xba>
1000352a:	bf00      	nop
1000352c:	f3af 8000 	nop.w
10003530:	00000000 	.word	0x00000000
10003534:	41cdcd65 	.word	0x41cdcd65
10003538:	00000000 	.word	0x00000000
1000353c:	c1cdcd65 	.word	0xc1cdcd65
10003540:	7fefffff 	.word	0x7fefffff
10003544:	1000caa8 	.word	0x1000caa8
10003548:	3fe00000 	.word	0x3fe00000
1000354c:	cccccccd 	.word	0xcccccccd
10003550:	66666667 	.word	0x66666667
10003554:	1000c834 	.word	0x1000c834
10003558:	1000c83c 	.word	0x1000c83c
1000355c:	1000c844 	.word	0x1000c844
10003560:	f019 0f0c 	tst.w	r9, #12
10003564:	d022      	beq.n	100035ac <_ftoa+0x3bc>
10003566:	f108 38ff 	add.w	r8, r8, #4294967295	@ 0xffffffff
1000356a:	4545      	cmp	r5, r8
1000356c:	f4ff af28 	bcc.w	100033c0 <_ftoa+0x1d0>
10003570:	2d20      	cmp	r5, #32
10003572:	f43f af32 	beq.w	100033da <_ftoa+0x1ea>
10003576:	f019 0f04 	tst.w	r9, #4
1000357a:	d001      	beq.n	10003580 <_ftoa+0x390>
1000357c:	222b      	movs	r2, #43	@ 0x2b
1000357e:	e7b5      	b.n	100034ec <_ftoa+0x2fc>
10003580:	f019 0f08 	tst.w	r9, #8
10003584:	f43f af29 	beq.w	100033da <_ftoa+0x1ea>
10003588:	2220      	movs	r2, #32
1000358a:	e7af      	b.n	100034ec <_ftoa+0x2fc>
1000358c:	f01b 0f01 	tst.w	fp, #1
10003590:	f43f aecc 	beq.w	1000332c <_ftoa+0x13c>
10003594:	e77a      	b.n	1000348c <_ftoa+0x29c>
10003596:	2403      	movs	r4, #3
10003598:	e9dd 1206 	ldrd	r1, r2, [sp, #24]
1000359c:	9b0c      	ldr	r3, [sp, #48]	@ 0x30
1000359e:	9805      	ldr	r0, [sp, #20]
100035a0:	4d0b      	ldr	r5, [pc, #44]	@ (100035d0 <_ftoa+0x3e0>)
100035a2:	f8cd 908c 	str.w	r9, [sp, #140]	@ 0x8c
100035a6:	f8cd 8088 	str.w	r8, [sp, #136]	@ 0x88
100035aa:	e75c      	b.n	10003466 <_ftoa+0x276>
100035ac:	4545      	cmp	r5, r8
100035ae:	f4ff af07 	bcc.w	100033c0 <_ftoa+0x1d0>
100035b2:	e712      	b.n	100033da <_ftoa+0x1ea>
100035b4:	f1b8 0f00 	cmp.w	r8, #0
100035b8:	d091      	beq.n	100034de <_ftoa+0x2ee>
100035ba:	9b0d      	ldr	r3, [sp, #52]	@ 0x34
100035bc:	2b00      	cmp	r3, #0
100035be:	d0cf      	beq.n	10003560 <_ftoa+0x370>
100035c0:	f108 38ff 	add.w	r8, r8, #4294967295	@ 0xffffffff
100035c4:	4545      	cmp	r5, r8
100035c6:	f4ff aefb 	bcc.w	100033c0 <_ftoa+0x1d0>
100035ca:	2d20      	cmp	r5, #32
100035cc:	d18d      	bne.n	100034ea <_ftoa+0x2fa>
100035ce:	e704      	b.n	100033da <_ftoa+0x1ea>
100035d0:	1000c840 	.word	0x1000c840

100035d4 <_out_char>:
100035d4:	b900      	cbnz	r0, 100035d8 <_out_char+0x4>
100035d6:	4770      	bx	lr
100035d8:	f000 bd78 	b.w	100040cc <__wrap_putchar>

100035dc <_out_fct>:
100035dc:	b110      	cbz	r0, 100035e4 <_out_fct+0x8>
100035de:	e9d1 3100 	ldrd	r3, r1, [r1]
100035e2:	4718      	bx	r3
100035e4:	4770      	bx	lr
100035e6:	bf00      	nop

100035e8 <_vsnprintf>:
100035e8:	e92d 4ff0 	stmdb	sp!, {r4, r5, r6, r7, r8, r9, sl, fp, lr}
100035ec:	4d9e      	ldr	r5, [pc, #632]	@ (10003868 <_vsnprintf+0x280>)
100035ee:	4c9f      	ldr	r4, [pc, #636]	@ (1000386c <_vsnprintf+0x284>)
100035f0:	f1b1 0b00 	subs.w	fp, r1, #0
100035f4:	b08f      	sub	sp, #60	@ 0x3c
100035f6:	bf18      	it	ne
100035f8:	4681      	movne	r9, r0
100035fa:	6025      	str	r5, [r4, #0]
100035fc:	7818      	ldrb	r0, [r3, #0]
100035fe:	4d9c      	ldr	r5, [pc, #624]	@ (10003870 <_vsnprintf+0x288>)
10003600:	4690      	mov	r8, r2
10003602:	bf08      	it	eq
10003604:	46a9      	moveq	r9, r5
10003606:	f8dd a060 	ldr.w	sl, [sp, #96]	@ 0x60
1000360a:	2800      	cmp	r0, #0
1000360c:	f000 8234 	beq.w	10003a78 <_vsnprintf+0x490>
10003610:	461c      	mov	r4, r3
10003612:	2500      	movs	r5, #0
10003614:	e008      	b.n	10003628 <_vsnprintf+0x40>
10003616:	462a      	mov	r2, r5
10003618:	4643      	mov	r3, r8
1000361a:	4659      	mov	r1, fp
1000361c:	3501      	adds	r5, #1
1000361e:	47c8      	blx	r9
10003620:	7820      	ldrb	r0, [r4, #0]
10003622:	2800      	cmp	r0, #0
10003624:	f000 80c7 	beq.w	100037b6 <_vsnprintf+0x1ce>
10003628:	2825      	cmp	r0, #37	@ 0x25
1000362a:	f104 0401 	add.w	r4, r4, #1
1000362e:	d1f2      	bne.n	10003616 <_vsnprintf+0x2e>
10003630:	2300      	movs	r3, #0
10003632:	4622      	mov	r2, r4
10003634:	f812 0b01 	ldrb.w	r0, [r2], #1
10003638:	f1a0 0120 	sub.w	r1, r0, #32
1000363c:	2910      	cmp	r1, #16
1000363e:	d80a      	bhi.n	10003656 <_vsnprintf+0x6e>
10003640:	e8df f001 	tbb	[pc, r1]
10003644:	3b09093f 	.word	0x3b09093f
10003648:	09090909 	.word	0x09090909
1000364c:	37090909 	.word	0x37090909
10003650:	09093309 	.word	0x09093309
10003654:	2f          	.byte	0x2f
10003655:	00          	.byte	0x00
10003656:	f1a0 0130 	sub.w	r1, r0, #48	@ 0x30
1000365a:	2909      	cmp	r1, #9
1000365c:	f240 8089 	bls.w	10003772 <_vsnprintf+0x18a>
10003660:	282a      	cmp	r0, #42	@ 0x2a
10003662:	f000 80de 	beq.w	10003822 <_vsnprintf+0x23a>
10003666:	2600      	movs	r6, #0
10003668:	282e      	cmp	r0, #46	@ 0x2e
1000366a:	f000 8094 	beq.w	10003796 <_vsnprintf+0x1ae>
1000366e:	2100      	movs	r1, #0
10003670:	f1a0 0768 	sub.w	r7, r0, #104	@ 0x68
10003674:	2f12      	cmp	r7, #18
10003676:	d82c      	bhi.n	100036d2 <_vsnprintf+0xea>
10003678:	e8df f017 	tbh	[pc, r7, lsl #1]
1000367c:	002b0139 	.word	0x002b0139
10003680:	002b0134 	.word	0x002b0134
10003684:	002b012b 	.word	0x002b012b
10003688:	002b002b 	.word	0x002b002b
1000368c:	002b002b 	.word	0x002b002b
10003690:	002b002b 	.word	0x002b002b
10003694:	002b0027 	.word	0x002b0027
10003698:	002b002b 	.word	0x002b002b
1000369c:	002b002b 	.word	0x002b002b
100036a0:	0027      	.short	0x0027
100036a2:	4614      	mov	r4, r2
100036a4:	f043 0301 	orr.w	r3, r3, #1
100036a8:	e7c3      	b.n	10003632 <_vsnprintf+0x4a>
100036aa:	4614      	mov	r4, r2
100036ac:	f043 0302 	orr.w	r3, r3, #2
100036b0:	e7bf      	b.n	10003632 <_vsnprintf+0x4a>
100036b2:	4614      	mov	r4, r2
100036b4:	f043 0304 	orr.w	r3, r3, #4
100036b8:	e7bb      	b.n	10003632 <_vsnprintf+0x4a>
100036ba:	4614      	mov	r4, r2
100036bc:	f043 0310 	orr.w	r3, r3, #16
100036c0:	e7b7      	b.n	10003632 <_vsnprintf+0x4a>
100036c2:	4614      	mov	r4, r2
100036c4:	f043 0308 	orr.w	r3, r3, #8
100036c8:	e7b3      	b.n	10003632 <_vsnprintf+0x4a>
100036ca:	7860      	ldrb	r0, [r4, #1]
100036cc:	f443 7380 	orr.w	r3, r3, #256	@ 0x100
100036d0:	3201      	adds	r2, #1
100036d2:	2867      	cmp	r0, #103	@ 0x67
100036d4:	4614      	mov	r4, r2
100036d6:	d87c      	bhi.n	100037d2 <_vsnprintf+0x1ea>
100036d8:	2824      	cmp	r0, #36	@ 0x24
100036da:	f240 80ad 	bls.w	10003838 <_vsnprintf+0x250>
100036de:	f1a0 0225 	sub.w	r2, r0, #37	@ 0x25
100036e2:	2a42      	cmp	r2, #66	@ 0x42
100036e4:	f200 80a8 	bhi.w	10003838 <_vsnprintf+0x250>
100036e8:	e8df f012 	tbh	[pc, r2, lsl #1]
100036ec:	00a6013c 	.word	0x00a6013c
100036f0:	00a600a6 	.word	0x00a600a6
100036f4:	00a600a6 	.word	0x00a600a6
100036f8:	00a600a6 	.word	0x00a600a6
100036fc:	00a600a6 	.word	0x00a600a6
10003700:	00a600a6 	.word	0x00a600a6
10003704:	00a600a6 	.word	0x00a600a6
10003708:	00a600a6 	.word	0x00a600a6
1000370c:	00a600a6 	.word	0x00a600a6
10003710:	00a600a6 	.word	0x00a600a6
10003714:	00a600a6 	.word	0x00a600a6
10003718:	00a600a6 	.word	0x00a600a6
1000371c:	00a600a6 	.word	0x00a600a6
10003720:	00a600a6 	.word	0x00a600a6
10003724:	00a600a6 	.word	0x00a600a6
10003728:	00a600a6 	.word	0x00a600a6
1000372c:	01250109 	.word	0x01250109
10003730:	00a60109 	.word	0x00a60109
10003734:	00a600a6 	.word	0x00a600a6
10003738:	00a600a6 	.word	0x00a600a6
1000373c:	00a600a6 	.word	0x00a600a6
10003740:	00a600a6 	.word	0x00a600a6
10003744:	00a600a6 	.word	0x00a600a6
10003748:	00a600a6 	.word	0x00a600a6
1000374c:	00a600a6 	.word	0x00a600a6
10003750:	018300a6 	.word	0x018300a6
10003754:	00a600a6 	.word	0x00a600a6
10003758:	00a600a6 	.word	0x00a600a6
1000375c:	00a600a6 	.word	0x00a600a6
10003760:	00a600a6 	.word	0x00a600a6
10003764:	018300a6 	.word	0x018300a6
10003768:	01830143 	.word	0x01830143
1000376c:	01250109 	.word	0x01250109
10003770:	0109      	.short	0x0109
10003772:	2600      	movs	r6, #0
10003774:	eb06 0686 	add.w	r6, r6, r6, lsl #2
10003778:	eb00 0646 	add.w	r6, r0, r6, lsl #1
1000377c:	7810      	ldrb	r0, [r2, #0]
1000377e:	4614      	mov	r4, r2
10003780:	f1a0 0130 	sub.w	r1, r0, #48	@ 0x30
10003784:	2909      	cmp	r1, #9
10003786:	f1a6 0630 	sub.w	r6, r6, #48	@ 0x30
1000378a:	f102 0201 	add.w	r2, r2, #1
1000378e:	d9f1      	bls.n	10003774 <_vsnprintf+0x18c>
10003790:	282e      	cmp	r0, #46	@ 0x2e
10003792:	f47f af6c 	bne.w	1000366e <_vsnprintf+0x86>
10003796:	7860      	ldrb	r0, [r4, #1]
10003798:	4617      	mov	r7, r2
1000379a:	f1a0 0130 	sub.w	r1, r0, #48	@ 0x30
1000379e:	2909      	cmp	r1, #9
100037a0:	f443 6380 	orr.w	r3, r3, #1024	@ 0x400
100037a4:	f240 8103 	bls.w	100039ae <_vsnprintf+0x3c6>
100037a8:	282a      	cmp	r0, #42	@ 0x2a
100037aa:	f000 811a 	beq.w	100039e2 <_vsnprintf+0x3fa>
100037ae:	4614      	mov	r4, r2
100037b0:	2100      	movs	r1, #0
100037b2:	3201      	adds	r2, #1
100037b4:	e75c      	b.n	10003670 <_vsnprintf+0x88>
100037b6:	462c      	mov	r4, r5
100037b8:	45a8      	cmp	r8, r5
100037ba:	d801      	bhi.n	100037c0 <_vsnprintf+0x1d8>
100037bc:	f108 35ff 	add.w	r5, r8, #4294967295	@ 0xffffffff
100037c0:	4643      	mov	r3, r8
100037c2:	462a      	mov	r2, r5
100037c4:	4659      	mov	r1, fp
100037c6:	2000      	movs	r0, #0
100037c8:	47c8      	blx	r9
100037ca:	4620      	mov	r0, r4
100037cc:	b00f      	add	sp, #60	@ 0x3c
100037ce:	e8bd 8ff0 	ldmia.w	sp!, {r4, r5, r6, r7, r8, r9, sl, fp, pc}
100037d2:	f1a0 0269 	sub.w	r2, r0, #105	@ 0x69
100037d6:	b2d2      	uxtb	r2, r2
100037d8:	2a0f      	cmp	r2, #15
100037da:	d82d      	bhi.n	10003838 <_vsnprintf+0x250>
100037dc:	f04f 0c01 	mov.w	ip, #1
100037e0:	f249 0741 	movw	r7, #36929	@ 0x9041
100037e4:	fa0c fc02 	lsl.w	ip, ip, r2
100037e8:	ea1c 0c07 	ands.w	ip, ip, r7
100037ec:	f040 80ee 	bne.w	100039cc <_vsnprintf+0x3e4>
100037f0:	2a0a      	cmp	r2, #10
100037f2:	d027      	beq.n	10003844 <_vsnprintf+0x25c>
100037f4:	2a07      	cmp	r2, #7
100037f6:	d11f      	bne.n	10003838 <_vsnprintf+0x250>
100037f8:	f043 0321 	orr.w	r3, r3, #33	@ 0x21
100037fc:	9305      	str	r3, [sp, #20]
100037fe:	2308      	movs	r3, #8
10003800:	9304      	str	r3, [sp, #16]
10003802:	2310      	movs	r3, #16
10003804:	9103      	str	r1, [sp, #12]
10003806:	f8cd c004 	str.w	ip, [sp, #4]
1000380a:	9302      	str	r3, [sp, #8]
1000380c:	f85a 3b04 	ldr.w	r3, [sl], #4
10003810:	462a      	mov	r2, r5
10003812:	9300      	str	r3, [sp, #0]
10003814:	4659      	mov	r1, fp
10003816:	4643      	mov	r3, r8
10003818:	4648      	mov	r0, r9
1000381a:	f7ff f9ad 	bl	10002b78 <_ntoa_long>
1000381e:	4605      	mov	r5, r0
10003820:	e6fe      	b.n	10003620 <_vsnprintf+0x38>
10003822:	f85a 6b04 	ldr.w	r6, [sl], #4
10003826:	7860      	ldrb	r0, [r4, #1]
10003828:	2e00      	cmp	r6, #0
1000382a:	4614      	mov	r4, r2
1000382c:	bfbc      	itt	lt
1000382e:	f043 0302 	orrlt.w	r3, r3, #2
10003832:	4276      	neglt	r6, r6
10003834:	3201      	adds	r2, #1
10003836:	e717      	b.n	10003668 <_vsnprintf+0x80>
10003838:	462a      	mov	r2, r5
1000383a:	4643      	mov	r3, r8
1000383c:	4659      	mov	r1, fp
1000383e:	3501      	adds	r5, #1
10003840:	47c8      	blx	r9
10003842:	e6ed      	b.n	10003620 <_vsnprintf+0x38>
10003844:	4652      	mov	r2, sl
10003846:	f852 eb04 	ldr.w	lr, [r2], #4
1000384a:	2900      	cmp	r1, #0
1000384c:	f89e 0000 	ldrb.w	r0, [lr]
10003850:	bf14      	ite	ne
10003852:	468a      	movne	sl, r1
10003854:	f04f 3aff 	moveq.w	sl, #4294967295	@ 0xffffffff
10003858:	920b      	str	r2, [sp, #44]	@ 0x2c
1000385a:	2800      	cmp	r0, #0
1000385c:	f000 8207 	beq.w	10003c6e <_vsnprintf+0x686>
10003860:	4672      	mov	r2, lr
10003862:	44f2      	add	sl, lr
10003864:	e00b      	b.n	1000387e <_vsnprintf+0x296>
10003866:	bf00      	nop
10003868:	100035e9 	.word	0x100035e9
1000386c:	20002358 	.word	0x20002358
10003870:	10002905 	.word	0x10002905
10003874:	f812 7f01 	ldrb.w	r7, [r2, #1]!
10003878:	2f00      	cmp	r7, #0
1000387a:	f000 80f4 	beq.w	10003a66 <_vsnprintf+0x47e>
1000387e:	4592      	cmp	sl, r2
10003880:	d1f8      	bne.n	10003874 <_vsnprintf+0x28c>
10003882:	ebaa 020e 	sub.w	r2, sl, lr
10003886:	920a      	str	r2, [sp, #40]	@ 0x28
10003888:	f413 6780 	ands.w	r7, r3, #1024	@ 0x400
1000388c:	d004      	beq.n	10003898 <_vsnprintf+0x2b0>
1000388e:	9a0a      	ldr	r2, [sp, #40]	@ 0x28
10003890:	428a      	cmp	r2, r1
10003892:	bf28      	it	cs
10003894:	460a      	movcs	r2, r1
10003896:	920a      	str	r2, [sp, #40]	@ 0x28
10003898:	f013 0302 	ands.w	r3, r3, #2
1000389c:	f000 8111 	beq.w	10003ac2 <_vsnprintf+0x4da>
100038a0:	f04f 0c02 	mov.w	ip, #2
100038a4:	960c      	str	r6, [sp, #48]	@ 0x30
100038a6:	46f2      	mov	sl, lr
100038a8:	462a      	mov	r2, r5
100038aa:	460e      	mov	r6, r1
100038ac:	f8cd c034 	str.w	ip, [sp, #52]	@ 0x34
100038b0:	b127      	cbz	r7, 100038bc <_vsnprintf+0x2d4>
100038b2:	1e73      	subs	r3, r6, #1
100038b4:	2e00      	cmp	r6, #0
100038b6:	f000 80c9 	beq.w	10003a4c <_vsnprintf+0x464>
100038ba:	461e      	mov	r6, r3
100038bc:	4643      	mov	r3, r8
100038be:	4659      	mov	r1, fp
100038c0:	47c8      	blx	r9
100038c2:	f81a 0f01 	ldrb.w	r0, [sl, #1]!
100038c6:	3501      	adds	r5, #1
100038c8:	2800      	cmp	r0, #0
100038ca:	f000 80bf 	beq.w	10003a4c <_vsnprintf+0x464>
100038ce:	462a      	mov	r2, r5
100038d0:	e7ee      	b.n	100038b0 <_vsnprintf+0x2c8>
100038d2:	7860      	ldrb	r0, [r4, #1]
100038d4:	286c      	cmp	r0, #108	@ 0x6c
100038d6:	f47f aef9 	bne.w	100036cc <_vsnprintf+0xe4>
100038da:	78a0      	ldrb	r0, [r4, #2]
100038dc:	f443 7340 	orr.w	r3, r3, #768	@ 0x300
100038e0:	1ce2      	adds	r2, r4, #3
100038e2:	e6f6      	b.n	100036d2 <_vsnprintf+0xea>
100038e4:	7860      	ldrb	r0, [r4, #1]
100038e6:	f443 7300 	orr.w	r3, r3, #512	@ 0x200
100038ea:	3201      	adds	r2, #1
100038ec:	e6f1      	b.n	100036d2 <_vsnprintf+0xea>
100038ee:	7860      	ldrb	r0, [r4, #1]
100038f0:	2868      	cmp	r0, #104	@ 0x68
100038f2:	f000 80bc 	beq.w	10003a6e <_vsnprintf+0x486>
100038f6:	f043 0380 	orr.w	r3, r3, #128	@ 0x80
100038fa:	3201      	adds	r2, #1
100038fc:	e6e9      	b.n	100036d2 <_vsnprintf+0xea>
100038fe:	2867      	cmp	r0, #103	@ 0x67
10003900:	f000 809f 	beq.w	10003a42 <_vsnprintf+0x45a>
10003904:	2847      	cmp	r0, #71	@ 0x47
10003906:	f000 80a9 	beq.w	10003a5c <_vsnprintf+0x474>
1000390a:	2845      	cmp	r0, #69	@ 0x45
1000390c:	f000 80a8 	beq.w	10003a60 <_vsnprintf+0x478>
10003910:	e9cd 6303 	strd	r6, r3, [sp, #12]
10003914:	f10a 0a07 	add.w	sl, sl, #7
10003918:	9102      	str	r1, [sp, #8]
1000391a:	f02a 0a07 	bic.w	sl, sl, #7
1000391e:	462a      	mov	r2, r5
10003920:	e8fa 6702 	ldrd	r6, r7, [sl], #8
10003924:	4643      	mov	r3, r8
10003926:	4659      	mov	r1, fp
10003928:	4648      	mov	r0, r9
1000392a:	e9cd 6700 	strd	r6, r7, [sp]
1000392e:	f7ff f9cb 	bl	10002cc8 <_etoa>
10003932:	4605      	mov	r5, r0
10003934:	e674      	b.n	10003620 <_vsnprintf+0x38>
10003936:	2846      	cmp	r0, #70	@ 0x46
10003938:	bf08      	it	eq
1000393a:	f043 0320 	orreq.w	r3, r3, #32
1000393e:	e9cd 6303 	strd	r6, r3, [sp, #12]
10003942:	f10a 0a07 	add.w	sl, sl, #7
10003946:	9102      	str	r1, [sp, #8]
10003948:	f02a 0a07 	bic.w	sl, sl, #7
1000394c:	462a      	mov	r2, r5
1000394e:	e8fa 6702 	ldrd	r6, r7, [sl], #8
10003952:	4643      	mov	r3, r8
10003954:	4659      	mov	r1, fp
10003956:	4648      	mov	r0, r9
10003958:	e9cd 6700 	strd	r6, r7, [sp]
1000395c:	f7ff fc48 	bl	100031f0 <_ftoa>
10003960:	4605      	mov	r5, r0
10003962:	e65d      	b.n	10003620 <_vsnprintf+0x38>
10003964:	462a      	mov	r2, r5
10003966:	4643      	mov	r3, r8
10003968:	4659      	mov	r1, fp
1000396a:	2025      	movs	r0, #37	@ 0x25
1000396c:	3501      	adds	r5, #1
1000396e:	47c8      	blx	r9
10003970:	e656      	b.n	10003620 <_vsnprintf+0x38>
10003972:	f10a 0204 	add.w	r2, sl, #4
10003976:	079b      	lsls	r3, r3, #30
10003978:	f105 0701 	add.w	r7, r5, #1
1000397c:	920a      	str	r2, [sp, #40]	@ 0x28
1000397e:	f140 8082 	bpl.w	10003a86 <_vsnprintf+0x49e>
10003982:	462a      	mov	r2, r5
10003984:	4643      	mov	r3, r8
10003986:	4659      	mov	r1, fp
10003988:	f89a 0000 	ldrb.w	r0, [sl]
1000398c:	47c8      	blx	r9
1000398e:	2e01      	cmp	r6, #1
10003990:	bf88      	it	hi
10003992:	19ad      	addhi	r5, r5, r6
10003994:	f240 812a 	bls.w	10003bec <_vsnprintf+0x604>
10003998:	463a      	mov	r2, r7
1000399a:	4643      	mov	r3, r8
1000399c:	4659      	mov	r1, fp
1000399e:	2020      	movs	r0, #32
100039a0:	3701      	adds	r7, #1
100039a2:	47c8      	blx	r9
100039a4:	42bd      	cmp	r5, r7
100039a6:	d1f7      	bne.n	10003998 <_vsnprintf+0x3b0>
100039a8:	f8dd a028 	ldr.w	sl, [sp, #40]	@ 0x28
100039ac:	e638      	b.n	10003620 <_vsnprintf+0x38>
100039ae:	2100      	movs	r1, #0
100039b0:	eb01 0181 	add.w	r1, r1, r1, lsl #2
100039b4:	eb00 0141 	add.w	r1, r0, r1, lsl #1
100039b8:	f817 0f01 	ldrb.w	r0, [r7, #1]!
100039bc:	3930      	subs	r1, #48	@ 0x30
100039be:	f1a0 0230 	sub.w	r2, r0, #48	@ 0x30
100039c2:	2a09      	cmp	r2, #9
100039c4:	d9f4      	bls.n	100039b0 <_vsnprintf+0x3c8>
100039c6:	463c      	mov	r4, r7
100039c8:	1c7a      	adds	r2, r7, #1
100039ca:	e651      	b.n	10003670 <_vsnprintf+0x88>
100039cc:	286f      	cmp	r0, #111	@ 0x6f
100039ce:	d03b      	beq.n	10003a48 <_vsnprintf+0x460>
100039d0:	f240 8125 	bls.w	10003c1e <_vsnprintf+0x636>
100039d4:	2878      	cmp	r0, #120	@ 0x78
100039d6:	f000 80f7 	beq.w	10003bc8 <_vsnprintf+0x5e0>
100039da:	220a      	movs	r2, #10
100039dc:	f023 0310 	bic.w	r3, r3, #16
100039e0:	e00e      	b.n	10003a00 <_vsnprintf+0x418>
100039e2:	f85a 1b04 	ldr.w	r1, [sl], #4
100039e6:	78a0      	ldrb	r0, [r4, #2]
100039e8:	3402      	adds	r4, #2
100039ea:	1c62      	adds	r2, r4, #1
100039ec:	ea21 71e1 	bic.w	r1, r1, r1, asr #31
100039f0:	e63e      	b.n	10003670 <_vsnprintf+0x88>
100039f2:	2858      	cmp	r0, #88	@ 0x58
100039f4:	d043      	beq.n	10003a7e <_vsnprintf+0x496>
100039f6:	2862      	cmp	r0, #98	@ 0x62
100039f8:	bf08      	it	eq
100039fa:	2202      	moveq	r2, #2
100039fc:	f040 8098 	bne.w	10003b30 <_vsnprintf+0x548>
10003a00:	0558      	lsls	r0, r3, #21
10003a02:	f140 80bc 	bpl.w	10003b7e <_vsnprintf+0x596>
10003a06:	f023 030d 	bic.w	r3, r3, #13
10003a0a:	f413 7000 	ands.w	r0, r3, #512	@ 0x200
10003a0e:	f040 80ef 	bne.w	10003bf0 <_vsnprintf+0x608>
10003a12:	f413 7f80 	tst.w	r3, #256	@ 0x100
10003a16:	f10a 0704 	add.w	r7, sl, #4
10003a1a:	f040 8117 	bne.w	10003c4c <_vsnprintf+0x664>
10003a1e:	0658      	lsls	r0, r3, #25
10003a20:	f100 80d7 	bmi.w	10003bd2 <_vsnprintf+0x5ea>
10003a24:	0618      	lsls	r0, r3, #24
10003a26:	bf4c      	ite	mi
10003a28:	f8ba 0000 	ldrhmi.w	r0, [sl]
10003a2c:	f8da 0000 	ldrpl.w	r0, [sl]
10003a30:	e9cd 6304 	strd	r6, r3, [sp, #16]
10003a34:	2300      	movs	r3, #0
10003a36:	e9cd 2102 	strd	r2, r1, [sp, #8]
10003a3a:	9000      	str	r0, [sp, #0]
10003a3c:	462a      	mov	r2, r5
10003a3e:	9301      	str	r3, [sp, #4]
10003a40:	e095      	b.n	10003b6e <_vsnprintf+0x586>
10003a42:	f443 6300 	orr.w	r3, r3, #2048	@ 0x800
10003a46:	e763      	b.n	10003910 <_vsnprintf+0x328>
10003a48:	2208      	movs	r2, #8
10003a4a:	e7d9      	b.n	10003a00 <_vsnprintf+0x418>
10003a4c:	e9dd 6c0c 	ldrd	r6, ip, [sp, #48]	@ 0x30
10003a50:	f1bc 0f00 	cmp.w	ip, #0
10003a54:	d15d      	bne.n	10003b12 <_vsnprintf+0x52a>
10003a56:	f8dd a02c 	ldr.w	sl, [sp, #44]	@ 0x2c
10003a5a:	e5e1      	b.n	10003620 <_vsnprintf+0x38>
10003a5c:	f443 6300 	orr.w	r3, r3, #2048	@ 0x800
10003a60:	f043 0320 	orr.w	r3, r3, #32
10003a64:	e754      	b.n	10003910 <_vsnprintf+0x328>
10003a66:	eba2 020e 	sub.w	r2, r2, lr
10003a6a:	920a      	str	r2, [sp, #40]	@ 0x28
10003a6c:	e70c      	b.n	10003888 <_vsnprintf+0x2a0>
10003a6e:	78a0      	ldrb	r0, [r4, #2]
10003a70:	f043 03c0 	orr.w	r3, r3, #192	@ 0xc0
10003a74:	1ce2      	adds	r2, r4, #3
10003a76:	e62c      	b.n	100036d2 <_vsnprintf+0xea>
10003a78:	4604      	mov	r4, r0
10003a7a:	4605      	mov	r5, r0
10003a7c:	e69c      	b.n	100037b8 <_vsnprintf+0x1d0>
10003a7e:	2210      	movs	r2, #16
10003a80:	f043 0320 	orr.w	r3, r3, #32
10003a84:	e7bc      	b.n	10003a00 <_vsnprintf+0x418>
10003a86:	2e01      	cmp	r6, #1
10003a88:	f240 80aa 	bls.w	10003be0 <_vsnprintf+0x5f8>
10003a8c:	1e6b      	subs	r3, r5, #1
10003a8e:	4433      	add	r3, r6
10003a90:	f8cd a02c 	str.w	sl, [sp, #44]	@ 0x2c
10003a94:	462f      	mov	r7, r5
10003a96:	469a      	mov	sl, r3
10003a98:	463a      	mov	r2, r7
10003a9a:	4643      	mov	r3, r8
10003a9c:	4659      	mov	r1, fp
10003a9e:	2020      	movs	r0, #32
10003aa0:	3701      	adds	r7, #1
10003aa2:	47c8      	blx	r9
10003aa4:	45ba      	cmp	sl, r7
10003aa6:	d1f7      	bne.n	10003a98 <_vsnprintf+0x4b0>
10003aa8:	4653      	mov	r3, sl
10003aaa:	f8dd a02c 	ldr.w	sl, [sp, #44]	@ 0x2c
10003aae:	461a      	mov	r2, r3
10003ab0:	f89a 0000 	ldrb.w	r0, [sl]
10003ab4:	4643      	mov	r3, r8
10003ab6:	4659      	mov	r1, fp
10003ab8:	47c8      	blx	r9
10003aba:	4435      	add	r5, r6
10003abc:	f8dd a028 	ldr.w	sl, [sp, #40]	@ 0x28
10003ac0:	e5ae      	b.n	10003620 <_vsnprintf+0x38>
10003ac2:	9a0a      	ldr	r2, [sp, #40]	@ 0x28
10003ac4:	4296      	cmp	r6, r2
10003ac6:	f240 80e7 	bls.w	10003c98 <_vsnprintf+0x6b0>
10003aca:	9b0a      	ldr	r3, [sp, #40]	@ 0x28
10003acc:	eb06 0a05 	add.w	sl, r6, r5
10003ad0:	e9cd e60c 	strd	lr, r6, [sp, #48]	@ 0x30
10003ad4:	970a      	str	r7, [sp, #40]	@ 0x28
10003ad6:	460e      	mov	r6, r1
10003ad8:	4667      	mov	r7, ip
10003ada:	ebaa 0a03 	sub.w	sl, sl, r3
10003ade:	462a      	mov	r2, r5
10003ae0:	4643      	mov	r3, r8
10003ae2:	4659      	mov	r1, fp
10003ae4:	2020      	movs	r0, #32
10003ae6:	3501      	adds	r5, #1
10003ae8:	47c8      	blx	r9
10003aea:	45aa      	cmp	sl, r5
10003aec:	d1f7      	bne.n	10003ade <_vsnprintf+0x4f6>
10003aee:	f8dd e030 	ldr.w	lr, [sp, #48]	@ 0x30
10003af2:	4631      	mov	r1, r6
10003af4:	9e0d      	ldr	r6, [sp, #52]	@ 0x34
10003af6:	f89e 0000 	ldrb.w	r0, [lr]
10003afa:	1c73      	adds	r3, r6, #1
10003afc:	46bc      	mov	ip, r7
10003afe:	9f0a      	ldr	r7, [sp, #40]	@ 0x28
10003b00:	930a      	str	r3, [sp, #40]	@ 0x28
10003b02:	2800      	cmp	r0, #0
10003b04:	f47f aece 	bne.w	100038a4 <_vsnprintf+0x2bc>
10003b08:	e7a5      	b.n	10003a56 <_vsnprintf+0x46e>
10003b0a:	f013 0702 	ands.w	r7, r3, #2
10003b0e:	f000 80bd 	beq.w	10003c8c <_vsnprintf+0x6a4>
10003b12:	462f      	mov	r7, r5
10003b14:	9b0a      	ldr	r3, [sp, #40]	@ 0x28
10003b16:	429e      	cmp	r6, r3
10003b18:	d99d      	bls.n	10003a56 <_vsnprintf+0x46e>
10003b1a:	4435      	add	r5, r6
10003b1c:	1aed      	subs	r5, r5, r3
10003b1e:	463a      	mov	r2, r7
10003b20:	4643      	mov	r3, r8
10003b22:	4659      	mov	r1, fp
10003b24:	2020      	movs	r0, #32
10003b26:	3701      	adds	r7, #1
10003b28:	47c8      	blx	r9
10003b2a:	42bd      	cmp	r5, r7
10003b2c:	d1f7      	bne.n	10003b1e <_vsnprintf+0x536>
10003b2e:	e792      	b.n	10003a56 <_vsnprintf+0x46e>
10003b30:	055f      	lsls	r7, r3, #21
10003b32:	d54b      	bpl.n	10003bcc <_vsnprintf+0x5e4>
10003b34:	f023 0211 	bic.w	r2, r3, #17
10003b38:	0590      	lsls	r0, r2, #22
10003b3a:	d423      	bmi.n	10003b84 <_vsnprintf+0x59c>
10003b3c:	05d3      	lsls	r3, r2, #23
10003b3e:	f10a 0704 	add.w	r7, sl, #4
10003b42:	d473      	bmi.n	10003c2c <_vsnprintf+0x644>
10003b44:	0650      	lsls	r0, r2, #25
10003b46:	d43b      	bmi.n	10003bc0 <_vsnprintf+0x5d8>
10003b48:	0613      	lsls	r3, r2, #24
10003b4a:	f140 8089 	bpl.w	10003c60 <_vsnprintf+0x678>
10003b4e:	f9ba 3000 	ldrsh.w	r3, [sl]
10003b52:	ea83 70e3 	eor.w	r0, r3, r3, asr #31
10003b56:	eba0 70e3 	sub.w	r0, r0, r3, asr #31
10003b5a:	b280      	uxth	r0, r0
10003b5c:	0fdb      	lsrs	r3, r3, #31
10003b5e:	9301      	str	r3, [sp, #4]
10003b60:	230a      	movs	r3, #10
10003b62:	e9cd 6204 	strd	r6, r2, [sp, #16]
10003b66:	462a      	mov	r2, r5
10003b68:	9103      	str	r1, [sp, #12]
10003b6a:	9000      	str	r0, [sp, #0]
10003b6c:	9302      	str	r3, [sp, #8]
10003b6e:	4643      	mov	r3, r8
10003b70:	4659      	mov	r1, fp
10003b72:	4648      	mov	r0, r9
10003b74:	f7ff f800 	bl	10002b78 <_ntoa_long>
10003b78:	46ba      	mov	sl, r7
10003b7a:	4605      	mov	r5, r0
10003b7c:	e550      	b.n	10003620 <_vsnprintf+0x38>
10003b7e:	f023 030c 	bic.w	r3, r3, #12
10003b82:	e742      	b.n	10003a0a <_vsnprintf+0x422>
10003b84:	ed9f 7b48 	vldr	d7, [pc, #288]	@ 10003ca8 <_vsnprintf+0x6c0>
10003b88:	f10a 0a07 	add.w	sl, sl, #7
10003b8c:	f02a 0a07 	bic.w	sl, sl, #7
10003b90:	f8da 3004 	ldr.w	r3, [sl, #4]
10003b94:	f85a 0b08 	ldr.w	r0, [sl], #8
10003b98:	0fdf      	lsrs	r7, r3, #31
10003b9a:	2b00      	cmp	r3, #0
10003b9c:	e9cd 6207 	strd	r6, r2, [sp, #28]
10003ba0:	ed8d 7b04 	vstr	d7, [sp, #16]
10003ba4:	4602      	mov	r2, r0
10003ba6:	9106      	str	r1, [sp, #24]
10003ba8:	9702      	str	r7, [sp, #8]
10003baa:	db15      	blt.n	10003bd8 <_vsnprintf+0x5f0>
10003bac:	e9cd 2300 	strd	r2, r3, [sp]
10003bb0:	4659      	mov	r1, fp
10003bb2:	462a      	mov	r2, r5
10003bb4:	4643      	mov	r3, r8
10003bb6:	4648      	mov	r0, r9
10003bb8:	f7ff f828 	bl	10002c0c <_ntoa_long_long>
10003bbc:	4605      	mov	r5, r0
10003bbe:	e52f      	b.n	10003620 <_vsnprintf+0x38>
10003bc0:	f89a 3000 	ldrb.w	r3, [sl]
10003bc4:	4618      	mov	r0, r3
10003bc6:	e7c9      	b.n	10003b5c <_vsnprintf+0x574>
10003bc8:	2210      	movs	r2, #16
10003bca:	e719      	b.n	10003a00 <_vsnprintf+0x418>
10003bcc:	f023 0210 	bic.w	r2, r3, #16
10003bd0:	e7b2      	b.n	10003b38 <_vsnprintf+0x550>
10003bd2:	f89a 0000 	ldrb.w	r0, [sl]
10003bd6:	e72b      	b.n	10003a30 <_vsnprintf+0x448>
10003bd8:	4242      	negs	r2, r0
10003bda:	eb63 0343 	sbc.w	r3, r3, r3, lsl #1
10003bde:	e7e5      	b.n	10003bac <_vsnprintf+0x5c4>
10003be0:	462a      	mov	r2, r5
10003be2:	4643      	mov	r3, r8
10003be4:	4659      	mov	r1, fp
10003be6:	f89a 0000 	ldrb.w	r0, [sl]
10003bea:	47c8      	blx	r9
10003bec:	463d      	mov	r5, r7
10003bee:	e6db      	b.n	100039a8 <_vsnprintf+0x3c0>
10003bf0:	9204      	str	r2, [sp, #16]
10003bf2:	462a      	mov	r2, r5
10003bf4:	2500      	movs	r5, #0
10003bf6:	e9cd 6307 	strd	r6, r3, [sp, #28]
10003bfa:	f10a 0a07 	add.w	sl, sl, #7
10003bfe:	9106      	str	r1, [sp, #24]
10003c00:	9505      	str	r5, [sp, #20]
10003c02:	9502      	str	r5, [sp, #8]
10003c04:	f02a 0a07 	bic.w	sl, sl, #7
10003c08:	e8fa 6702 	ldrd	r6, r7, [sl], #8
10003c0c:	4643      	mov	r3, r8
10003c0e:	4659      	mov	r1, fp
10003c10:	4648      	mov	r0, r9
10003c12:	e9cd 6700 	strd	r6, r7, [sp]
10003c16:	f7fe fff9 	bl	10002c0c <_ntoa_long_long>
10003c1a:	4605      	mov	r5, r0
10003c1c:	e500      	b.n	10003620 <_vsnprintf+0x38>
10003c1e:	2869      	cmp	r0, #105	@ 0x69
10003c20:	f023 0210 	bic.w	r2, r3, #16
10003c24:	d12d      	bne.n	10003c82 <_vsnprintf+0x69a>
10003c26:	055f      	lsls	r7, r3, #21
10003c28:	d586      	bpl.n	10003b38 <_vsnprintf+0x550>
10003c2a:	e783      	b.n	10003b34 <_vsnprintf+0x54c>
10003c2c:	f8da 3000 	ldr.w	r3, [sl]
10003c30:	9103      	str	r1, [sp, #12]
10003c32:	210a      	movs	r1, #10
10003c34:	9102      	str	r1, [sp, #8]
10003c36:	ea83 71e3 	eor.w	r1, r3, r3, asr #31
10003c3a:	eba1 71e3 	sub.w	r1, r1, r3, asr #31
10003c3e:	0fdb      	lsrs	r3, r3, #31
10003c40:	e9cd 6204 	strd	r6, r2, [sp, #16]
10003c44:	e9cd 1300 	strd	r1, r3, [sp]
10003c48:	462a      	mov	r2, r5
10003c4a:	e790      	b.n	10003b6e <_vsnprintf+0x586>
10003c4c:	e9cd 2102 	strd	r2, r1, [sp, #8]
10003c50:	e9cd 6304 	strd	r6, r3, [sp, #16]
10003c54:	9001      	str	r0, [sp, #4]
10003c56:	f8da 3000 	ldr.w	r3, [sl]
10003c5a:	462a      	mov	r2, r5
10003c5c:	9300      	str	r3, [sp, #0]
10003c5e:	e786      	b.n	10003b6e <_vsnprintf+0x586>
10003c60:	f8da 3000 	ldr.w	r3, [sl]
10003c64:	ea83 70e3 	eor.w	r0, r3, r3, asr #31
10003c68:	eba0 70e3 	sub.w	r0, r0, r3, asr #31
10003c6c:	e776      	b.n	10003b5c <_vsnprintf+0x574>
10003c6e:	f413 6280 	ands.w	r2, r3, #1024	@ 0x400
10003c72:	920a      	str	r2, [sp, #40]	@ 0x28
10003c74:	f43f af49 	beq.w	10003b0a <_vsnprintf+0x522>
10003c78:	079f      	lsls	r7, r3, #30
10003c7a:	d505      	bpl.n	10003c88 <_vsnprintf+0x6a0>
10003c7c:	462f      	mov	r7, r5
10003c7e:	900a      	str	r0, [sp, #40]	@ 0x28
10003c80:	e748      	b.n	10003b14 <_vsnprintf+0x52c>
10003c82:	4613      	mov	r3, r2
10003c84:	220a      	movs	r2, #10
10003c86:	e6bb      	b.n	10003a00 <_vsnprintf+0x418>
10003c88:	f44f 6780 	mov.w	r7, #1024	@ 0x400
10003c8c:	2e00      	cmp	r6, #0
10003c8e:	f43f aee2 	beq.w	10003a56 <_vsnprintf+0x46e>
10003c92:	2300      	movs	r3, #0
10003c94:	930a      	str	r3, [sp, #40]	@ 0x28
10003c96:	e718      	b.n	10003aca <_vsnprintf+0x4e2>
10003c98:	469c      	mov	ip, r3
10003c9a:	4613      	mov	r3, r2
10003c9c:	3301      	adds	r3, #1
10003c9e:	930a      	str	r3, [sp, #40]	@ 0x28
10003ca0:	e600      	b.n	100038a4 <_vsnprintf+0x2bc>
10003ca2:	bf00      	nop
10003ca4:	f3af 8000 	nop.w
10003ca8:	0000000a 	.word	0x0000000a
10003cac:	00000000 	.word	0x00000000

10003cb0 <__wrap_sprintf>:
10003cb0:	b40e      	push	{r1, r2, r3}
10003cb2:	b510      	push	{r4, lr}
10003cb4:	b085      	sub	sp, #20
10003cb6:	ac07      	add	r4, sp, #28
10003cb8:	f854 3b04 	ldr.w	r3, [r4], #4
10003cbc:	4601      	mov	r1, r0
10003cbe:	f04f 32ff 	mov.w	r2, #4294967295	@ 0xffffffff
10003cc2:	9400      	str	r4, [sp, #0]
10003cc4:	4804      	ldr	r0, [pc, #16]	@ (10003cd8 <__wrap_sprintf+0x28>)
10003cc6:	9403      	str	r4, [sp, #12]
10003cc8:	f7ff fc8e 	bl	100035e8 <_vsnprintf>
10003ccc:	b005      	add	sp, #20
10003cce:	e8bd 4010 	ldmia.w	sp!, {r4, lr}
10003cd2:	b003      	add	sp, #12
10003cd4:	4770      	bx	lr
10003cd6:	bf00      	nop
10003cd8:	100028fd 	.word	0x100028fd

10003cdc <vfctprintf>:
10003cdc:	b570      	push	{r4, r5, r6, lr}
10003cde:	4694      	mov	ip, r2
10003ce0:	461e      	mov	r6, r3
10003ce2:	4605      	mov	r5, r0
10003ce4:	460c      	mov	r4, r1
10003ce6:	b084      	sub	sp, #16
10003ce8:	f04f 32ff 	mov.w	r2, #4294967295	@ 0xffffffff
10003cec:	4663      	mov	r3, ip
10003cee:	a902      	add	r1, sp, #8
10003cf0:	9600      	str	r6, [sp, #0]
10003cf2:	4803      	ldr	r0, [pc, #12]	@ (10003d00 <vfctprintf+0x24>)
10003cf4:	e9cd 5402 	strd	r5, r4, [sp, #8]
10003cf8:	f7ff fc76 	bl	100035e8 <_vsnprintf>
10003cfc:	b004      	add	sp, #16
10003cfe:	bd70      	pop	{r4, r5, r6, pc}
10003d00:	100035dd 	.word	0x100035dd

10003d04 <weak_raw_printf>:
10003d04:	b40f      	push	{r0, r1, r2, r3}
10003d06:	b510      	push	{r4, lr}
10003d08:	4b0e      	ldr	r3, [pc, #56]	@ (10003d44 <weak_raw_printf+0x40>)
10003d0a:	b084      	sub	sp, #16
10003d0c:	a906      	add	r1, sp, #24
10003d0e:	681c      	ldr	r4, [r3, #0]
10003d10:	f851 3b04 	ldr.w	r3, [r1], #4
10003d14:	9103      	str	r1, [sp, #12]
10003d16:	b15c      	cbz	r4, 10003d30 <weak_raw_printf+0x2c>
10003d18:	9100      	str	r1, [sp, #0]
10003d1a:	f04f 32ff 	mov.w	r2, #4294967295	@ 0xffffffff
10003d1e:	a902      	add	r1, sp, #8
10003d20:	4809      	ldr	r0, [pc, #36]	@ (10003d48 <weak_raw_printf+0x44>)
10003d22:	47a0      	blx	r4
10003d24:	2001      	movs	r0, #1
10003d26:	b004      	add	sp, #16
10003d28:	e8bd 4010 	ldmia.w	sp!, {r4, lr}
10003d2c:	b004      	add	sp, #16
10003d2e:	4770      	bx	lr
10003d30:	4618      	mov	r0, r3
10003d32:	f000 f9db 	bl	100040ec <__wrap_puts>
10003d36:	4620      	mov	r0, r4
10003d38:	b004      	add	sp, #16
10003d3a:	e8bd 4010 	ldmia.w	sp!, {r4, lr}
10003d3e:	b004      	add	sp, #16
10003d40:	4770      	bx	lr
10003d42:	bf00      	nop
10003d44:	20002358 	.word	0x20002358
10003d48:	100035d5 	.word	0x100035d5

10003d4c <weak_raw_vprintf>:
10003d4c:	b510      	push	{r4, lr}
10003d4e:	4b09      	ldr	r3, [pc, #36]	@ (10003d74 <weak_raw_vprintf+0x28>)
10003d50:	b084      	sub	sp, #16
10003d52:	681c      	ldr	r4, [r3, #0]
10003d54:	b14c      	cbz	r4, 10003d6a <weak_raw_vprintf+0x1e>
10003d56:	4603      	mov	r3, r0
10003d58:	9100      	str	r1, [sp, #0]
10003d5a:	f04f 32ff 	mov.w	r2, #4294967295	@ 0xffffffff
10003d5e:	a903      	add	r1, sp, #12
10003d60:	4805      	ldr	r0, [pc, #20]	@ (10003d78 <weak_raw_vprintf+0x2c>)
10003d62:	47a0      	blx	r4
10003d64:	2001      	movs	r0, #1
10003d66:	b004      	add	sp, #16
10003d68:	bd10      	pop	{r4, pc}
10003d6a:	f000 f9bf 	bl	100040ec <__wrap_puts>
10003d6e:	4620      	mov	r0, r4
10003d70:	b004      	add	sp, #16
10003d72:	bd10      	pop	{r4, pc}
10003d74:	20002358 	.word	0x20002358
10003d78:	100035d5 	.word	0x100035d5

10003d7c <_exit>:
10003d7c:	be00      	bkpt	0x0000
10003d7e:	e7fd      	b.n	10003d7c <_exit>

10003d80 <_sbrk>:
10003d80:	4a07      	ldr	r2, [pc, #28]	@ (10003da0 <_sbrk+0x20>)
10003d82:	4603      	mov	r3, r0
10003d84:	6810      	ldr	r0, [r2, #0]
10003d86:	b138      	cbz	r0, 10003d98 <_sbrk+0x18>
10003d88:	4906      	ldr	r1, [pc, #24]	@ (10003da4 <_sbrk+0x24>)
10003d8a:	4403      	add	r3, r0
10003d8c:	428b      	cmp	r3, r1
10003d8e:	bf8c      	ite	hi
10003d90:	f04f 30ff 	movhi.w	r0, #4294967295	@ 0xffffffff
10003d94:	6013      	strls	r3, [r2, #0]
10003d96:	4770      	bx	lr
10003d98:	4903      	ldr	r1, [pc, #12]	@ (10003da8 <_sbrk+0x28>)
10003d9a:	4608      	mov	r0, r1
10003d9c:	6011      	str	r1, [r2, #0]
10003d9e:	e7f3      	b.n	10003d88 <_sbrk+0x8>
10003da0:	20001f50 	.word	0x20001f50
10003da4:	20080000 	.word	0x20080000
10003da8:	200023bc 	.word	0x200023bc

10003dac <exit>:
10003dac:	b508      	push	{r3, lr}
10003dae:	f7ff ffe5 	bl	10003d7c <_exit>
10003db2:	bf00      	nop

10003db4 <__assert_func>:
10003db4:	469c      	mov	ip, r3
10003db6:	4614      	mov	r4, r2
10003db8:	b500      	push	{lr}
10003dba:	460b      	mov	r3, r1
10003dbc:	4602      	mov	r2, r0
10003dbe:	4661      	mov	r1, ip
10003dc0:	b083      	sub	sp, #12
10003dc2:	b144      	cbz	r4, 10003dd6 <__assert_func+0x22>
10003dc4:	4d05      	ldr	r5, [pc, #20]	@ (10003ddc <__assert_func+0x28>)
10003dc6:	4806      	ldr	r0, [pc, #24]	@ (10003de0 <__assert_func+0x2c>)
10003dc8:	9401      	str	r4, [sp, #4]
10003dca:	9500      	str	r5, [sp, #0]
10003dcc:	f7ff ff9a 	bl	10003d04 <weak_raw_printf>
10003dd0:	2001      	movs	r0, #1
10003dd2:	f7ff ffd3 	bl	10003d7c <_exit>
10003dd6:	4d03      	ldr	r5, [pc, #12]	@ (10003de4 <__assert_func+0x30>)
10003dd8:	462c      	mov	r4, r5
10003dda:	e7f4      	b.n	10003dc6 <__assert_func+0x12>
10003ddc:	1000c84c 	.word	0x1000c84c
10003de0:	1000c85c 	.word	0x1000c85c
10003de4:	1000c438 	.word	0x1000c438

10003de8 <runtime_init>:
10003de8:	b538      	push	{r3, r4, r5, lr}
10003dea:	4c06      	ldr	r4, [pc, #24]	@ (10003e04 <runtime_init+0x1c>)
10003dec:	4d06      	ldr	r5, [pc, #24]	@ (10003e08 <runtime_init+0x20>)
10003dee:	f7fe f99b 	bl	10002128 <runtime_run_initializers>
10003df2:	42ac      	cmp	r4, r5
10003df4:	d204      	bcs.n	10003e00 <runtime_init+0x18>
10003df6:	f854 3b04 	ldr.w	r3, [r4], #4
10003dfa:	4798      	blx	r3
10003dfc:	42ac      	cmp	r4, r5
10003dfe:	d3fa      	bcc.n	10003df6 <runtime_init+0xe>
10003e00:	bd38      	pop	{r3, r4, r5, pc}
10003e02:	bf00      	nop
10003e04:	1000c1b8 	.word	0x1000c1b8
10003e08:	1000c1c0 	.word	0x1000c1c0

10003e0c <stdio_out_chars_no_crlf>:
10003e0c:	6803      	ldr	r3, [r0, #0]
10003e0e:	4608      	mov	r0, r1
10003e10:	4611      	mov	r1, r2
10003e12:	4718      	bx	r3

10003e14 <stdio_out_chars_crlf>:
10003e14:	e92d 47f0 	stmdb	sp!, {r4, r5, r6, r7, r8, r9, sl, lr}
10003e18:	7d43      	ldrb	r3, [r0, #21]
10003e1a:	4680      	mov	r8, r0
10003e1c:	4689      	mov	r9, r1
10003e1e:	4617      	mov	r7, r2
10003e20:	2b00      	cmp	r3, #0
10003e22:	d043      	beq.n	10003eac <stdio_out_chars_crlf+0x98>
10003e24:	2a00      	cmp	r2, #0
10003e26:	dd32      	ble.n	10003e8e <stdio_out_chars_crlf+0x7a>
10003e28:	2400      	movs	r4, #0
10003e2a:	1e4d      	subs	r5, r1, #1
10003e2c:	46a2      	mov	sl, r4
10003e2e:	e006      	b.n	10003e3e <stdio_out_chars_crlf+0x2a>
10003e30:	786b      	ldrb	r3, [r5, #1]
10003e32:	2b0a      	cmp	r3, #10
10003e34:	d02d      	beq.n	10003e92 <stdio_out_chars_crlf+0x7e>
10003e36:	42a7      	cmp	r7, r4
10003e38:	f105 0501 	add.w	r5, r5, #1
10003e3c:	d015      	beq.n	10003e6a <stdio_out_chars_crlf+0x56>
10003e3e:	4626      	mov	r6, r4
10003e40:	3401      	adds	r4, #1
10003e42:	2e00      	cmp	r6, #0
10003e44:	d1f4      	bne.n	10003e30 <stdio_out_chars_crlf+0x1c>
10003e46:	f899 3000 	ldrb.w	r3, [r9]
10003e4a:	2b0a      	cmp	r3, #10
10003e4c:	d1f3      	bne.n	10003e36 <stdio_out_chars_crlf+0x22>
10003e4e:	f898 3014 	ldrb.w	r3, [r8, #20]
10003e52:	2b00      	cmp	r3, #0
10003e54:	d1ef      	bne.n	10003e36 <stdio_out_chars_crlf+0x22>
10003e56:	2102      	movs	r1, #2
10003e58:	4818      	ldr	r0, [pc, #96]	@ (10003ebc <stdio_out_chars_crlf+0xa8>)
10003e5a:	f8d8 3000 	ldr.w	r3, [r8]
10003e5e:	4798      	blx	r3
10003e60:	42a7      	cmp	r7, r4
10003e62:	46a2      	mov	sl, r4
10003e64:	f105 0501 	add.w	r5, r5, #1
10003e68:	d1e9      	bne.n	10003e3e <stdio_out_chars_crlf+0x2a>
10003e6a:	4557      	cmp	r7, sl
10003e6c:	dd06      	ble.n	10003e7c <stdio_out_chars_crlf+0x68>
10003e6e:	f8d8 3000 	ldr.w	r3, [r8]
10003e72:	eba7 010a 	sub.w	r1, r7, sl
10003e76:	eb09 000a 	add.w	r0, r9, sl
10003e7a:	4798      	blx	r3
10003e7c:	f819 3006 	ldrb.w	r3, [r9, r6]
10003e80:	f1a3 030d 	sub.w	r3, r3, #13
10003e84:	fab3 f383 	clz	r3, r3
10003e88:	095b      	lsrs	r3, r3, #5
10003e8a:	f888 3014 	strb.w	r3, [r8, #20]
10003e8e:	e8bd 87f0 	ldmia.w	sp!, {r4, r5, r6, r7, r8, r9, sl, pc}
10003e92:	782b      	ldrb	r3, [r5, #0]
10003e94:	2b0d      	cmp	r3, #13
10003e96:	d0ce      	beq.n	10003e36 <stdio_out_chars_crlf+0x22>
10003e98:	45b2      	cmp	sl, r6
10003e9a:	dadc      	bge.n	10003e56 <stdio_out_chars_crlf+0x42>
10003e9c:	f8d8 3000 	ldr.w	r3, [r8]
10003ea0:	eba6 010a 	sub.w	r1, r6, sl
10003ea4:	eb09 000a 	add.w	r0, r9, sl
10003ea8:	4798      	blx	r3
10003eaa:	e7d4      	b.n	10003e56 <stdio_out_chars_crlf+0x42>
10003eac:	4648      	mov	r0, r9
10003eae:	f8d8 3000 	ldr.w	r3, [r8]
10003eb2:	4611      	mov	r1, r2
10003eb4:	e8bd 47f0 	ldmia.w	sp!, {r4, r5, r6, r7, r8, r9, sl, lr}
10003eb8:	4718      	bx	r3
10003eba:	bf00      	nop
10003ebc:	1000caf8 	.word	0x1000caf8

10003ec0 <stdio_buffered_printer>:
10003ec0:	e92d 41f0 	stmdb	sp!, {r4, r5, r6, r7, r8, lr}
10003ec4:	680b      	ldr	r3, [r1, #0]
10003ec6:	460d      	mov	r5, r1
10003ec8:	2b80      	cmp	r3, #128	@ 0x80
10003eca:	4606      	mov	r6, r0
10003ecc:	d005      	beq.n	10003eda <stdio_buffered_printer+0x1a>
10003ece:	1c5a      	adds	r2, r3, #1
10003ed0:	442b      	add	r3, r5
10003ed2:	602a      	str	r2, [r5, #0]
10003ed4:	711e      	strb	r6, [r3, #4]
10003ed6:	e8bd 81f0 	ldmia.w	sp!, {r4, r5, r6, r7, r8, pc}
10003eda:	4b0f      	ldr	r3, [pc, #60]	@ (10003f18 <stdio_buffered_printer+0x58>)
10003edc:	681c      	ldr	r4, [r3, #0]
10003ede:	b1a4      	cbz	r4, 10003f0a <stdio_buffered_printer+0x4a>
10003ee0:	4f0e      	ldr	r7, [pc, #56]	@ (10003f1c <stdio_buffered_printer+0x5c>)
10003ee2:	f101 0804 	add.w	r8, r1, #4
10003ee6:	e001      	b.n	10003eec <stdio_buffered_printer+0x2c>
10003ee8:	6924      	ldr	r4, [r4, #16]
10003eea:	b174      	cbz	r4, 10003f0a <stdio_buffered_printer+0x4a>
10003eec:	6823      	ldr	r3, [r4, #0]
10003eee:	2b00      	cmp	r3, #0
10003ef0:	d0fa      	beq.n	10003ee8 <stdio_buffered_printer+0x28>
10003ef2:	683b      	ldr	r3, [r7, #0]
10003ef4:	b10b      	cbz	r3, 10003efa <stdio_buffered_printer+0x3a>
10003ef6:	42a3      	cmp	r3, r4
10003ef8:	d1f6      	bne.n	10003ee8 <stdio_buffered_printer+0x28>
10003efa:	4620      	mov	r0, r4
10003efc:	4641      	mov	r1, r8
10003efe:	682a      	ldr	r2, [r5, #0]
10003f00:	f7ff ff88 	bl	10003e14 <stdio_out_chars_crlf>
10003f04:	6924      	ldr	r4, [r4, #16]
10003f06:	2c00      	cmp	r4, #0
10003f08:	d1f0      	bne.n	10003eec <stdio_buffered_printer+0x2c>
10003f0a:	2300      	movs	r3, #0
10003f0c:	2201      	movs	r2, #1
10003f0e:	442b      	add	r3, r5
10003f10:	602a      	str	r2, [r5, #0]
10003f12:	711e      	strb	r6, [r3, #4]
10003f14:	e8bd 81f0 	ldmia.w	sp!, {r4, r5, r6, r7, r8, pc}
10003f18:	20001f24 	.word	0x20001f24
10003f1c:	20001f30 	.word	0x20001f30

10003f20 <stdio_put_string>:
10003f20:	e92d 4ff0 	stmdb	sp!, {r4, r5, r6, r7, r8, r9, sl, fp, lr}
10003f24:	b083      	sub	sp, #12
10003f26:	460d      	mov	r5, r1
10003f28:	4691      	mov	r9, r2
10003f2a:	461c      	mov	r4, r3
10003f2c:	4607      	mov	r7, r0
10003f2e:	f7fd ff2d 	bl	10001d8c <time_us_64>
10003f32:	f04f 3cff 	mov.w	ip, #4294967295	@ 0xffffffff
10003f36:	f06f 4600 	mvn.w	r6, #2147483648	@ 0x80000000
10003f3a:	4a25      	ldr	r2, [pc, #148]	@ (10003fd0 <stdio_put_string+0xb0>)
10003f3c:	1882      	adds	r2, r0, r2
10003f3e:	f141 0300 	adc.w	r3, r1, #0
10003f42:	4594      	cmp	ip, r2
10003f44:	eb76 0103 	sbcs.w	r1, r6, r3
10003f48:	bf3c      	itt	cc
10003f4a:	4662      	movcc	r2, ip
10003f4c:	4633      	movcc	r3, r6
10003f4e:	4821      	ldr	r0, [pc, #132]	@ (10003fd4 <stdio_put_string+0xb4>)
10003f50:	f008 f906 	bl	1000c160 <__mutex_try_enter_block_until_veneer>
10003f54:	1c6b      	adds	r3, r5, #1
10003f56:	4682      	mov	sl, r0
10003f58:	d02d      	beq.n	10003fb6 <stdio_put_string+0x96>
10003f5a:	b34c      	cbz	r4, 10003fb0 <stdio_put_string+0x90>
10003f5c:	f8df 8080 	ldr.w	r8, [pc, #128]	@ 10003fe0 <stdio_put_string+0xc0>
10003f60:	4b1d      	ldr	r3, [pc, #116]	@ (10003fd8 <stdio_put_string+0xb8>)
10003f62:	681c      	ldr	r4, [r3, #0]
10003f64:	b1ec      	cbz	r4, 10003fa2 <stdio_put_string+0x82>
10003f66:	f04f 0b0a 	mov.w	fp, #10
10003f6a:	4e1c      	ldr	r6, [pc, #112]	@ (10003fdc <stdio_put_string+0xbc>)
10003f6c:	e001      	b.n	10003f72 <stdio_put_string+0x52>
10003f6e:	6924      	ldr	r4, [r4, #16]
10003f70:	b1bc      	cbz	r4, 10003fa2 <stdio_put_string+0x82>
10003f72:	6823      	ldr	r3, [r4, #0]
10003f74:	2b00      	cmp	r3, #0
10003f76:	d0fa      	beq.n	10003f6e <stdio_put_string+0x4e>
10003f78:	6833      	ldr	r3, [r6, #0]
10003f7a:	b10b      	cbz	r3, 10003f80 <stdio_put_string+0x60>
10003f7c:	42a3      	cmp	r3, r4
10003f7e:	d1f6      	bne.n	10003f6e <stdio_put_string+0x4e>
10003f80:	462a      	mov	r2, r5
10003f82:	4639      	mov	r1, r7
10003f84:	4620      	mov	r0, r4
10003f86:	47c0      	blx	r8
10003f88:	f1b9 0f00 	cmp.w	r9, #0
10003f8c:	d0ef      	beq.n	10003f6e <stdio_put_string+0x4e>
10003f8e:	4620      	mov	r0, r4
10003f90:	2201      	movs	r2, #1
10003f92:	f10d 0107 	add.w	r1, sp, #7
10003f96:	f88d b007 	strb.w	fp, [sp, #7]
10003f9a:	47c0      	blx	r8
10003f9c:	6924      	ldr	r4, [r4, #16]
10003f9e:	2c00      	cmp	r4, #0
10003fa0:	d1e7      	bne.n	10003f72 <stdio_put_string+0x52>
10003fa2:	f1ba 0f00 	cmp.w	sl, #0
10003fa6:	d10b      	bne.n	10003fc0 <stdio_put_string+0xa0>
10003fa8:	4628      	mov	r0, r5
10003faa:	b003      	add	sp, #12
10003fac:	e8bd 8ff0 	ldmia.w	sp!, {r4, r5, r6, r7, r8, r9, sl, fp, pc}
10003fb0:	f8df 8030 	ldr.w	r8, [pc, #48]	@ 10003fe4 <stdio_put_string+0xc4>
10003fb4:	e7d4      	b.n	10003f60 <stdio_put_string+0x40>
10003fb6:	4638      	mov	r0, r7
10003fb8:	f003 fc90 	bl	100078dc <strlen>
10003fbc:	4605      	mov	r5, r0
10003fbe:	e7cc      	b.n	10003f5a <stdio_put_string+0x3a>
10003fc0:	4804      	ldr	r0, [pc, #16]	@ (10003fd4 <stdio_put_string+0xb4>)
10003fc2:	f008 f8c1 	bl	1000c148 <__mutex_exit_veneer>
10003fc6:	4628      	mov	r0, r5
10003fc8:	b003      	add	sp, #12
10003fca:	e8bd 8ff0 	ldmia.w	sp!, {r4, r5, r6, r7, r8, r9, sl, fp, pc}
10003fce:	bf00      	nop
10003fd0:	000f4240 	.word	0x000f4240
10003fd4:	2000156c 	.word	0x2000156c
10003fd8:	20001f24 	.word	0x20001f24
10003fdc:	20001f30 	.word	0x20001f30
10003fe0:	10003e15 	.word	0x10003e15
10003fe4:	10003e0d 	.word	0x10003e0d

10003fe8 <stdio_get_until>:
10003fe8:	e92d 4ff0 	stmdb	sp!, {r4, r5, r6, r7, r8, r9, sl, fp, lr}
10003fec:	4698      	mov	r8, r3
10003fee:	4607      	mov	r7, r0
10003ff0:	460e      	mov	r6, r1
10003ff2:	b083      	sub	sp, #12
10003ff4:	f8df b060 	ldr.w	fp, [pc, #96]	@ 10004058 <stdio_get_until+0x70>
10003ff8:	f8df 9060 	ldr.w	r9, [pc, #96]	@ 1000405c <stdio_get_until+0x74>
10003ffc:	f8df a060 	ldr.w	sl, [pc, #96]	@ 10004060 <stdio_get_until+0x78>
10004000:	9201      	str	r2, [sp, #4]
10004002:	f8db 4000 	ldr.w	r4, [fp]
10004006:	b914      	cbnz	r4, 1000400e <stdio_get_until+0x26>
10004008:	e011      	b.n	1000402e <stdio_get_until+0x46>
1000400a:	6924      	ldr	r4, [r4, #16]
1000400c:	b17c      	cbz	r4, 1000402e <stdio_get_until+0x46>
1000400e:	f8d9 5000 	ldr.w	r5, [r9]
10004012:	b10d      	cbz	r5, 10004018 <stdio_get_until+0x30>
10004014:	42a5      	cmp	r5, r4
10004016:	d1f8      	bne.n	1000400a <stdio_get_until+0x22>
10004018:	68a2      	ldr	r2, [r4, #8]
1000401a:	2a00      	cmp	r2, #0
1000401c:	d0f5      	beq.n	1000400a <stdio_get_until+0x22>
1000401e:	4631      	mov	r1, r6
10004020:	4638      	mov	r0, r7
10004022:	4790      	blx	r2
10004024:	2800      	cmp	r0, #0
10004026:	ddf0      	ble.n	1000400a <stdio_get_until+0x22>
10004028:	b003      	add	sp, #12
1000402a:	e8bd 8ff0 	ldmia.w	sp!, {r4, r5, r6, r7, r8, r9, sl, fp, pc}
1000402e:	f8da 2024 	ldr.w	r2, [sl, #36]	@ 0x24
10004032:	4590      	cmp	r8, r2
10004034:	d80b      	bhi.n	1000404e <stdio_get_until+0x66>
10004036:	f8da 1028 	ldr.w	r1, [sl, #40]	@ 0x28
1000403a:	9b01      	ldr	r3, [sp, #4]
1000403c:	4299      	cmp	r1, r3
1000403e:	d304      	bcc.n	1000404a <stdio_get_until+0x62>
10004040:	f06f 0001 	mvn.w	r0, #1
10004044:	b003      	add	sp, #12
10004046:	e8bd 8ff0 	ldmia.w	sp!, {r4, r5, r6, r7, r8, r9, sl, fp, pc}
1000404a:	4590      	cmp	r8, r2
1000404c:	d1f8      	bne.n	10004040 <stdio_get_until+0x58>
1000404e:	2001      	movs	r0, #1
10004050:	2100      	movs	r1, #0
10004052:	f7fd fea5 	bl	10001da0 <busy_wait_us>
10004056:	e7d4      	b.n	10004002 <stdio_get_until+0x1a>
10004058:	20001f24 	.word	0x20001f24
1000405c:	20001f30 	.word	0x20001f30
10004060:	400b0000 	.word	0x400b0000

10004064 <stdio_set_driver_enabled>:
10004064:	4a08      	ldr	r2, [pc, #32]	@ (10004088 <stdio_set_driver_enabled+0x24>)
10004066:	6813      	ldr	r3, [r2, #0]
10004068:	b923      	cbnz	r3, 10004074 <stdio_set_driver_enabled+0x10>
1000406a:	e00a      	b.n	10004082 <stdio_set_driver_enabled+0x1e>
1000406c:	f103 0210 	add.w	r2, r3, #16
10004070:	691b      	ldr	r3, [r3, #16]
10004072:	b133      	cbz	r3, 10004082 <stdio_set_driver_enabled+0x1e>
10004074:	4283      	cmp	r3, r0
10004076:	d1f9      	bne.n	1000406c <stdio_set_driver_enabled+0x8>
10004078:	b929      	cbnz	r1, 10004086 <stdio_set_driver_enabled+0x22>
1000407a:	6918      	ldr	r0, [r3, #16]
1000407c:	6010      	str	r0, [r2, #0]
1000407e:	6119      	str	r1, [r3, #16]
10004080:	4770      	bx	lr
10004082:	b101      	cbz	r1, 10004086 <stdio_set_driver_enabled+0x22>
10004084:	6010      	str	r0, [r2, #0]
10004086:	4770      	bx	lr
10004088:	20001f24 	.word	0x20001f24

1000408c <stdio_init_all>:
1000408c:	f000 bac6 	b.w	1000461c <stdio_usb_init>

10004090 <stdio_getchar_timeout_us>:
10004090:	b510      	push	{r4, lr}
10004092:	b082      	sub	sp, #8
10004094:	4604      	mov	r4, r0
10004096:	f7fd fe79 	bl	10001d8c <time_us_64>
1000409a:	f04f 3eff 	mov.w	lr, #4294967295	@ 0xffffffff
1000409e:	f06f 4c00 	mvn.w	ip, #2147483648	@ 0x80000000
100040a2:	1822      	adds	r2, r4, r0
100040a4:	f141 0300 	adc.w	r3, r1, #0
100040a8:	4596      	cmp	lr, r2
100040aa:	eb7c 0103 	sbcs.w	r1, ip, r3
100040ae:	bf3c      	itt	cc
100040b0:	4672      	movcc	r2, lr
100040b2:	4663      	movcc	r3, ip
100040b4:	2101      	movs	r1, #1
100040b6:	a801      	add	r0, sp, #4
100040b8:	f7ff ff96 	bl	10003fe8 <stdio_get_until>
100040bc:	2800      	cmp	r0, #0
100040be:	bfb4      	ite	lt
100040c0:	f06f 0001 	mvnlt.w	r0, #1
100040c4:	f89d 0004 	ldrbge.w	r0, [sp, #4]
100040c8:	b002      	add	sp, #8
100040ca:	bd10      	pop	{r4, pc}

100040cc <__wrap_putchar>:
100040cc:	2301      	movs	r3, #1
100040ce:	b510      	push	{r4, lr}
100040d0:	4604      	mov	r4, r0
100040d2:	b082      	sub	sp, #8
100040d4:	2200      	movs	r2, #0
100040d6:	4619      	mov	r1, r3
100040d8:	f10d 0007 	add.w	r0, sp, #7
100040dc:	f88d 4007 	strb.w	r4, [sp, #7]
100040e0:	f7ff ff1e 	bl	10003f20 <stdio_put_string>
100040e4:	4620      	mov	r0, r4
100040e6:	b002      	add	sp, #8
100040e8:	bd10      	pop	{r4, pc}
100040ea:	bf00      	nop

100040ec <__wrap_puts>:
100040ec:	b538      	push	{r3, r4, r5, lr}
100040ee:	4604      	mov	r4, r0
100040f0:	f003 fbf4 	bl	100078dc <strlen>
100040f4:	2301      	movs	r3, #1
100040f6:	4605      	mov	r5, r0
100040f8:	461a      	mov	r2, r3
100040fa:	4620      	mov	r0, r4
100040fc:	4629      	mov	r1, r5
100040fe:	f7ff ff0f 	bl	10003f20 <stdio_put_string>
10004102:	4b05      	ldr	r3, [pc, #20]	@ (10004118 <__wrap_puts+0x2c>)
10004104:	681c      	ldr	r4, [r3, #0]
10004106:	b12c      	cbz	r4, 10004114 <__wrap_puts+0x28>
10004108:	6863      	ldr	r3, [r4, #4]
1000410a:	b103      	cbz	r3, 1000410e <__wrap_puts+0x22>
1000410c:	4798      	blx	r3
1000410e:	6924      	ldr	r4, [r4, #16]
10004110:	2c00      	cmp	r4, #0
10004112:	d1f9      	bne.n	10004108 <__wrap_puts+0x1c>
10004114:	4628      	mov	r0, r5
10004116:	bd38      	pop	{r3, r4, r5, pc}
10004118:	20001f24 	.word	0x20001f24

1000411c <__wrap_vprintf>:
1000411c:	e92d 41f0 	stmdb	sp!, {r4, r5, r6, r7, r8, lr}
10004120:	b0a2      	sub	sp, #136	@ 0x88
10004122:	4604      	mov	r4, r0
10004124:	460d      	mov	r5, r1
10004126:	f7fd fe31 	bl	10001d8c <time_us_64>
1000412a:	f04f 37ff 	mov.w	r7, #4294967295	@ 0xffffffff
1000412e:	f06f 4600 	mvn.w	r6, #2147483648	@ 0x80000000
10004132:	4a25      	ldr	r2, [pc, #148]	@ (100041c8 <__wrap_vprintf+0xac>)
10004134:	f8df 80a0 	ldr.w	r8, [pc, #160]	@ 100041d8 <__wrap_vprintf+0xbc>
10004138:	1882      	adds	r2, r0, r2
1000413a:	f141 0300 	adc.w	r3, r1, #0
1000413e:	4297      	cmp	r7, r2
10004140:	eb76 0103 	sbcs.w	r1, r6, r3
10004144:	bf3c      	itt	cc
10004146:	463a      	movcc	r2, r7
10004148:	4633      	movcc	r3, r6
1000414a:	4820      	ldr	r0, [pc, #128]	@ (100041cc <__wrap_vprintf+0xb0>)
1000414c:	f008 f808 	bl	1000c160 <__mutex_try_enter_block_until_veneer>
10004150:	2700      	movs	r7, #0
10004152:	462b      	mov	r3, r5
10004154:	4622      	mov	r2, r4
10004156:	4606      	mov	r6, r0
10004158:	a901      	add	r1, sp, #4
1000415a:	481d      	ldr	r0, [pc, #116]	@ (100041d0 <__wrap_vprintf+0xb4>)
1000415c:	9701      	str	r7, [sp, #4]
1000415e:	f7ff fdbd 	bl	10003cdc <vfctprintf>
10004162:	9b01      	ldr	r3, [sp, #4]
10004164:	4605      	mov	r5, r0
10004166:	f8d8 4000 	ldr.w	r4, [r8]
1000416a:	b1bb      	cbz	r3, 1000419c <__wrap_vprintf+0x80>
1000416c:	b34c      	cbz	r4, 100041c2 <__wrap_vprintf+0xa6>
1000416e:	4f19      	ldr	r7, [pc, #100]	@ (100041d4 <__wrap_vprintf+0xb8>)
10004170:	e001      	b.n	10004176 <__wrap_vprintf+0x5a>
10004172:	6924      	ldr	r4, [r4, #16]
10004174:	b174      	cbz	r4, 10004194 <__wrap_vprintf+0x78>
10004176:	6823      	ldr	r3, [r4, #0]
10004178:	2b00      	cmp	r3, #0
1000417a:	d0fa      	beq.n	10004172 <__wrap_vprintf+0x56>
1000417c:	683b      	ldr	r3, [r7, #0]
1000417e:	b10b      	cbz	r3, 10004184 <__wrap_vprintf+0x68>
10004180:	429c      	cmp	r4, r3
10004182:	d1f6      	bne.n	10004172 <__wrap_vprintf+0x56>
10004184:	4620      	mov	r0, r4
10004186:	9a01      	ldr	r2, [sp, #4]
10004188:	a902      	add	r1, sp, #8
1000418a:	f7ff fe43 	bl	10003e14 <stdio_out_chars_crlf>
1000418e:	6924      	ldr	r4, [r4, #16]
10004190:	2c00      	cmp	r4, #0
10004192:	d1f0      	bne.n	10004176 <__wrap_vprintf+0x5a>
10004194:	2300      	movs	r3, #0
10004196:	f8d8 4000 	ldr.w	r4, [r8]
1000419a:	9301      	str	r3, [sp, #4]
1000419c:	b12c      	cbz	r4, 100041aa <__wrap_vprintf+0x8e>
1000419e:	6863      	ldr	r3, [r4, #4]
100041a0:	b103      	cbz	r3, 100041a4 <__wrap_vprintf+0x88>
100041a2:	4798      	blx	r3
100041a4:	6924      	ldr	r4, [r4, #16]
100041a6:	2c00      	cmp	r4, #0
100041a8:	d1f9      	bne.n	1000419e <__wrap_vprintf+0x82>
100041aa:	b91e      	cbnz	r6, 100041b4 <__wrap_vprintf+0x98>
100041ac:	4628      	mov	r0, r5
100041ae:	b022      	add	sp, #136	@ 0x88
100041b0:	e8bd 81f0 	ldmia.w	sp!, {r4, r5, r6, r7, r8, pc}
100041b4:	4805      	ldr	r0, [pc, #20]	@ (100041cc <__wrap_vprintf+0xb0>)
100041b6:	f007 ffc7 	bl	1000c148 <__mutex_exit_veneer>
100041ba:	4628      	mov	r0, r5
100041bc:	b022      	add	sp, #136	@ 0x88
100041be:	e8bd 81f0 	ldmia.w	sp!, {r4, r5, r6, r7, r8, pc}
100041c2:	9401      	str	r4, [sp, #4]
100041c4:	e7f1      	b.n	100041aa <__wrap_vprintf+0x8e>
100041c6:	bf00      	nop
100041c8:	000f4240 	.word	0x000f4240
100041cc:	2000156c 	.word	0x2000156c
100041d0:	10003ec1 	.word	0x10003ec1
100041d4:	20001f30 	.word	0x20001f30
100041d8:	20001f24 	.word	0x20001f24

100041dc <__wrap_printf>:
100041dc:	b40f      	push	{r0, r1, r2, r3}
100041de:	b500      	push	{lr}
100041e0:	b083      	sub	sp, #12
100041e2:	a904      	add	r1, sp, #16
100041e4:	f851 0b04 	ldr.w	r0, [r1], #4
100041e8:	9101      	str	r1, [sp, #4]
100041ea:	f7ff ff97 	bl	1000411c <__wrap_vprintf>
100041ee:	b003      	add	sp, #12
100041f0:	f85d eb04 	ldr.w	lr, [sp], #4
100041f4:	b004      	add	sp, #16
100041f6:	4770      	bx	lr

100041f8 <resetd_init>:
100041f8:	4770      	bx	lr
100041fa:	bf00      	nop

100041fc <resetd_reset>:
100041fc:	2200      	movs	r2, #0
100041fe:	4b01      	ldr	r3, [pc, #4]	@ (10004204 <resetd_reset+0x8>)
10004200:	701a      	strb	r2, [r3, #0]
10004202:	4770      	bx	lr
10004204:	200023b6 	.word	0x200023b6

10004208 <resetd_open>:
10004208:	794b      	ldrb	r3, [r1, #5]
1000420a:	2bff      	cmp	r3, #255	@ 0xff
1000420c:	d10b      	bne.n	10004226 <resetd_open+0x1e>
1000420e:	7988      	ldrb	r0, [r1, #6]
10004210:	b948      	cbnz	r0, 10004226 <resetd_open+0x1e>
10004212:	79cb      	ldrb	r3, [r1, #7]
10004214:	2b01      	cmp	r3, #1
10004216:	d107      	bne.n	10004228 <resetd_open+0x20>
10004218:	2a08      	cmp	r2, #8
1000421a:	d905      	bls.n	10004228 <resetd_open+0x20>
1000421c:	4b03      	ldr	r3, [pc, #12]	@ (1000422c <resetd_open+0x24>)
1000421e:	788a      	ldrb	r2, [r1, #2]
10004220:	2009      	movs	r0, #9
10004222:	701a      	strb	r2, [r3, #0]
10004224:	4770      	bx	lr
10004226:	2000      	movs	r0, #0
10004228:	4770      	bx	lr
1000422a:	bf00      	nop
1000422c:	200023b6 	.word	0x200023b6

10004230 <resetd_xfer_cb>:
10004230:	2001      	movs	r0, #1
10004232:	4770      	bx	lr

10004234 <resetd_control_xfer_cb>:
10004234:	2901      	cmp	r1, #1
10004236:	d001      	beq.n	1000423c <resetd_control_xfer_cb+0x8>
10004238:	2001      	movs	r0, #1
1000423a:	4770      	bx	lr
1000423c:	b508      	push	{r3, lr}
1000423e:	4b10      	ldr	r3, [pc, #64]	@ (10004280 <resetd_control_xfer_cb+0x4c>)
10004240:	8891      	ldrh	r1, [r2, #4]
10004242:	781b      	ldrb	r3, [r3, #0]
10004244:	4299      	cmp	r1, r3
10004246:	d001      	beq.n	1000424c <resetd_control_xfer_cb+0x18>
10004248:	2000      	movs	r0, #0
1000424a:	bd08      	pop	{r3, pc}
1000424c:	7853      	ldrb	r3, [r2, #1]
1000424e:	2b01      	cmp	r3, #1
10004250:	d008      	beq.n	10004264 <resetd_control_xfer_cb+0x30>
10004252:	2b02      	cmp	r3, #2
10004254:	d1f8      	bne.n	10004248 <resetd_control_xfer_cb+0x14>
10004256:	2100      	movs	r1, #0
10004258:	2264      	movs	r2, #100	@ 0x64
1000425a:	4608      	mov	r0, r1
1000425c:	f7fd fea0 	bl	10001fa0 <watchdog_reboot>
10004260:	2001      	movs	r0, #1
10004262:	bd08      	pop	{r3, pc}
10004264:	8851      	ldrh	r1, [r2, #2]
10004266:	05cb      	lsls	r3, r1, #23
10004268:	bf48      	it	mi
1000426a:	0a48      	lsrmi	r0, r1, #9
1000426c:	f3c1 2240 	ubfx	r2, r1, #9, #1
10004270:	bf58      	it	pl
10004272:	f04f 30ff 	movpl.w	r0, #4294967295	@ 0xffffffff
10004276:	f001 017f 	and.w	r1, r1, #127	@ 0x7f
1000427a:	f7fd ff0f 	bl	1000209c <rom_reset_usb_boot_extra>
1000427e:	bf00      	nop
10004280:	200023b6 	.word	0x200023b6

10004284 <tud_descriptor_bos_cb>:
10004284:	4800      	ldr	r0, [pc, #0]	@ (10004288 <tud_descriptor_bos_cb+0x4>)
10004286:	4770      	bx	lr
10004288:	1000cbc4 	.word	0x1000cbc4

1000428c <tud_vendor_control_xfer_cb>:
1000428c:	2901      	cmp	r1, #1
1000428e:	d107      	bne.n	100042a0 <tud_vendor_control_xfer_cb+0x14>
10004290:	7853      	ldrb	r3, [r2, #1]
10004292:	2b01      	cmp	r3, #1
10004294:	d102      	bne.n	1000429c <tud_vendor_control_xfer_cb+0x10>
10004296:	8893      	ldrh	r3, [r2, #4]
10004298:	2b07      	cmp	r3, #7
1000429a:	d003      	beq.n	100042a4 <tud_vendor_control_xfer_cb+0x18>
1000429c:	2000      	movs	r0, #0
1000429e:	4770      	bx	lr
100042a0:	2001      	movs	r0, #1
100042a2:	4770      	bx	lr
100042a4:	4611      	mov	r1, r2
100042a6:	23a6      	movs	r3, #166	@ 0xa6
100042a8:	4a01      	ldr	r2, [pc, #4]	@ (100042b0 <tud_vendor_control_xfer_cb+0x24>)
100042aa:	f001 b9d9 	b.w	10005660 <tud_control_xfer>
100042ae:	bf00      	nop
100042b0:	1000cb1c 	.word	0x1000cb1c

100042b4 <usbd_app_driver_get_cb>:
100042b4:	4603      	mov	r3, r0
100042b6:	2201      	movs	r2, #1
100042b8:	4801      	ldr	r0, [pc, #4]	@ (100042c0 <usbd_app_driver_get_cb+0xc>)
100042ba:	701a      	strb	r2, [r3, #0]
100042bc:	4770      	bx	lr
100042be:	bf00      	nop
100042c0:	1000cafc 	.word	0x1000cafc

100042c4 <tud_cdc_line_coding_cb>:
100042c4:	b508      	push	{r3, lr}
100042c6:	680b      	ldr	r3, [r1, #0]
100042c8:	f5b3 6f96 	cmp.w	r3, #1200	@ 0x4b0
100042cc:	d000      	beq.n	100042d0 <tud_cdc_line_coding_cb+0xc>
100042ce:	bd08      	pop	{r3, pc}
100042d0:	2200      	movs	r2, #0
100042d2:	f04f 30ff 	mov.w	r0, #4294967295	@ 0xffffffff
100042d6:	4611      	mov	r1, r2
100042d8:	f7fd fee0 	bl	1000209c <rom_reset_usb_boot_extra>

100042dc <stdio_usb_set_chars_available_callback>:
100042dc:	4a02      	ldr	r2, [pc, #8]	@ (100042e8 <stdio_usb_set_chars_available_callback+0xc>)
100042de:	4b03      	ldr	r3, [pc, #12]	@ (100042ec <stdio_usb_set_chars_available_callback+0x10>)
100042e0:	6010      	str	r0, [r2, #0]
100042e2:	6019      	str	r1, [r3, #0]
100042e4:	4770      	bx	lr
100042e6:	bf00      	nop
100042e8:	20001ec4 	.word	0x20001ec4
100042ec:	20001ec8 	.word	0x20001ec8

100042f0 <usb_irq>:
100042f0:	4b01      	ldr	r3, [pc, #4]	@ (100042f8 <usb_irq+0x8>)
100042f2:	7818      	ldrb	r0, [r3, #0]
100042f4:	f7fc bfae 	b.w	10001254 <irq_set_pending>
100042f8:	200023b7 	.word	0x200023b7

100042fc <stdio_usb_in_chars>:
100042fc:	b538      	push	{r3, r4, r5, lr}
100042fe:	4604      	mov	r4, r0
10004300:	2000      	movs	r0, #0
10004302:	460d      	mov	r5, r1
10004304:	f001 fa94 	bl	10005830 <tud_cdc_n_connected>
10004308:	b3a8      	cbz	r0, 10004376 <stdio_usb_in_chars+0x7a>
1000430a:	2000      	movs	r0, #0
1000430c:	f001 faa6 	bl	1000585c <tud_cdc_n_available>
10004310:	b388      	cbz	r0, 10004376 <stdio_usb_in_chars+0x7a>
10004312:	f7fd fd3b 	bl	10001d8c <time_us_64>
10004316:	f04f 3eff 	mov.w	lr, #4294967295	@ 0xffffffff
1000431a:	f06f 4c00 	mvn.w	ip, #2147483648	@ 0x80000000
1000431e:	4a17      	ldr	r2, [pc, #92]	@ (1000437c <stdio_usb_in_chars+0x80>)
10004320:	1882      	adds	r2, r0, r2
10004322:	f141 0300 	adc.w	r3, r1, #0
10004326:	4596      	cmp	lr, r2
10004328:	eb7c 0103 	sbcs.w	r1, ip, r3
1000432c:	bf3c      	itt	cc
1000432e:	4672      	movcc	r2, lr
10004330:	4663      	movcc	r3, ip
10004332:	4813      	ldr	r0, [pc, #76]	@ (10004380 <stdio_usb_in_chars+0x84>)
10004334:	f007 ff14 	bl	1000c160 <__mutex_try_enter_block_until_veneer>
10004338:	b1e8      	cbz	r0, 10004376 <stdio_usb_in_chars+0x7a>
1000433a:	2000      	movs	r0, #0
1000433c:	f001 fa78 	bl	10005830 <tud_cdc_n_connected>
10004340:	b958      	cbnz	r0, 1000435a <stdio_usb_in_chars+0x5e>
10004342:	2100      	movs	r1, #0
10004344:	f04f 30ff 	mov.w	r0, #4294967295	@ 0xffffffff
10004348:	f000 fcba 	bl	10004cc0 <tud_task_ext>
1000434c:	f06f 0402 	mvn.w	r4, #2
10004350:	480b      	ldr	r0, [pc, #44]	@ (10004380 <stdio_usb_in_chars+0x84>)
10004352:	f007 fef9 	bl	1000c148 <__mutex_exit_veneer>
10004356:	4620      	mov	r0, r4
10004358:	bd38      	pop	{r3, r4, r5, pc}
1000435a:	2000      	movs	r0, #0
1000435c:	f001 fa7e 	bl	1000585c <tud_cdc_n_available>
10004360:	2800      	cmp	r0, #0
10004362:	d0ee      	beq.n	10004342 <stdio_usb_in_chars+0x46>
10004364:	4621      	mov	r1, r4
10004366:	462a      	mov	r2, r5
10004368:	2000      	movs	r0, #0
1000436a:	f001 fa81 	bl	10005870 <tud_cdc_n_read>
1000436e:	4604      	mov	r4, r0
10004370:	2800      	cmp	r0, #0
10004372:	d1ed      	bne.n	10004350 <stdio_usb_in_chars+0x54>
10004374:	e7ea      	b.n	1000434c <stdio_usb_in_chars+0x50>
10004376:	f06f 0402 	mvn.w	r4, #2
1000437a:	e7ec      	b.n	10004356 <stdio_usb_in_chars+0x5a>
1000437c:	000f4240 	.word	0x000f4240
10004380:	20002398 	.word	0x20002398

10004384 <stdio_usb_out_flush>:
10004384:	b508      	push	{r3, lr}
10004386:	f7fd fd01 	bl	10001d8c <time_us_64>
1000438a:	f04f 3eff 	mov.w	lr, #4294967295	@ 0xffffffff
1000438e:	f06f 4c00 	mvn.w	ip, #2147483648	@ 0x80000000
10004392:	4a0f      	ldr	r2, [pc, #60]	@ (100043d0 <stdio_usb_out_flush+0x4c>)
10004394:	1882      	adds	r2, r0, r2
10004396:	f141 0300 	adc.w	r3, r1, #0
1000439a:	4596      	cmp	lr, r2
1000439c:	eb7c 0103 	sbcs.w	r1, ip, r3
100043a0:	bf3c      	itt	cc
100043a2:	4672      	movcc	r2, lr
100043a4:	4663      	movcc	r3, ip
100043a6:	480b      	ldr	r0, [pc, #44]	@ (100043d4 <stdio_usb_out_flush+0x50>)
100043a8:	f007 feda 	bl	1000c160 <__mutex_try_enter_block_until_veneer>
100043ac:	b170      	cbz	r0, 100043cc <stdio_usb_out_flush+0x48>
100043ae:	f04f 30ff 	mov.w	r0, #4294967295	@ 0xffffffff
100043b2:	2100      	movs	r1, #0
100043b4:	f000 fc84 	bl	10004cc0 <tud_task_ext>
100043b8:	2000      	movs	r0, #0
100043ba:	f001 fa71 	bl	100058a0 <tud_cdc_n_write_flush>
100043be:	2800      	cmp	r0, #0
100043c0:	d1f5      	bne.n	100043ae <stdio_usb_out_flush+0x2a>
100043c2:	e8bd 4008 	ldmia.w	sp!, {r3, lr}
100043c6:	4803      	ldr	r0, [pc, #12]	@ (100043d4 <stdio_usb_out_flush+0x50>)
100043c8:	f007 bebe 	b.w	1000c148 <__mutex_exit_veneer>
100043cc:	bd08      	pop	{r3, pc}
100043ce:	bf00      	nop
100043d0:	000f4240 	.word	0x000f4240
100043d4:	20002398 	.word	0x20002398

100043d8 <stdio_usb_out_chars>:
100043d8:	e92d 43f8 	stmdb	sp!, {r3, r4, r5, r6, r7, r8, r9, lr}
100043dc:	4680      	mov	r8, r0
100043de:	460f      	mov	r7, r1
100043e0:	f7fd fcd4 	bl	10001d8c <time_us_64>
100043e4:	f04f 35ff 	mov.w	r5, #4294967295	@ 0xffffffff
100043e8:	f06f 4400 	mvn.w	r4, #2147483648	@ 0x80000000
100043ec:	4a33      	ldr	r2, [pc, #204]	@ (100044bc <stdio_usb_out_chars+0xe4>)
100043ee:	1882      	adds	r2, r0, r2
100043f0:	f141 0300 	adc.w	r3, r1, #0
100043f4:	4295      	cmp	r5, r2
100043f6:	eb74 0103 	sbcs.w	r1, r4, r3
100043fa:	bf3c      	itt	cc
100043fc:	462a      	movcc	r2, r5
100043fe:	4623      	movcc	r3, r4
10004400:	482f      	ldr	r0, [pc, #188]	@ (100044c0 <stdio_usb_out_chars+0xe8>)
10004402:	f007 fead 	bl	1000c160 <__mutex_try_enter_block_until_veneer>
10004406:	b908      	cbnz	r0, 1000440c <stdio_usb_out_chars+0x34>
10004408:	e8bd 83f8 	ldmia.w	sp!, {r3, r4, r5, r6, r7, r8, r9, pc}
1000440c:	2000      	movs	r0, #0
1000440e:	f001 fa0f 	bl	10005830 <tud_cdc_n_connected>
10004412:	2800      	cmp	r0, #0
10004414:	d047      	beq.n	100044a6 <stdio_usb_out_chars+0xce>
10004416:	2f00      	cmp	r7, #0
10004418:	dd40      	ble.n	1000449c <stdio_usb_out_chars+0xc4>
1000441a:	2500      	movs	r5, #0
1000441c:	f8df 90a8 	ldr.w	r9, [pc, #168]	@ 100044c8 <stdio_usb_out_chars+0xf0>
10004420:	4e28      	ldr	r6, [pc, #160]	@ (100044c4 <stdio_usb_out_chars+0xec>)
10004422:	e013      	b.n	1000444c <stdio_usb_out_chars+0x74>
10004424:	4622      	mov	r2, r4
10004426:	2000      	movs	r0, #0
10004428:	f001 fa80 	bl	1000592c <tud_cdc_n_write>
1000442c:	2100      	movs	r1, #0
1000442e:	4604      	mov	r4, r0
10004430:	f04f 30ff 	mov.w	r0, #4294967295	@ 0xffffffff
10004434:	f000 fc44 	bl	10004cc0 <tud_task_ext>
10004438:	2000      	movs	r0, #0
1000443a:	f001 fa31 	bl	100058a0 <tud_cdc_n_write_flush>
1000443e:	f7fd fca5 	bl	10001d8c <time_us_64>
10004442:	e9c9 0100 	strd	r0, r1, [r9]
10004446:	4425      	add	r5, r4
10004448:	42af      	cmp	r7, r5
1000444a:	dd27      	ble.n	1000449c <stdio_usb_out_chars+0xc4>
1000444c:	2000      	movs	r0, #0
1000444e:	f001 fa8d 	bl	1000596c <tud_cdc_n_write_available>
10004452:	1b7c      	subs	r4, r7, r5
10004454:	4284      	cmp	r4, r0
10004456:	bfa8      	it	ge
10004458:	4604      	movge	r4, r0
1000445a:	eb08 0105 	add.w	r1, r8, r5
1000445e:	2c00      	cmp	r4, #0
10004460:	d1e0      	bne.n	10004424 <stdio_usb_out_chars+0x4c>
10004462:	4621      	mov	r1, r4
10004464:	f04f 30ff 	mov.w	r0, #4294967295	@ 0xffffffff
10004468:	f000 fc2a 	bl	10004cc0 <tud_task_ext>
1000446c:	4620      	mov	r0, r4
1000446e:	f001 fa17 	bl	100058a0 <tud_cdc_n_write_flush>
10004472:	4620      	mov	r0, r4
10004474:	f001 f9dc 	bl	10005830 <tud_cdc_n_connected>
10004478:	b180      	cbz	r0, 1000449c <stdio_usb_out_chars+0xc4>
1000447a:	4620      	mov	r0, r4
1000447c:	f001 fa76 	bl	1000596c <tud_cdc_n_write_available>
10004480:	2800      	cmp	r0, #0
10004482:	d1e1      	bne.n	10004448 <stdio_usb_out_chars+0x70>
10004484:	f7fd fc82 	bl	10001d8c <time_us_64>
10004488:	f8d9 3000 	ldr.w	r3, [r9]
1000448c:	f8d9 2004 	ldr.w	r2, [r9, #4]
10004490:	199b      	adds	r3, r3, r6
10004492:	f142 0200 	adc.w	r2, r2, #0
10004496:	4283      	cmp	r3, r0
10004498:	418a      	sbcs	r2, r1
1000449a:	d2d5      	bcs.n	10004448 <stdio_usb_out_chars+0x70>
1000449c:	4808      	ldr	r0, [pc, #32]	@ (100044c0 <stdio_usb_out_chars+0xe8>)
1000449e:	e8bd 43f8 	ldmia.w	sp!, {r3, r4, r5, r6, r7, r8, r9, lr}
100044a2:	f007 be51 	b.w	1000c148 <__mutex_exit_veneer>
100044a6:	2000      	movs	r0, #0
100044a8:	2100      	movs	r1, #0
100044aa:	4b07      	ldr	r3, [pc, #28]	@ (100044c8 <stdio_usb_out_chars+0xf0>)
100044ac:	e9c3 0100 	strd	r0, r1, [r3]
100044b0:	4803      	ldr	r0, [pc, #12]	@ (100044c0 <stdio_usb_out_chars+0xe8>)
100044b2:	e8bd 43f8 	ldmia.w	sp!, {r3, r4, r5, r6, r7, r8, r9, lr}
100044b6:	f007 be47 	b.w	1000c148 <__mutex_exit_veneer>
100044ba:	bf00      	nop
100044bc:	000f4240 	.word	0x000f4240
100044c0:	20002398 	.word	0x20002398
100044c4:	0007a120 	.word	0x0007a120
100044c8:	200016f8 	.word	0x200016f8

100044cc <low_priority_worker_irq>:
100044cc:	b530      	push	{r4, r5, lr}
100044ce:	2100      	movs	r1, #0
100044d0:	b085      	sub	sp, #20
100044d2:	482e      	ldr	r0, [pc, #184]	@ (1000458c <low_priority_worker_irq+0xc0>)
100044d4:	f007 fe48 	bl	1000c168 <__mutex_try_enter_veneer>
100044d8:	b9f0      	cbnz	r0, 10004518 <low_priority_worker_irq+0x4c>
100044da:	4b2d      	ldr	r3, [pc, #180]	@ (10004590 <low_priority_worker_irq+0xc4>)
100044dc:	681a      	ldr	r2, [r3, #0]
100044de:	b1ca      	cbz	r2, 10004514 <low_priority_worker_irq+0x48>
100044e0:	f3ef 8110 	mrs	r1, PRIMASK
100044e4:	b672      	cpsid	i
100044e6:	e8d2 5fcf 	ldaexb	r5, [r2]
100044ea:	2401      	movs	r4, #1
100044ec:	2d00      	cmp	r5, #0
100044ee:	d1fa      	bne.n	100044e6 <low_priority_worker_irq+0x1a>
100044f0:	e8c2 4f45 	strexb	r5, r4, [r2]
100044f4:	2d00      	cmp	r5, #0
100044f6:	d1f6      	bne.n	100044e6 <low_priority_worker_irq+0x1a>
100044f8:	f3bf 8f5f 	dmb	sy
100044fc:	4c25      	ldr	r4, [pc, #148]	@ (10004594 <low_priority_worker_irq+0xc8>)
100044fe:	681d      	ldr	r5, [r3, #0]
10004500:	7822      	ldrb	r2, [r4, #0]
10004502:	6059      	str	r1, [r3, #4]
10004504:	b2d3      	uxtb	r3, r2
10004506:	2201      	movs	r2, #1
10004508:	7022      	strb	r2, [r4, #0]
1000450a:	e8c5 0f8f 	stlb	r0, [r5]
1000450e:	f381 8810 	msr	PRIMASK, r1
10004512:	b1cb      	cbz	r3, 10004548 <low_priority_worker_irq+0x7c>
10004514:	b005      	add	sp, #20
10004516:	bd30      	pop	{r4, r5, pc}
10004518:	2100      	movs	r1, #0
1000451a:	f04f 30ff 	mov.w	r0, #4294967295	@ 0xffffffff
1000451e:	f000 fbcf 	bl	10004cc0 <tud_task_ext>
10004522:	2000      	movs	r0, #0
10004524:	f001 f99a 	bl	1000585c <tud_cdc_n_available>
10004528:	4604      	mov	r4, r0
1000452a:	4818      	ldr	r0, [pc, #96]	@ (1000458c <low_priority_worker_irq+0xc0>)
1000452c:	f007 fe0c 	bl	1000c148 <__mutex_exit_veneer>
10004530:	2c00      	cmp	r4, #0
10004532:	d0ef      	beq.n	10004514 <low_priority_worker_irq+0x48>
10004534:	4b18      	ldr	r3, [pc, #96]	@ (10004598 <low_priority_worker_irq+0xcc>)
10004536:	681b      	ldr	r3, [r3, #0]
10004538:	2b00      	cmp	r3, #0
1000453a:	d0eb      	beq.n	10004514 <low_priority_worker_irq+0x48>
1000453c:	4a17      	ldr	r2, [pc, #92]	@ (1000459c <low_priority_worker_irq+0xd0>)
1000453e:	6810      	ldr	r0, [r2, #0]
10004540:	b005      	add	sp, #20
10004542:	e8bd 4030 	ldmia.w	sp!, {r4, r5, lr}
10004546:	4718      	bx	r3
10004548:	f7fd fa5e 	bl	10001a08 <alarm_pool_get_default>
1000454c:	4604      	mov	r4, r0
1000454e:	f7fd fc1d 	bl	10001d8c <time_us_64>
10004552:	f04f 3cff 	mov.w	ip, #4294967295	@ 0xffffffff
10004556:	f06f 4500 	mvn.w	r5, #2147483648	@ 0x80000000
1000455a:	f510 727a 	adds.w	r2, r0, #1000	@ 0x3e8
1000455e:	f141 0300 	adc.w	r3, r1, #0
10004562:	4594      	cmp	ip, r2
10004564:	eb75 0103 	sbcs.w	r1, r5, r3
10004568:	bf38      	it	cc
1000456a:	462b      	movcc	r3, r5
1000456c:	f04f 0100 	mov.w	r1, #0
10004570:	f04f 0501 	mov.w	r5, #1
10004574:	4620      	mov	r0, r4
10004576:	4c0a      	ldr	r4, [pc, #40]	@ (100045a0 <low_priority_worker_irq+0xd4>)
10004578:	bf38      	it	cc
1000457a:	4662      	movcc	r2, ip
1000457c:	e9cd 1501 	strd	r1, r5, [sp, #4]
10004580:	9400      	str	r4, [sp, #0]
10004582:	f7fd faa9 	bl	10001ad8 <alarm_pool_add_alarm_at>
10004586:	b005      	add	sp, #20
10004588:	bd30      	pop	{r4, r5, pc}
1000458a:	bf00      	nop
1000458c:	20002398 	.word	0x20002398
10004590:	20002364 	.word	0x20002364
10004594:	200023b8 	.word	0x200023b8
10004598:	20001ec4 	.word	0x20001ec4
1000459c:	20001ec8 	.word	0x20001ec8
100045a0:	100045a5 	.word	0x100045a5

100045a4 <timer_task>:
100045a4:	b570      	push	{r4, r5, r6, lr}
100045a6:	4b1a      	ldr	r3, [pc, #104]	@ (10004610 <timer_task+0x6c>)
100045a8:	681a      	ldr	r2, [r3, #0]
100045aa:	b312      	cbz	r2, 100045f2 <timer_task+0x4e>
100045ac:	f3ef 8110 	mrs	r1, PRIMASK
100045b0:	b672      	cpsid	i
100045b2:	e8d2 4fcf 	ldaexb	r4, [r2]
100045b6:	2001      	movs	r0, #1
100045b8:	2c00      	cmp	r4, #0
100045ba:	d1fa      	bne.n	100045b2 <timer_task+0xe>
100045bc:	e8c2 0f44 	strexb	r4, r0, [r2]
100045c0:	2c00      	cmp	r4, #0
100045c2:	d1f6      	bne.n	100045b2 <timer_task+0xe>
100045c4:	f3bf 8f5f 	dmb	sy
100045c8:	2200      	movs	r2, #0
100045ca:	4c12      	ldr	r4, [pc, #72]	@ (10004614 <timer_task+0x70>)
100045cc:	6818      	ldr	r0, [r3, #0]
100045ce:	6059      	str	r1, [r3, #4]
100045d0:	7022      	strb	r2, [r4, #0]
100045d2:	e8c0 2f8f 	stlb	r2, [r0]
100045d6:	f381 8810 	msr	PRIMASK, r1
100045da:	4e0f      	ldr	r6, [pc, #60]	@ (10004618 <timer_task+0x74>)
100045dc:	2400      	movs	r4, #0
100045de:	7830      	ldrb	r0, [r6, #0]
100045e0:	2500      	movs	r5, #0
100045e2:	f7fc fe27 	bl	10001234 <irq_is_enabled>
100045e6:	b968      	cbnz	r0, 10004604 <timer_task+0x60>
100045e8:	2400      	movs	r4, #0
100045ea:	2500      	movs	r5, #0
100045ec:	4620      	mov	r0, r4
100045ee:	4629      	mov	r1, r5
100045f0:	bd70      	pop	{r4, r5, r6, pc}
100045f2:	4e09      	ldr	r6, [pc, #36]	@ (10004618 <timer_task+0x74>)
100045f4:	f44f 747a 	mov.w	r4, #1000	@ 0x3e8
100045f8:	7830      	ldrb	r0, [r6, #0]
100045fa:	2500      	movs	r5, #0
100045fc:	f7fc fe1a 	bl	10001234 <irq_is_enabled>
10004600:	2800      	cmp	r0, #0
10004602:	d0f1      	beq.n	100045e8 <timer_task+0x44>
10004604:	7830      	ldrb	r0, [r6, #0]
10004606:	f7fc fe25 	bl	10001254 <irq_set_pending>
1000460a:	4620      	mov	r0, r4
1000460c:	4629      	mov	r1, r5
1000460e:	bd70      	pop	{r4, r5, r6, pc}
10004610:	20002364 	.word	0x20002364
10004614:	200023b8 	.word	0x200023b8
10004618:	200023b7 	.word	0x200023b7

1000461c <stdio_usb_init>:
1000461c:	f04f 4350 	mov.w	r3, #3489660928	@ 0xd0000000
10004620:	b530      	push	{r4, r5, lr}
10004622:	b085      	sub	sp, #20
10004624:	681c      	ldr	r4, [r3, #0]
10004626:	f7fd f9ef 	bl	10001a08 <alarm_pool_get_default>
1000462a:	f7fd fab5 	bl	10001b98 <alarm_pool_core_num>
1000462e:	42a0      	cmp	r0, r4
10004630:	d002      	beq.n	10004638 <stdio_usb_init+0x1c>
10004632:	2000      	movs	r0, #0
10004634:	b005      	add	sp, #20
10004636:	bd30      	pop	{r4, r5, pc}
10004638:	2100      	movs	r1, #0
1000463a:	4b2a      	ldr	r3, [pc, #168]	@ (100046e4 <stdio_usb_init+0xc8>)
1000463c:	4608      	mov	r0, r1
1000463e:	781b      	ldrb	r3, [r3, #0]
10004640:	f001 fc52 	bl	10005ee8 <tusb_rhport_init>
10004644:	4828      	ldr	r0, [pc, #160]	@ (100046e8 <stdio_usb_init+0xcc>)
10004646:	6803      	ldr	r3, [r0, #0]
10004648:	2b00      	cmp	r3, #0
1000464a:	d047      	beq.n	100046dc <stdio_usb_init+0xc0>
1000464c:	2001      	movs	r0, #1
1000464e:	f7fc ff95 	bl	1000157c <user_irq_claim_unused>
10004652:	4603      	mov	r3, r0
10004654:	4c25      	ldr	r4, [pc, #148]	@ (100046ec <stdio_usb_init+0xd0>)
10004656:	4926      	ldr	r1, [pc, #152]	@ (100046f0 <stdio_usb_init+0xd4>)
10004658:	b2c0      	uxtb	r0, r0
1000465a:	7023      	strb	r3, [r4, #0]
1000465c:	f7fc fe16 	bl	1000128c <irq_set_exclusive_handler>
10004660:	7820      	ldrb	r0, [r4, #0]
10004662:	2101      	movs	r1, #1
10004664:	f7fc fdd0 	bl	10001208 <irq_set_enabled>
10004668:	200e      	movs	r0, #14
1000466a:	f7fc fdff 	bl	1000126c <irq_has_shared_handler>
1000466e:	bb40      	cbnz	r0, 100046c2 <stdio_usb_init+0xa6>
10004670:	4b20      	ldr	r3, [pc, #128]	@ (100046f4 <stdio_usb_init+0xd8>)
10004672:	2501      	movs	r5, #1
10004674:	e9c3 0000 	strd	r0, r0, [r3]
10004678:	f7fd f9c6 	bl	10001a08 <alarm_pool_get_default>
1000467c:	4604      	mov	r4, r0
1000467e:	f7fd fb85 	bl	10001d8c <time_us_64>
10004682:	f04f 3eff 	mov.w	lr, #4294967295	@ 0xffffffff
10004686:	f06f 4c00 	mvn.w	ip, #2147483648	@ 0x80000000
1000468a:	f510 727a 	adds.w	r2, r0, #1000	@ 0x3e8
1000468e:	f141 0300 	adc.w	r3, r1, #0
10004692:	4596      	cmp	lr, r2
10004694:	eb7c 0103 	sbcs.w	r1, ip, r3
10004698:	f04f 0100 	mov.w	r1, #0
1000469c:	4620      	mov	r0, r4
1000469e:	4c16      	ldr	r4, [pc, #88]	@ (100046f8 <stdio_usb_init+0xdc>)
100046a0:	bf3c      	itt	cc
100046a2:	4672      	movcc	r2, lr
100046a4:	4663      	movcc	r3, ip
100046a6:	e9cd 1501 	strd	r1, r5, [sp, #4]
100046aa:	9400      	str	r4, [sp, #0]
100046ac:	f7fd fa14 	bl	10001ad8 <alarm_pool_add_alarm_at>
100046b0:	2800      	cmp	r0, #0
100046b2:	dbbe      	blt.n	10004632 <stdio_usb_init+0x16>
100046b4:	2101      	movs	r1, #1
100046b6:	4811      	ldr	r0, [pc, #68]	@ (100046fc <stdio_usb_init+0xe0>)
100046b8:	f7ff fcd4 	bl	10004064 <stdio_set_driver_enabled>
100046bc:	2001      	movs	r0, #1
100046be:	b005      	add	sp, #20
100046c0:	bd30      	pop	{r4, r5, pc}
100046c2:	2001      	movs	r0, #1
100046c4:	f7fc fd6e 	bl	100011a4 <spin_lock_claim_unused>
100046c8:	4601      	mov	r1, r0
100046ca:	480a      	ldr	r0, [pc, #40]	@ (100046f4 <stdio_usb_init+0xd8>)
100046cc:	f7fc ffb4 	bl	10001638 <critical_section_init_with_lock_num>
100046d0:	2200      	movs	r2, #0
100046d2:	200e      	movs	r0, #14
100046d4:	490a      	ldr	r1, [pc, #40]	@ (10004700 <stdio_usb_init+0xe4>)
100046d6:	f7fc fe09 	bl	100012ec <irq_add_shared_handler>
100046da:	e7eb      	b.n	100046b4 <stdio_usb_init+0x98>
100046dc:	f7fc ff90 	bl	10001600 <mutex_init>
100046e0:	e7b4      	b.n	1000464c <stdio_usb_init+0x30>
100046e2:	bf00      	nop
100046e4:	1000d05c 	.word	0x1000d05c
100046e8:	20002398 	.word	0x20002398
100046ec:	200023b7 	.word	0x200023b7
100046f0:	100044cd 	.word	0x100044cd
100046f4:	20002364 	.word	0x20002364
100046f8:	100045a5 	.word	0x100045a5
100046fc:	20000e90 	.word	0x20000e90
10004700:	100042f1 	.word	0x100042f1

10004704 <tud_descriptor_device_cb>:
10004704:	4800      	ldr	r0, [pc, #0]	@ (10004708 <tud_descriptor_device_cb+0x4>)
10004706:	4770      	bx	lr
10004708:	1000cc60 	.word	0x1000cc60

1000470c <tud_descriptor_configuration_cb>:
1000470c:	4800      	ldr	r0, [pc, #0]	@ (10004710 <tud_descriptor_configuration_cb+0x4>)
1000470e:	4770      	bx	lr
10004710:	1000cc0c 	.word	0x1000cc0c

10004714 <tud_descriptor_string_cb>:
10004714:	b538      	push	{r3, r4, r5, lr}
10004716:	4b18      	ldr	r3, [pc, #96]	@ (10004778 <tud_descriptor_string_cb+0x64>)
10004718:	4604      	mov	r4, r0
1000471a:	781a      	ldrb	r2, [r3, #0]
1000471c:	b30a      	cbz	r2, 10004762 <tud_descriptor_string_cb+0x4e>
1000471e:	b944      	cbnz	r4, 10004732 <tud_descriptor_string_cb+0x1e>
10004720:	f240 4209 	movw	r2, #1033	@ 0x409
10004724:	f44f 7341 	mov.w	r3, #772	@ 0x304
10004728:	4d14      	ldr	r5, [pc, #80]	@ (1000477c <tud_descriptor_string_cb+0x68>)
1000472a:	806a      	strh	r2, [r5, #2]
1000472c:	802b      	strh	r3, [r5, #0]
1000472e:	4813      	ldr	r0, [pc, #76]	@ (1000477c <tud_descriptor_string_cb+0x68>)
10004730:	bd38      	pop	{r3, r4, r5, pc}
10004732:	2c05      	cmp	r4, #5
10004734:	d81d      	bhi.n	10004772 <tud_descriptor_string_cb+0x5e>
10004736:	4b12      	ldr	r3, [pc, #72]	@ (10004780 <tud_descriptor_string_cb+0x6c>)
10004738:	4d10      	ldr	r5, [pc, #64]	@ (1000477c <tud_descriptor_string_cb+0x68>)
1000473a:	f853 1024 	ldr.w	r1, [r3, r4, lsl #2]
1000473e:	4628      	mov	r0, r5
10004740:	2300      	movs	r3, #0
10004742:	3901      	subs	r1, #1
10004744:	e003      	b.n	1000474e <tud_descriptor_string_cb+0x3a>
10004746:	2b13      	cmp	r3, #19
10004748:	f820 2f02 	strh.w	r2, [r0, #2]!
1000474c:	d00e      	beq.n	1000476c <tud_descriptor_string_cb+0x58>
1000474e:	f811 2f01 	ldrb.w	r2, [r1, #1]!
10004752:	3301      	adds	r3, #1
10004754:	b2db      	uxtb	r3, r3
10004756:	2a00      	cmp	r2, #0
10004758:	d1f5      	bne.n	10004746 <tud_descriptor_string_cb+0x32>
1000475a:	005b      	lsls	r3, r3, #1
1000475c:	f443 7340 	orr.w	r3, r3, #768	@ 0x300
10004760:	e7e4      	b.n	1000472c <tud_descriptor_string_cb+0x18>
10004762:	2111      	movs	r1, #17
10004764:	4618      	mov	r0, r3
10004766:	f000 f825 	bl	100047b4 <pico_get_unique_board_id_string>
1000476a:	e7d8      	b.n	1000471e <tud_descriptor_string_cb+0xa>
1000476c:	f44f 734a 	mov.w	r3, #808	@ 0x328
10004770:	e7dc      	b.n	1000472c <tud_descriptor_string_cb+0x18>
10004772:	2000      	movs	r0, #0
10004774:	bd38      	pop	{r3, r4, r5, pc}
10004776:	bf00      	nop
10004778:	200023a0 	.word	0x200023a0
1000477c:	20001efc 	.word	0x20001efc
10004780:	1000cbf4 	.word	0x1000cbf4

10004784 <_retrieve_unique_id_on_boot>:
10004784:	b500      	push	{lr}
10004786:	f245 3047 	movw	r0, #21319	@ 0x5347
1000478a:	b08b      	sub	sp, #44	@ 0x2c
1000478c:	f7fd fc7a 	bl	10002084 <rom_func_lookup>
10004790:	2201      	movs	r2, #1
10004792:	4603      	mov	r3, r0
10004794:	2109      	movs	r1, #9
10004796:	a801      	add	r0, sp, #4
10004798:	4798      	blx	r3
1000479a:	4a05      	ldr	r2, [pc, #20]	@ (100047b0 <_retrieve_unique_id_on_boot+0x2c>)
1000479c:	ab05      	add	r3, sp, #20
1000479e:	a803      	add	r0, sp, #12
100047a0:	f813 1d01 	ldrb.w	r1, [r3, #-1]!
100047a4:	4283      	cmp	r3, r0
100047a6:	f802 1f01 	strb.w	r1, [r2, #1]!
100047aa:	d1f9      	bne.n	100047a0 <_retrieve_unique_id_on_boot+0x1c>
100047ac:	b00b      	add	sp, #44	@ 0x2c
100047ae:	bd00      	pop	{pc}
100047b0:	2000238b 	.word	0x2000238b

100047b4 <pico_get_unique_board_id_string>:
100047b4:	2901      	cmp	r1, #1
100047b6:	d024      	beq.n	10004802 <pico_get_unique_board_id_string+0x4e>
100047b8:	b510      	push	{r4, lr}
100047ba:	f101 3eff 	add.w	lr, r1, #4294967295	@ 0xffffffff
100047be:	2100      	movs	r1, #0
100047c0:	4c11      	ldr	r4, [pc, #68]	@ (10004808 <pico_get_unique_board_id_string+0x54>)
100047c2:	f100 3cff 	add.w	ip, r0, #4294967295	@ 0xffffffff
100047c6:	43ca      	mvns	r2, r1
100047c8:	084b      	lsrs	r3, r1, #1
100047ca:	5ce3      	ldrb	r3, [r4, r3]
100047cc:	f002 0201 	and.w	r2, r2, #1
100047d0:	0092      	lsls	r2, r2, #2
100047d2:	4113      	asrs	r3, r2
100047d4:	f003 020f 	and.w	r2, r3, #15
100047d8:	4613      	mov	r3, r2
100047da:	2a09      	cmp	r2, #9
100047dc:	f101 0101 	add.w	r1, r1, #1
100047e0:	bfd4      	ite	le
100047e2:	3330      	addle	r3, #48	@ 0x30
100047e4:	3337      	addgt	r3, #55	@ 0x37
100047e6:	4571      	cmp	r1, lr
100047e8:	f80c 3f01 	strb.w	r3, [ip, #1]!
100047ec:	d005      	beq.n	100047fa <pico_get_unique_board_id_string+0x46>
100047ee:	2910      	cmp	r1, #16
100047f0:	d1e9      	bne.n	100047c6 <pico_get_unique_board_id_string+0x12>
100047f2:	2300      	movs	r3, #0
100047f4:	3010      	adds	r0, #16
100047f6:	7003      	strb	r3, [r0, #0]
100047f8:	bd10      	pop	{r4, pc}
100047fa:	2300      	movs	r3, #0
100047fc:	4408      	add	r0, r1
100047fe:	7003      	strb	r3, [r0, #0]
10004800:	bd10      	pop	{r4, pc}
10004802:	2300      	movs	r3, #0
10004804:	7003      	strb	r3, [r0, #0]
10004806:	4770      	bx	lr
10004808:	2000238c 	.word	0x2000238c

1000480c <hw_endpoint_init>:
1000480c:	b4f0      	push	{r4, r5, r6, r7}
1000480e:	2600      	movs	r6, #0
10004810:	f000 047f 	and.w	r4, r0, #127	@ 0x7f
10004814:	4d1b      	ldr	r5, [pc, #108]	@ (10004884 <hw_endpoint_init+0x78>)
10004816:	0063      	lsls	r3, r4, #1
10004818:	eb03 13d0 	add.w	r3, r3, r0, lsr #7
1000481c:	eb05 1343 	add.w	r3, r5, r3, lsl #5
10004820:	7098      	strb	r0, [r3, #2]
10004822:	09c0      	lsrs	r0, r0, #7
10004824:	76da      	strb	r2, [r3, #27]
10004826:	f080 0201 	eor.w	r2, r0, #1
1000482a:	8319      	strh	r1, [r3, #24]
1000482c:	70de      	strb	r6, [r3, #3]
1000482e:	705a      	strb	r2, [r3, #1]
10004830:	00e3      	lsls	r3, r4, #3
10004832:	b9a8      	cbnz	r0, 10004860 <hw_endpoint_init+0x54>
10004834:	4a14      	ldr	r2, [pc, #80]	@ (10004888 <hw_endpoint_init+0x7c>)
10004836:	3304      	adds	r3, #4
10004838:	eb05 1184 	add.w	r1, r5, r4, lsl #6
1000483c:	189f      	adds	r7, r3, r2
1000483e:	608f      	str	r7, [r1, #8]
10004840:	509e      	str	r6, [r3, r2]
10004842:	b93c      	cbnz	r4, 10004854 <hw_endpoint_init+0x48>
10004844:	2300      	movs	r3, #0
10004846:	4a11      	ldr	r2, [pc, #68]	@ (1000488c <hw_endpoint_init+0x80>)
10004848:	eb05 1040 	add.w	r0, r5, r0, lsl #5
1000484c:	60c2      	str	r2, [r0, #12]
1000484e:	6043      	str	r3, [r0, #4]
10004850:	bcf0      	pop	{r4, r5, r6, r7}
10004852:	4770      	bx	lr
10004854:	4b0e      	ldr	r3, [pc, #56]	@ (10004890 <hw_endpoint_init+0x84>)
10004856:	00e4      	lsls	r4, r4, #3
10004858:	4423      	add	r3, r4
1000485a:	604b      	str	r3, [r1, #4]
1000485c:	bcf0      	pop	{r4, r5, r6, r7}
1000485e:	4770      	bx	lr
10004860:	4a09      	ldr	r2, [pc, #36]	@ (10004888 <hw_endpoint_init+0x7c>)
10004862:	eb05 1184 	add.w	r1, r5, r4, lsl #6
10004866:	4413      	add	r3, r2
10004868:	628b      	str	r3, [r1, #40]	@ 0x28
1000486a:	f842 6034 	str.w	r6, [r2, r4, lsl #3]
1000486e:	2c00      	cmp	r4, #0
10004870:	d0e8      	beq.n	10004844 <hw_endpoint_init+0x38>
10004872:	00e4      	lsls	r4, r4, #3
10004874:	f104 44a0 	add.w	r4, r4, #1342177280	@ 0x50000000
10004878:	f504 1480 	add.w	r4, r4, #1048576	@ 0x100000
1000487c:	624c      	str	r4, [r1, #36]	@ 0x24
1000487e:	bcf0      	pop	{r4, r5, r6, r7}
10004880:	4770      	bx	lr
10004882:	bf00      	nop
10004884:	20001f54 	.word	0x20001f54
10004888:	50100080 	.word	0x50100080
1000488c:	50100100 	.word	0x50100100
10004890:	50100004 	.word	0x50100004

10004894 <dcd_init>:
10004894:	b570      	push	{r4, r5, r6, lr}
10004896:	f000 f8f3 	bl	10004a80 <rp2040_usb_init>
1000489a:	230c      	movs	r3, #12
1000489c:	2640      	movs	r6, #64	@ 0x40
1000489e:	4c19      	ldr	r4, [pc, #100]	@ (10004904 <dcd_init+0x70>)
100048a0:	22ff      	movs	r2, #255	@ 0xff
100048a2:	67a3      	str	r3, [r4, #120]	@ 0x78
100048a4:	200e      	movs	r0, #14
100048a6:	4918      	ldr	r1, [pc, #96]	@ (10004908 <dcd_init+0x74>)
100048a8:	f7fc fd20 	bl	100012ec <irq_add_shared_handler>
100048ac:	4632      	mov	r2, r6
100048ae:	2100      	movs	r1, #0
100048b0:	4816      	ldr	r0, [pc, #88]	@ (1000490c <dcd_init+0x78>)
100048b2:	f002 fe0d 	bl	100074d0 <memset>
100048b6:	2501      	movs	r5, #1
100048b8:	2300      	movs	r3, #0
100048ba:	2180      	movs	r1, #128	@ 0x80
100048bc:	4813      	ldr	r0, [pc, #76]	@ (1000490c <dcd_init+0x78>)
100048be:	4a14      	ldr	r2, [pc, #80]	@ (10004910 <dcd_init+0x7c>)
100048c0:	8441      	strh	r1, [r0, #34]	@ 0x22
100048c2:	7045      	strb	r5, [r0, #1]
100048c4:	8306      	strh	r6, [r0, #24]
100048c6:	8706      	strh	r6, [r0, #56]	@ 0x38
100048c8:	6082      	str	r2, [r0, #8]
100048ca:	6043      	str	r3, [r0, #4]
100048cc:	6013      	str	r3, [r2, #0]
100048ce:	f842 3c04 	str.w	r3, [r2, #-4]
100048d2:	f880 3021 	strb.w	r3, [r0, #33]	@ 0x21
100048d6:	f880 303b 	strb.w	r3, [r0, #59]	@ 0x3b
100048da:	6243      	str	r3, [r0, #36]	@ 0x24
100048dc:	4b0d      	ldr	r3, [pc, #52]	@ (10004914 <dcd_init+0x80>)
100048de:	f04f 5600 	mov.w	r6, #536870912	@ 0x20000000
100048e2:	60c3      	str	r3, [r0, #12]
100048e4:	62c3      	str	r3, [r0, #44]	@ 0x2c
100048e6:	3b80      	subs	r3, #128	@ 0x80
100048e8:	6283      	str	r3, [r0, #40]	@ 0x28
100048ea:	f007 fc41 	bl	1000c170 <__reset_non_control_endpoints_veneer>
100048ee:	f44f 3280 	mov.w	r2, #65536	@ 0x10000
100048f2:	4909      	ldr	r1, [pc, #36]	@ (10004918 <dcd_init+0x84>)
100048f4:	4b09      	ldr	r3, [pc, #36]	@ (1000491c <dcd_init+0x88>)
100048f6:	6425      	str	r5, [r4, #64]	@ 0x40
100048f8:	64e6      	str	r6, [r4, #76]	@ 0x4c
100048fa:	f8c4 1090 	str.w	r1, [r4, #144]	@ 0x90
100048fe:	64da      	str	r2, [r3, #76]	@ 0x4c
10004900:	4628      	mov	r0, r5
10004902:	bd70      	pop	{r4, r5, r6, pc}
10004904:	50110000 	.word	0x50110000
10004908:	20000375 	.word	0x20000375
1000490c:	20001f54 	.word	0x20001f54
10004910:	50100084 	.word	0x50100084
10004914:	50100100 	.word	0x50100100
10004918:	0001d010 	.word	0x0001d010
1000491c:	50112000 	.word	0x50112000

10004920 <dcd_int_enable>:
10004920:	2101      	movs	r1, #1
10004922:	200e      	movs	r0, #14
10004924:	f7fc bc70 	b.w	10001208 <irq_set_enabled>

10004928 <dcd_set_address>:
10004928:	2200      	movs	r2, #0
1000492a:	4802      	ldr	r0, [pc, #8]	@ (10004934 <dcd_set_address+0xc>)
1000492c:	4611      	mov	r1, r2
1000492e:	f000 b8c7 	b.w	10004ac0 <hw_endpoint_xfer_start>
10004932:	bf00      	nop
10004934:	20001f74 	.word	0x20001f74

10004938 <dcd_sof_enable>:
10004938:	4b04      	ldr	r3, [pc, #16]	@ (1000494c <dcd_sof_enable+0x14>)
1000493a:	7019      	strb	r1, [r3, #0]
1000493c:	b121      	cbz	r1, 10004948 <dcd_sof_enable+0x10>
1000493e:	f44f 3200 	mov.w	r2, #131072	@ 0x20000
10004942:	4b03      	ldr	r3, [pc, #12]	@ (10004950 <dcd_sof_enable+0x18>)
10004944:	f8c3 2090 	str.w	r2, [r3, #144]	@ 0x90
10004948:	4770      	bx	lr
1000494a:	bf00      	nop
1000494c:	200023b2 	.word	0x200023b2
10004950:	50112000 	.word	0x50112000

10004954 <dcd_edpt0_status_complete>:
10004954:	780b      	ldrb	r3, [r1, #0]
10004956:	065b      	lsls	r3, r3, #25
10004958:	d102      	bne.n	10004960 <dcd_edpt0_status_complete+0xc>
1000495a:	784b      	ldrb	r3, [r1, #1]
1000495c:	2b05      	cmp	r3, #5
1000495e:	d000      	beq.n	10004962 <dcd_edpt0_status_complete+0xe>
10004960:	4770      	bx	lr
10004962:	884b      	ldrh	r3, [r1, #2]
10004964:	4a01      	ldr	r2, [pc, #4]	@ (1000496c <dcd_edpt0_status_complete+0x18>)
10004966:	b2db      	uxtb	r3, r3
10004968:	6013      	str	r3, [r2, #0]
1000496a:	4770      	bx	lr
1000496c:	50110000 	.word	0x50110000

10004970 <dcd_edpt_open>:
10004970:	78ca      	ldrb	r2, [r1, #3]
10004972:	f002 0203 	and.w	r2, r2, #3
10004976:	2a01      	cmp	r2, #1
10004978:	d036      	beq.n	100049e8 <dcd_edpt_open+0x78>
1000497a:	b5f8      	push	{r3, r4, r5, r6, r7, lr}
1000497c:	788c      	ldrb	r4, [r1, #2]
1000497e:	8889      	ldrh	r1, [r1, #4]
10004980:	f004 057f 	and.w	r5, r4, #127	@ 0x7f
10004984:	4620      	mov	r0, r4
10004986:	f3c1 010a 	ubfx	r1, r1, #0, #11
1000498a:	f7ff ff3f 	bl	1000480c <hw_endpoint_init>
1000498e:	b90d      	cbnz	r5, 10004994 <dcd_edpt_open+0x24>
10004990:	2001      	movs	r0, #1
10004992:	bdf8      	pop	{r3, r4, r5, r6, r7, pc}
10004994:	4e17      	ldr	r6, [pc, #92]	@ (100049f4 <dcd_edpt_open+0x84>)
10004996:	006d      	lsls	r5, r5, #1
10004998:	eb05 13d4 	add.w	r3, r5, r4, lsr #7
1000499c:	eb06 1343 	add.w	r3, r6, r3, lsl #5
100049a0:	8b1a      	ldrh	r2, [r3, #24]
100049a2:	4915      	ldr	r1, [pc, #84]	@ (100049f8 <dcd_edpt_open+0x88>)
100049a4:	7edb      	ldrb	r3, [r3, #27]
100049a6:	323f      	adds	r2, #63	@ 0x3f
100049a8:	2b02      	cmp	r3, #2
100049aa:	f022 023f 	bic.w	r2, r2, #63	@ 0x3f
100049ae:	680b      	ldr	r3, [r1, #0]
100049b0:	bf08      	it	eq
100049b2:	0052      	lsleq	r2, r2, #1
100049b4:	441a      	add	r2, r3
100049b6:	09e4      	lsrs	r4, r4, #7
100049b8:	600a      	str	r2, [r1, #0]
100049ba:	4910      	ldr	r1, [pc, #64]	@ (100049fc <dcd_edpt_open+0x8c>)
100049bc:	192f      	adds	r7, r5, r4
100049be:	eb06 1747 	add.w	r7, r6, r7, lsl #5
100049c2:	428a      	cmp	r2, r1
100049c4:	60fb      	str	r3, [r7, #12]
100049c6:	d811      	bhi.n	100049ec <dcd_edpt_open+0x7c>
100049c8:	4425      	add	r5, r4
100049ca:	eb06 1545 	add.w	r5, r6, r5, lsl #5
100049ce:	7ee9      	ldrb	r1, [r5, #27]
100049d0:	f083 43a0 	eor.w	r3, r3, #1342177280	@ 0x50000000
100049d4:	f483 1380 	eor.w	r3, r3, #1048576	@ 0x100000
100049d8:	686a      	ldr	r2, [r5, #4]
100049da:	ea43 6381 	orr.w	r3, r3, r1, lsl #26
100049de:	f043 4300 	orr.w	r3, r3, #2147483648	@ 0x80000000
100049e2:	6013      	str	r3, [r2, #0]
100049e4:	2001      	movs	r0, #1
100049e6:	bdf8      	pop	{r3, r4, r5, r6, r7, pc}
100049e8:	2000      	movs	r0, #0
100049ea:	4770      	bx	lr
100049ec:	f7fd fb96 	bl	1000211c <hard_assertion_failure>
100049f0:	68fb      	ldr	r3, [r7, #12]
100049f2:	e7e9      	b.n	100049c8 <dcd_edpt_open+0x58>
100049f4:	20001f54 	.word	0x20001f54
100049f8:	20002360 	.word	0x20002360
100049fc:	50100fff 	.word	0x50100fff

10004a00 <dcd_edpt_close_all>:
10004a00:	f007 bbb6 	b.w	1000c170 <__reset_non_control_endpoints_veneer>

10004a04 <dcd_edpt_xfer>:
10004a04:	468c      	mov	ip, r1
10004a06:	b508      	push	{r3, lr}
10004a08:	4611      	mov	r1, r2
10004a0a:	4807      	ldr	r0, [pc, #28]	@ (10004a28 <dcd_edpt_xfer+0x24>)
10004a0c:	461a      	mov	r2, r3
10004a0e:	f00c 037f 	and.w	r3, ip, #127	@ 0x7f
10004a12:	ea4f 1cdc 	mov.w	ip, ip, lsr #7
10004a16:	eb0c 0c43 	add.w	ip, ip, r3, lsl #1
10004a1a:	eb00 104c 	add.w	r0, r0, ip, lsl #5
10004a1e:	f000 f84f 	bl	10004ac0 <hw_endpoint_xfer_start>
10004a22:	2001      	movs	r0, #1
10004a24:	bd08      	pop	{r3, pc}
10004a26:	bf00      	nop
10004a28:	20001f54 	.word	0x20001f54

10004a2c <dcd_edpt_stall>:
10004a2c:	f011 027f 	ands.w	r2, r1, #127	@ 0x7f
10004a30:	d105      	bne.n	10004a3e <dcd_edpt_stall+0x12>
10004a32:	2900      	cmp	r1, #0
10004a34:	bf0c      	ite	eq
10004a36:	2002      	moveq	r0, #2
10004a38:	2001      	movne	r0, #1
10004a3a:	4b06      	ldr	r3, [pc, #24]	@ (10004a54 <dcd_edpt_stall+0x28>)
10004a3c:	6698      	str	r0, [r3, #104]	@ 0x68
10004a3e:	09c9      	lsrs	r1, r1, #7
10004a40:	4b05      	ldr	r3, [pc, #20]	@ (10004a58 <dcd_edpt_stall+0x2c>)
10004a42:	eb01 0042 	add.w	r0, r1, r2, lsl #1
10004a46:	eb03 1040 	add.w	r0, r3, r0, lsl #5
10004a4a:	f44f 6200 	mov.w	r2, #2048	@ 0x800
10004a4e:	2100      	movs	r1, #0
10004a50:	f007 bb82 	b.w	1000c158 <___hw_endpoint_buffer_control_update32_veneer>
10004a54:	50112000 	.word	0x50112000
10004a58:	20001f54 	.word	0x20001f54

10004a5c <dcd_edpt_clear_stall>:
10004a5c:	f011 037f 	ands.w	r3, r1, #127	@ 0x7f
10004a60:	d100      	bne.n	10004a64 <dcd_edpt_clear_stall+0x8>
10004a62:	4770      	bx	lr
10004a64:	2200      	movs	r2, #0
10004a66:	4805      	ldr	r0, [pc, #20]	@ (10004a7c <dcd_edpt_clear_stall+0x20>)
10004a68:	005b      	lsls	r3, r3, #1
10004a6a:	eb03 13d1 	add.w	r3, r3, r1, lsr #7
10004a6e:	eb00 1043 	add.w	r0, r0, r3, lsl #5
10004a72:	f46f 6100 	mvn.w	r1, #2048	@ 0x800
10004a76:	70c2      	strb	r2, [r0, #3]
10004a78:	f007 bb6e 	b.w	1000c158 <___hw_endpoint_buffer_control_update32_veneer>
10004a7c:	20001f54 	.word	0x20001f54

10004a80 <rp2040_usb_init>:
10004a80:	f04f 5280 	mov.w	r2, #268435456	@ 0x10000000
10004a84:	4809      	ldr	r0, [pc, #36]	@ (10004aac <rp2040_usb_init+0x2c>)
10004a86:	490a      	ldr	r1, [pc, #40]	@ (10004ab0 <rp2040_usb_init+0x30>)
10004a88:	b508      	push	{r3, lr}
10004a8a:	4b0a      	ldr	r3, [pc, #40]	@ (10004ab4 <rp2040_usb_init+0x34>)
10004a8c:	6002      	str	r2, [r0, #0]
10004a8e:	600a      	str	r2, [r1, #0]
10004a90:	6899      	ldr	r1, [r3, #8]
10004a92:	43c9      	mvns	r1, r1
10004a94:	f011 5180 	ands.w	r1, r1, #268435456	@ 0x10000000
10004a98:	d1fa      	bne.n	10004a90 <rp2040_usb_init+0x10>
10004a9a:	f44f 5280 	mov.w	r2, #4096	@ 0x1000
10004a9e:	4806      	ldr	r0, [pc, #24]	@ (10004ab8 <rp2040_usb_init+0x38>)
10004aa0:	f002 fd16 	bl	100074d0 <memset>
10004aa4:	2209      	movs	r2, #9
10004aa6:	4b05      	ldr	r3, [pc, #20]	@ (10004abc <rp2040_usb_init+0x3c>)
10004aa8:	675a      	str	r2, [r3, #116]	@ 0x74
10004aaa:	bd08      	pop	{r3, pc}
10004aac:	40022000 	.word	0x40022000
10004ab0:	40023000 	.word	0x40023000
10004ab4:	40020000 	.word	0x40020000
10004ab8:	50100000 	.word	0x50100000
10004abc:	50110000 	.word	0x50110000

10004ac0 <hw_endpoint_xfer_start>:
10004ac0:	2300      	movs	r3, #0
10004ac2:	f04f 0c01 	mov.w	ip, #1
10004ac6:	b510      	push	{r4, lr}
10004ac8:	f880 c01a 	strb.w	ip, [r0, #26]
10004acc:	8282      	strh	r2, [r0, #20]
10004ace:	82c3      	strh	r3, [r0, #22]
10004ad0:	6101      	str	r1, [r0, #16]
10004ad2:	4604      	mov	r4, r0
10004ad4:	f007 fb30 	bl	1000c138 <__e15_is_bulkin_ep_veneer>
10004ad8:	b120      	cbz	r0, 10004ae4 <hw_endpoint_xfer_start+0x24>
10004ada:	f44f 3200 	mov.w	r2, #131072	@ 0x20000
10004ade:	4b07      	ldr	r3, [pc, #28]	@ (10004afc <hw_endpoint_xfer_start+0x3c>)
10004ae0:	f8c3 2090 	str.w	r2, [r3, #144]	@ 0x90
10004ae4:	4620      	mov	r0, r4
10004ae6:	f007 fb1b 	bl	1000c120 <__e15_is_critical_frame_period_veneer>
10004aea:	b110      	cbz	r0, 10004af2 <hw_endpoint_xfer_start+0x32>
10004aec:	2301      	movs	r3, #1
10004aee:	7723      	strb	r3, [r4, #28]
10004af0:	bd10      	pop	{r4, pc}
10004af2:	4620      	mov	r0, r4
10004af4:	e8bd 4010 	ldmia.w	sp!, {r4, lr}
10004af8:	f007 bb1a 	b.w	1000c130 <__hw_endpoint_start_next_buffer_veneer>
10004afc:	50112000 	.word	0x50112000

10004b00 <configuration_reset>:
10004b00:	e92d 41f0 	stmdb	sp!, {r4, r5, r6, r7, r8, lr}
10004b04:	2400      	movs	r4, #0
10004b06:	4e1d      	ldr	r6, [pc, #116]	@ (10004b7c <configuration_reset+0x7c>)
10004b08:	4605      	mov	r5, r0
10004b0a:	4623      	mov	r3, r4
10004b0c:	7832      	ldrb	r2, [r6, #0]
10004b0e:	f8df 8078 	ldr.w	r8, [pc, #120]	@ 10004b88 <configuration_reset+0x88>
10004b12:	4f1b      	ldr	r7, [pc, #108]	@ (10004b80 <configuration_reset+0x80>)
10004b14:	e00d      	b.n	10004b32 <configuration_reset+0x32>
10004b16:	683b      	ldr	r3, [r7, #0]
10004b18:	eb13 1344 	adds.w	r3, r3, r4, lsl #5
10004b1c:	d024      	beq.n	10004b68 <configuration_reset+0x68>
10004b1e:	68db      	ldr	r3, [r3, #12]
10004b20:	4628      	mov	r0, r5
10004b22:	4798      	blx	r3
10004b24:	7832      	ldrb	r2, [r6, #0]
10004b26:	3401      	adds	r4, #1
10004b28:	b2e4      	uxtb	r4, r4
10004b2a:	1c51      	adds	r1, r2, #1
10004b2c:	42a1      	cmp	r1, r4
10004b2e:	4623      	mov	r3, r4
10004b30:	db06      	blt.n	10004b40 <configuration_reset+0x40>
10004b32:	42a2      	cmp	r2, r4
10004b34:	eba3 0302 	sub.w	r3, r3, r2
10004b38:	d8ed      	bhi.n	10004b16 <configuration_reset+0x16>
10004b3a:	eb08 1343 	add.w	r3, r8, r3, lsl #5
10004b3e:	e7ee      	b.n	10004b1e <configuration_reset+0x1e>
10004b40:	2254      	movs	r2, #84	@ 0x54
10004b42:	2100      	movs	r1, #0
10004b44:	480f      	ldr	r0, [pc, #60]	@ (10004b84 <configuration_reset+0x84>)
10004b46:	f002 fcc3 	bl	100074d0 <memset>
10004b4a:	f04f 33ff 	mov.w	r3, #4294967295	@ 0xffffffff
10004b4e:	480d      	ldr	r0, [pc, #52]	@ (10004b84 <configuration_reset+0x84>)
10004b50:	2220      	movs	r2, #32
10004b52:	1d04      	adds	r4, r0, #4
10004b54:	6043      	str	r3, [r0, #4]
10004b56:	e9c4 3301 	strd	r3, r3, [r4, #4]
10004b5a:	60e3      	str	r3, [r4, #12]
10004b5c:	21ff      	movs	r1, #255	@ 0xff
10004b5e:	e8bd 41f0 	ldmia.w	sp!, {r4, r5, r6, r7, r8, lr}
10004b62:	3014      	adds	r0, #20
10004b64:	f002 bcb4 	b.w	100074d0 <memset>
10004b68:	f04f 23e0 	mov.w	r3, #3758153728	@ 0xe000e000
10004b6c:	f8d3 3df0 	ldr.w	r3, [r3, #3568]	@ 0xdf0
10004b70:	07db      	lsls	r3, r3, #31
10004b72:	d500      	bpl.n	10004b76 <configuration_reset+0x76>
10004b74:	be00      	bkpt	0x0000
10004b76:	e8bd 81f0 	ldmia.w	sp!, {r4, r5, r6, r7, r8, pc}
10004b7a:	bf00      	nop
10004b7c:	200023b1 	.word	0x200023b1
10004b80:	2000188c 	.word	0x2000188c
10004b84:	20001a5c 	.word	0x20001a5c
10004b88:	1000cc74 	.word	0x1000cc74

10004b8c <tud_event_hook_cb>:
10004b8c:	4770      	bx	lr
10004b8e:	bf00      	nop

10004b90 <tud_sof_cb>:
10004b90:	4770      	bx	lr
10004b92:	bf00      	nop

10004b94 <tud_descriptor_device_qualifier_cb>:
10004b94:	2000      	movs	r0, #0
10004b96:	4770      	bx	lr

10004b98 <tud_descriptor_other_speed_configuration_cb>:
10004b98:	2000      	movs	r0, #0
10004b9a:	4770      	bx	lr

10004b9c <tud_mount_cb>:
10004b9c:	4770      	bx	lr
10004b9e:	bf00      	nop

10004ba0 <tud_umount_cb>:
10004ba0:	4770      	bx	lr
10004ba2:	bf00      	nop

10004ba4 <tud_suspend_cb>:
10004ba4:	4770      	bx	lr
10004ba6:	bf00      	nop

10004ba8 <tud_resume_cb>:
10004ba8:	4770      	bx	lr
10004baa:	bf00      	nop

10004bac <tud_mounted>:
10004bac:	4b02      	ldr	r3, [pc, #8]	@ (10004bb8 <tud_mounted+0xc>)
10004bae:	7858      	ldrb	r0, [r3, #1]
10004bb0:	3800      	subs	r0, #0
10004bb2:	bf18      	it	ne
10004bb4:	2001      	movne	r0, #1
10004bb6:	4770      	bx	lr
10004bb8:	20001a5c 	.word	0x20001a5c

10004bbc <tud_suspended>:
10004bbc:	4b02      	ldr	r3, [pc, #8]	@ (10004bc8 <tud_suspended+0xc>)
10004bbe:	7818      	ldrb	r0, [r3, #0]
10004bc0:	f3c0 0080 	ubfx	r0, r0, #2, #1
10004bc4:	4770      	bx	lr
10004bc6:	bf00      	nop
10004bc8:	20001a5c 	.word	0x20001a5c

10004bcc <tud_rhport_init>:
10004bcc:	e92d 47f0 	stmdb	sp!, {r4, r5, r6, r7, r8, r9, sl, lr}
10004bd0:	f8df a0e4 	ldr.w	sl, [pc, #228]	@ 10004cb8 <tud_rhport_init+0xec>
10004bd4:	f89a 3000 	ldrb.w	r3, [sl]
10004bd8:	2bff      	cmp	r3, #255	@ 0xff
10004bda:	d156      	bne.n	10004c8a <tud_rhport_init+0xbe>
10004bdc:	460e      	mov	r6, r1
10004bde:	2900      	cmp	r1, #0
10004be0:	d03e      	beq.n	10004c60 <tud_rhport_init+0x94>
10004be2:	2100      	movs	r1, #0
10004be4:	2254      	movs	r2, #84	@ 0x54
10004be6:	4607      	mov	r7, r0
10004be8:	4829      	ldr	r0, [pc, #164]	@ (10004c90 <tud_rhport_init+0xc4>)
10004bea:	f002 fc71 	bl	100074d0 <memset>
10004bee:	2200      	movs	r2, #0
10004bf0:	4c28      	ldr	r4, [pc, #160]	@ (10004c94 <tud_rhport_init+0xc8>)
10004bf2:	4b29      	ldr	r3, [pc, #164]	@ (10004c98 <tud_rhport_init+0xcc>)
10004bf4:	4620      	mov	r0, r4
10004bf6:	701a      	strb	r2, [r3, #0]
10004bf8:	f7fc fd02 	bl	10001600 <mutex_init>
10004bfc:	4b27      	ldr	r3, [pc, #156]	@ (10004c9c <tud_rhport_init+0xd0>)
10004bfe:	4828      	ldr	r0, [pc, #160]	@ (10004ca0 <tud_rhport_init+0xd4>)
10004c00:	601c      	str	r4, [r3, #0]
10004c02:	4c28      	ldr	r4, [pc, #160]	@ (10004ca4 <tud_rhport_init+0xd8>)
10004c04:	f7fc fd0a 	bl	1000161c <critical_section_init>
10004c08:	4620      	mov	r0, r4
10004c0a:	f001 fd69 	bl	100066e0 <tu_fifo_clear>
10004c0e:	4a26      	ldr	r2, [pc, #152]	@ (10004ca8 <tud_rhport_init+0xdc>)
10004c10:	4b26      	ldr	r3, [pc, #152]	@ (10004cac <tud_rhport_init+0xe0>)
10004c12:	6014      	str	r4, [r2, #0]
10004c14:	b123      	cbz	r3, 10004c20 <tud_rhport_init+0x54>
10004c16:	4826      	ldr	r0, [pc, #152]	@ (10004cb0 <tud_rhport_init+0xe4>)
10004c18:	f7ff fb4c 	bl	100042b4 <usbd_app_driver_get_cb>
10004c1c:	4b25      	ldr	r3, [pc, #148]	@ (10004cb4 <tud_rhport_init+0xe8>)
10004c1e:	6018      	str	r0, [r3, #0]
10004c20:	2400      	movs	r4, #0
10004c22:	4d23      	ldr	r5, [pc, #140]	@ (10004cb0 <tud_rhport_init+0xe4>)
10004c24:	4623      	mov	r3, r4
10004c26:	782a      	ldrb	r2, [r5, #0]
10004c28:	f8df 9090 	ldr.w	r9, [pc, #144]	@ 10004cbc <tud_rhport_init+0xf0>
10004c2c:	f8df 8084 	ldr.w	r8, [pc, #132]	@ 10004cb4 <tud_rhport_init+0xe8>
10004c30:	e00e      	b.n	10004c50 <tud_rhport_init+0x84>
10004c32:	f8d8 3000 	ldr.w	r3, [r8]
10004c36:	eb13 1344 	adds.w	r3, r3, r4, lsl #5
10004c3a:	d011      	beq.n	10004c60 <tud_rhport_init+0x94>
10004c3c:	685b      	ldr	r3, [r3, #4]
10004c3e:	b17b      	cbz	r3, 10004c60 <tud_rhport_init+0x94>
10004c40:	4798      	blx	r3
10004c42:	782a      	ldrb	r2, [r5, #0]
10004c44:	3401      	adds	r4, #1
10004c46:	b2e4      	uxtb	r4, r4
10004c48:	1c51      	adds	r1, r2, #1
10004c4a:	42a1      	cmp	r1, r4
10004c4c:	4623      	mov	r3, r4
10004c4e:	db11      	blt.n	10004c74 <tud_rhport_init+0xa8>
10004c50:	42a2      	cmp	r2, r4
10004c52:	d8ee      	bhi.n	10004c32 <tud_rhport_init+0x66>
10004c54:	1a9b      	subs	r3, r3, r2
10004c56:	eb09 1343 	add.w	r3, r9, r3, lsl #5
10004c5a:	685b      	ldr	r3, [r3, #4]
10004c5c:	2b00      	cmp	r3, #0
10004c5e:	d1ef      	bne.n	10004c40 <tud_rhport_init+0x74>
10004c60:	f04f 23e0 	mov.w	r3, #3758153728	@ 0xe000e000
10004c64:	f8d3 3df0 	ldr.w	r3, [r3, #3568]	@ 0xdf0
10004c68:	07db      	lsls	r3, r3, #31
10004c6a:	d500      	bpl.n	10004c6e <tud_rhport_init+0xa2>
10004c6c:	be00      	bkpt	0x0000
10004c6e:	2000      	movs	r0, #0
10004c70:	e8bd 87f0 	ldmia.w	sp!, {r4, r5, r6, r7, r8, r9, sl, pc}
10004c74:	4631      	mov	r1, r6
10004c76:	4638      	mov	r0, r7
10004c78:	f88a 7000 	strb.w	r7, [sl]
10004c7c:	f7ff fe0a 	bl	10004894 <dcd_init>
10004c80:	2800      	cmp	r0, #0
10004c82:	d0ed      	beq.n	10004c60 <tud_rhport_init+0x94>
10004c84:	4638      	mov	r0, r7
10004c86:	f7ff fe4b 	bl	10004920 <dcd_int_enable>
10004c8a:	2001      	movs	r0, #1
10004c8c:	e8bd 87f0 	ldmia.w	sp!, {r4, r5, r6, r7, r8, r9, sl, pc}
10004c90:	20001a5c 	.word	0x20001a5c
10004c94:	20001a54 	.word	0x20001a54
10004c98:	200023b3 	.word	0x200023b3
10004c9c:	20001ab0 	.word	0x20001ab0
10004ca0:	20000ebc 	.word	0x20000ebc
10004ca4:	20000ea8 	.word	0x20000ea8
10004ca8:	20001ab4 	.word	0x20001ab4
10004cac:	100042b5 	.word	0x100042b5
10004cb0:	200023b1 	.word	0x200023b1
10004cb4:	2000188c 	.word	0x2000188c
10004cb8:	20000ec4 	.word	0x20000ec4
10004cbc:	1000cc74 	.word	0x1000cc74

10004cc0 <tud_task_ext>:
10004cc0:	e92d 4ff0 	stmdb	sp!, {r4, r5, r6, r7, r8, r9, sl, fp, lr}
10004cc4:	f8df 92c8 	ldr.w	r9, [pc, #712]	@ 10004f90 <tud_task_ext+0x2d0>
10004cc8:	b08b      	sub	sp, #44	@ 0x2c
10004cca:	f899 3000 	ldrb.w	r3, [r9]
10004cce:	2bff      	cmp	r3, #255	@ 0xff
10004cd0:	f000 80f1 	beq.w	10004eb6 <tud_task_ext+0x1f6>
10004cd4:	4ca8      	ldr	r4, [pc, #672]	@ (10004f78 <tud_task_ext+0x2b8>)
10004cd6:	4da9      	ldr	r5, [pc, #676]	@ (10004f7c <tud_task_ext+0x2bc>)
10004cd8:	f8df a2b0 	ldr.w	sl, [pc, #688]	@ 10004f8c <tud_task_ext+0x2cc>
10004cdc:	f8df b2b4 	ldr.w	fp, [pc, #692]	@ 10004f94 <tud_task_ext+0x2d4>
10004ce0:	6826      	ldr	r6, [r4, #0]
10004ce2:	6973      	ldr	r3, [r6, #20]
10004ce4:	f3ef 8210 	mrs	r2, PRIMASK
10004ce8:	b672      	cpsid	i
10004cea:	e8d3 0fcf 	ldaexb	r0, [r3]
10004cee:	2101      	movs	r1, #1
10004cf0:	2800      	cmp	r0, #0
10004cf2:	d1fa      	bne.n	10004cea <tud_task_ext+0x2a>
10004cf4:	e8c3 1f40 	strexb	r0, r1, [r3]
10004cf8:	2800      	cmp	r0, #0
10004cfa:	d1f6      	bne.n	10004cea <tud_task_ext+0x2a>
10004cfc:	f3bf 8f5f 	dmb	sy
10004d00:	61b2      	str	r2, [r6, #24]
10004d02:	4630      	mov	r0, r6
10004d04:	a907      	add	r1, sp, #28
10004d06:	f001 fb91 	bl	1000642c <tu_fifo_read>
10004d0a:	2300      	movs	r3, #0
10004d0c:	6972      	ldr	r2, [r6, #20]
10004d0e:	e8c2 3f8f 	stlb	r3, [r2]
10004d12:	69b3      	ldr	r3, [r6, #24]
10004d14:	f383 8810 	msr	PRIMASK, r3
10004d18:	2800      	cmp	r0, #0
10004d1a:	f000 80cc 	beq.w	10004eb6 <tud_task_ext+0x1f6>
10004d1e:	f89d 301d 	ldrb.w	r3, [sp, #29]
10004d22:	3b01      	subs	r3, #1
10004d24:	2b07      	cmp	r3, #7
10004d26:	f200 837d 	bhi.w	10005424 <tud_task_ext+0x764>
10004d2a:	e8df f003 	tbb	[pc, r3]
10004d2e:	b1a7      	.short	0xb1a7
10004d30:	358e9d95 	.word	0x358e9d95
10004d34:	040a      	.short	0x040a
10004d36:	9b08      	ldr	r3, [sp, #32]
10004d38:	2b00      	cmp	r3, #0
10004d3a:	d0d1      	beq.n	10004ce0 <tud_task_ext+0x20>
10004d3c:	9809      	ldr	r0, [sp, #36]	@ 0x24
10004d3e:	4798      	blx	r3
10004d40:	e7ce      	b.n	10004ce0 <tud_task_ext+0x20>
10004d42:	f89d 1020 	ldrb.w	r1, [sp, #32]
10004d46:	f001 067f 	and.w	r6, r1, #127	@ 0x7f
10004d4a:	eb05 0046 	add.w	r0, r5, r6, lsl #1
10004d4e:	eb00 10d1 	add.w	r0, r0, r1, lsr #7
10004d52:	f890 3034 	ldrb.w	r3, [r0, #52]	@ 0x34
10004d56:	f023 0301 	bic.w	r3, r3, #1
10004d5a:	f880 3034 	strb.w	r3, [r0, #52]	@ 0x34
10004d5e:	f890 3034 	ldrb.w	r3, [r0, #52]	@ 0x34
10004d62:	f023 0304 	bic.w	r3, r3, #4
10004d66:	f880 3034 	strb.w	r3, [r0, #52]	@ 0x34
10004d6a:	2e00      	cmp	r6, #0
10004d6c:	f000 80a6 	beq.w	10004ebc <tud_task_ext+0x1fc>
10004d70:	7d03      	ldrb	r3, [r0, #20]
10004d72:	f89a 2000 	ldrb.w	r2, [sl]
10004d76:	4293      	cmp	r3, r2
10004d78:	f080 8093 	bcs.w	10004ea2 <tud_task_ext+0x1e2>
10004d7c:	4a80      	ldr	r2, [pc, #512]	@ (10004f80 <tud_task_ext+0x2c0>)
10004d7e:	6812      	ldr	r2, [r2, #0]
10004d80:	eb12 1343 	adds.w	r3, r2, r3, lsl #5
10004d84:	f000 8090 	beq.w	10004ea8 <tud_task_ext+0x1e8>
10004d88:	699e      	ldr	r6, [r3, #24]
10004d8a:	f89d 2021 	ldrb.w	r2, [sp, #33]	@ 0x21
10004d8e:	9b09      	ldr	r3, [sp, #36]	@ 0x24
10004d90:	f89d 001c 	ldrb.w	r0, [sp, #28]
10004d94:	47b0      	blx	r6
10004d96:	e7a3      	b.n	10004ce0 <tud_task_ext+0x20>
10004d98:	f89b 3000 	ldrb.w	r3, [fp]
10004d9c:	2b00      	cmp	r3, #0
10004d9e:	f000 8083 	beq.w	10004ea8 <tud_task_ext+0x1e8>
10004da2:	f89b 3000 	ldrb.w	r3, [fp]
10004da6:	3b01      	subs	r3, #1
10004da8:	b2db      	uxtb	r3, r3
10004daa:	f88b 3000 	strb.w	r3, [fp]
10004dae:	f89b 3000 	ldrb.w	r3, [fp]
10004db2:	f003 00ff 	and.w	r0, r3, #255	@ 0xff
10004db6:	2b00      	cmp	r3, #0
10004db8:	d192      	bne.n	10004ce0 <tud_task_ext+0x20>
10004dba:	4f70      	ldr	r7, [pc, #448]	@ (10004f7c <tud_task_ext+0x2bc>)
10004dbc:	f89d 801c 	ldrb.w	r8, [sp, #28]
10004dc0:	783b      	ldrb	r3, [r7, #0]
10004dc2:	f043 0301 	orr.w	r3, r3, #1
10004dc6:	703b      	strb	r3, [r7, #0]
10004dc8:	f897 3034 	ldrb.w	r3, [r7, #52]	@ 0x34
10004dcc:	f360 0300 	bfi	r3, r0, #0, #1
10004dd0:	f887 3034 	strb.w	r3, [r7, #52]	@ 0x34
10004dd4:	f897 3034 	ldrb.w	r3, [r7, #52]	@ 0x34
10004dd8:	f360 0382 	bfi	r3, r0, #2, #1
10004ddc:	f887 3034 	strb.w	r3, [r7, #52]	@ 0x34
10004de0:	f897 3035 	ldrb.w	r3, [r7, #53]	@ 0x35
10004de4:	f360 0300 	bfi	r3, r0, #0, #1
10004de8:	f887 3035 	strb.w	r3, [r7, #53]	@ 0x35
10004dec:	f897 3035 	ldrb.w	r3, [r7, #53]	@ 0x35
10004df0:	f360 0382 	bfi	r3, r0, #2, #1
10004df4:	f887 3035 	strb.w	r3, [r7, #53]	@ 0x35
10004df8:	f000 fc70 	bl	100056dc <usbd_control_set_complete_callback>
10004dfc:	f89d 3020 	ldrb.w	r3, [sp, #32]
10004e00:	f003 0260 	and.w	r2, r3, #96	@ 0x60
10004e04:	2a60      	cmp	r2, #96	@ 0x60
10004e06:	d06c      	beq.n	10004ee2 <tud_task_ext+0x222>
10004e08:	2a40      	cmp	r2, #64	@ 0x40
10004e0a:	d07c      	beq.n	10004f06 <tud_task_ext+0x246>
10004e0c:	f003 031f 	and.w	r3, r3, #31
10004e10:	2b01      	cmp	r3, #1
10004e12:	f000 80c1 	beq.w	10004f98 <tud_task_ext+0x2d8>
10004e16:	2b02      	cmp	r3, #2
10004e18:	f000 8081 	beq.w	10004f1e <tud_task_ext+0x25e>
10004e1c:	2b00      	cmp	r3, #0
10004e1e:	d160      	bne.n	10004ee2 <tud_task_ext+0x222>
10004e20:	2a20      	cmp	r2, #32
10004e22:	f000 81e9 	beq.w	100051f8 <tud_task_ext+0x538>
10004e26:	2a00      	cmp	r2, #0
10004e28:	d15b      	bne.n	10004ee2 <tud_task_ext+0x222>
10004e2a:	f89d 3021 	ldrb.w	r3, [sp, #33]	@ 0x21
10004e2e:	2b09      	cmp	r3, #9
10004e30:	d857      	bhi.n	10004ee2 <tud_task_ext+0x222>
10004e32:	e8df f013 	tbh	[pc, r3, lsl #1]
10004e36:	01b0      	.short	0x01b0
10004e38:	005601a2 	.word	0x005601a2
10004e3c:	005601c1 	.word	0x005601c1
10004e40:	016b0195 	.word	0x016b0195
10004e44:	01600056 	.word	0x01600056
10004e48:	00f4      	.short	0x00f4
10004e4a:	782b      	ldrb	r3, [r5, #0]
10004e4c:	07d9      	lsls	r1, r3, #31
10004e4e:	f57f af47 	bpl.w	10004ce0 <tud_task_ext+0x20>
10004e52:	f7ff fea9 	bl	10004ba8 <tud_resume_cb>
10004e56:	e743      	b.n	10004ce0 <tud_task_ext+0x20>
10004e58:	78eb      	ldrb	r3, [r5, #3]
10004e5a:	07da      	lsls	r2, r3, #31
10004e5c:	f57f af40 	bpl.w	10004ce0 <tud_task_ext+0x20>
10004e60:	9808      	ldr	r0, [sp, #32]
10004e62:	f7ff fe95 	bl	10004b90 <tud_sof_cb>
10004e66:	e73b      	b.n	10004ce0 <tud_task_ext+0x20>
10004e68:	782b      	ldrb	r3, [r5, #0]
10004e6a:	07d8      	lsls	r0, r3, #31
10004e6c:	f57f af38 	bpl.w	10004ce0 <tud_task_ext+0x20>
10004e70:	7828      	ldrb	r0, [r5, #0]
10004e72:	f3c0 00c0 	ubfx	r0, r0, #3, #1
10004e76:	f7ff fe95 	bl	10004ba4 <tud_suspend_cb>
10004e7a:	e731      	b.n	10004ce0 <tud_task_ext+0x20>
10004e7c:	f89d 001c 	ldrb.w	r0, [sp, #28]
10004e80:	f7ff fe3e 	bl	10004b00 <configuration_reset>
10004e84:	f000 fc20 	bl	100056c8 <usbd_control_reset>
10004e88:	f89d 3020 	ldrb.w	r3, [sp, #32]
10004e8c:	70ab      	strb	r3, [r5, #2]
10004e8e:	e727      	b.n	10004ce0 <tud_task_ext+0x20>
10004e90:	f89d 001c 	ldrb.w	r0, [sp, #28]
10004e94:	f7ff fe34 	bl	10004b00 <configuration_reset>
10004e98:	f000 fc16 	bl	100056c8 <usbd_control_reset>
10004e9c:	f7ff fe80 	bl	10004ba0 <tud_umount_cb>
10004ea0:	e71e      	b.n	10004ce0 <tud_task_ext+0x20>
10004ea2:	1c50      	adds	r0, r2, #1
10004ea4:	4298      	cmp	r0, r3
10004ea6:	da11      	bge.n	10004ecc <tud_task_ext+0x20c>
10004ea8:	f04f 23e0 	mov.w	r3, #3758153728	@ 0xe000e000
10004eac:	f8d3 3df0 	ldr.w	r3, [r3, #3568]	@ 0xdf0
10004eb0:	07dc      	lsls	r4, r3, #31
10004eb2:	d500      	bpl.n	10004eb6 <tud_task_ext+0x1f6>
10004eb4:	be00      	bkpt	0x0000
10004eb6:	b00b      	add	sp, #44	@ 0x2c
10004eb8:	e8bd 8ff0 	ldmia.w	sp!, {r4, r5, r6, r7, r8, r9, sl, fp, pc}
10004ebc:	9b09      	ldr	r3, [sp, #36]	@ 0x24
10004ebe:	f89d 2021 	ldrb.w	r2, [sp, #33]	@ 0x21
10004ec2:	f89d 001c 	ldrb.w	r0, [sp, #28]
10004ec6:	f000 fc1d 	bl	10005704 <usbd_control_xfer_cb>
10004eca:	e709      	b.n	10004ce0 <tud_task_ext+0x20>
10004ecc:	1a9b      	subs	r3, r3, r2
10004ece:	4a2d      	ldr	r2, [pc, #180]	@ (10004f84 <tud_task_ext+0x2c4>)
10004ed0:	eb02 1343 	add.w	r3, r2, r3, lsl #5
10004ed4:	e758      	b.n	10004d88 <tud_task_ext+0xc8>
10004ed6:	f7ff fc19 	bl	1000470c <tud_descriptor_configuration_cb>
10004eda:	4602      	mov	r2, r0
10004edc:	2800      	cmp	r0, #0
10004ede:	f040 8182 	bne.w	100051e6 <tud_task_ext+0x526>
10004ee2:	f04f 23e0 	mov.w	r3, #3758153728	@ 0xe000e000
10004ee6:	f8d3 3df0 	ldr.w	r3, [r3, #3568]	@ 0xdf0
10004eea:	07de      	lsls	r6, r3, #31
10004eec:	d500      	bpl.n	10004ef0 <tud_task_ext+0x230>
10004eee:	be00      	bkpt	0x0000
10004ef0:	f89d 001c 	ldrb.w	r0, [sp, #28]
10004ef4:	2100      	movs	r1, #0
10004ef6:	f7ff fd99 	bl	10004a2c <dcd_edpt_stall>
10004efa:	2180      	movs	r1, #128	@ 0x80
10004efc:	f89d 001c 	ldrb.w	r0, [sp, #28]
10004f00:	f7ff fd94 	bl	10004a2c <dcd_edpt_stall>
10004f04:	e6ec      	b.n	10004ce0 <tud_task_ext+0x20>
10004f06:	4820      	ldr	r0, [pc, #128]	@ (10004f88 <tud_task_ext+0x2c8>)
10004f08:	f000 fbe8 	bl	100056dc <usbd_control_set_complete_callback>
10004f0c:	2101      	movs	r1, #1
10004f0e:	4640      	mov	r0, r8
10004f10:	aa08      	add	r2, sp, #32
10004f12:	f7ff f9bb 	bl	1000428c <tud_vendor_control_xfer_cb>
10004f16:	2800      	cmp	r0, #0
10004f18:	f47f aee2 	bne.w	10004ce0 <tud_task_ext+0x20>
10004f1c:	e7e8      	b.n	10004ef0 <tud_task_ext+0x230>
10004f1e:	f89d 1024 	ldrb.w	r1, [sp, #36]	@ 0x24
10004f22:	f011 0f70 	tst.w	r1, #112	@ 0x70
10004f26:	d1dc      	bne.n	10004ee2 <tud_task_ext+0x222>
10004f28:	f001 067f 	and.w	r6, r1, #127	@ 0x7f
10004f2c:	eb07 0046 	add.w	r0, r7, r6, lsl #1
10004f30:	4b16      	ldr	r3, [pc, #88]	@ (10004f8c <tud_task_ext+0x2cc>)
10004f32:	eb00 10d1 	add.w	r0, r0, r1, lsr #7
10004f36:	781b      	ldrb	r3, [r3, #0]
10004f38:	7d00      	ldrb	r0, [r0, #20]
10004f3a:	0076      	lsls	r6, r6, #1
10004f3c:	9601      	str	r6, [sp, #4]
10004f3e:	4298      	cmp	r0, r3
10004f40:	ea4f 16d1 	mov.w	r6, r1, lsr #7
10004f44:	9600      	str	r6, [sp, #0]
10004f46:	d359      	bcc.n	10004ffc <tud_task_ext+0x33c>
10004f48:	1c5e      	adds	r6, r3, #1
10004f4a:	4286      	cmp	r6, r0
10004f4c:	f2c0 8166 	blt.w	1000521c <tud_task_ext+0x55c>
10004f50:	1ac0      	subs	r0, r0, r3
10004f52:	4b0c      	ldr	r3, [pc, #48]	@ (10004f84 <tud_task_ext+0x2c4>)
10004f54:	eb03 1640 	add.w	r6, r3, r0, lsl #5
10004f58:	2a00      	cmp	r2, #0
10004f5a:	f000 8163 	beq.w	10005224 <tud_task_ext+0x564>
10004f5e:	6970      	ldr	r0, [r6, #20]
10004f60:	f000 fbbc 	bl	100056dc <usbd_control_set_complete_callback>
10004f64:	2101      	movs	r1, #1
10004f66:	4640      	mov	r0, r8
10004f68:	6973      	ldr	r3, [r6, #20]
10004f6a:	aa08      	add	r2, sp, #32
10004f6c:	4798      	blx	r3
10004f6e:	2800      	cmp	r0, #0
10004f70:	f47f aeb6 	bne.w	10004ce0 <tud_task_ext+0x20>
10004f74:	e7bc      	b.n	10004ef0 <tud_task_ext+0x230>
10004f76:	bf00      	nop
10004f78:	20001ab4 	.word	0x20001ab4
10004f7c:	20001a5c 	.word	0x20001a5c
10004f80:	2000188c 	.word	0x2000188c
10004f84:	1000cc74 	.word	0x1000cc74
10004f88:	1000428d 	.word	0x1000428d
10004f8c:	200023b1 	.word	0x200023b1
10004f90:	20000ec4 	.word	0x20000ec4
10004f94:	200023b3 	.word	0x200023b3
10004f98:	f89d 3024 	ldrb.w	r3, [sp, #36]	@ 0x24
10004f9c:	2b0f      	cmp	r3, #15
10004f9e:	d8a7      	bhi.n	10004ef0 <tud_task_ext+0x230>
10004fa0:	4aae      	ldr	r2, [pc, #696]	@ (1000525c <tud_task_ext+0x59c>)
10004fa2:	443b      	add	r3, r7
10004fa4:	791b      	ldrb	r3, [r3, #4]
10004fa6:	7812      	ldrb	r2, [r2, #0]
10004fa8:	4293      	cmp	r3, r2
10004faa:	d332      	bcc.n	10005012 <tud_task_ext+0x352>
10004fac:	1c51      	adds	r1, r2, #1
10004fae:	4299      	cmp	r1, r3
10004fb0:	db9e      	blt.n	10004ef0 <tud_task_ext+0x230>
10004fb2:	4eab      	ldr	r6, [pc, #684]	@ (10005260 <tud_task_ext+0x5a0>)
10004fb4:	1a9b      	subs	r3, r3, r2
10004fb6:	eb06 1643 	add.w	r6, r6, r3, lsl #5
10004fba:	6970      	ldr	r0, [r6, #20]
10004fbc:	f000 fb8e 	bl	100056dc <usbd_control_set_complete_callback>
10004fc0:	2101      	movs	r1, #1
10004fc2:	4640      	mov	r0, r8
10004fc4:	6973      	ldr	r3, [r6, #20]
10004fc6:	aa08      	add	r2, sp, #32
10004fc8:	4798      	blx	r3
10004fca:	2800      	cmp	r0, #0
10004fcc:	f47f ae88 	bne.w	10004ce0 <tud_task_ext+0x20>
10004fd0:	f89d 3020 	ldrb.w	r3, [sp, #32]
10004fd4:	f013 0660 	ands.w	r6, r3, #96	@ 0x60
10004fd8:	d18a      	bne.n	10004ef0 <tud_task_ext+0x230>
10004fda:	f89d 3021 	ldrb.w	r3, [sp, #33]	@ 0x21
10004fde:	3b0a      	subs	r3, #10
10004fe0:	2b01      	cmp	r3, #1
10004fe2:	d885      	bhi.n	10004ef0 <tud_task_ext+0x230>
10004fe4:	f000 fb7a 	bl	100056dc <usbd_control_set_complete_callback>
10004fe8:	f89d 3021 	ldrb.w	r3, [sp, #33]	@ 0x21
10004fec:	2b0a      	cmp	r3, #10
10004fee:	f000 81f2 	beq.w	100053d6 <tud_task_ext+0x716>
10004ff2:	4640      	mov	r0, r8
10004ff4:	a908      	add	r1, sp, #32
10004ff6:	f000 fb19 	bl	1000562c <tud_control_status>
10004ffa:	e671      	b.n	10004ce0 <tud_task_ext+0x20>
10004ffc:	4b99      	ldr	r3, [pc, #612]	@ (10005264 <tud_task_ext+0x5a4>)
10004ffe:	681b      	ldr	r3, [r3, #0]
10005000:	eb03 1640 	add.w	r6, r3, r0, lsl #5
10005004:	2a00      	cmp	r2, #0
10005006:	f000 810d 	beq.w	10005224 <tud_task_ext+0x564>
1000500a:	2e00      	cmp	r6, #0
1000500c:	f43f af70 	beq.w	10004ef0 <tud_task_ext+0x230>
10005010:	e7a5      	b.n	10004f5e <tud_task_ext+0x29e>
10005012:	4a94      	ldr	r2, [pc, #592]	@ (10005264 <tud_task_ext+0x5a4>)
10005014:	6816      	ldr	r6, [r2, #0]
10005016:	eb16 1643 	adds.w	r6, r6, r3, lsl #5
1000501a:	d1ce      	bne.n	10004fba <tud_task_ext+0x2fa>
1000501c:	e768      	b.n	10004ef0 <tud_task_ext+0x230>
1000501e:	787b      	ldrb	r3, [r7, #1]
10005020:	f89d 6022 	ldrb.w	r6, [sp, #34]	@ 0x22
10005024:	429e      	cmp	r6, r3
10005026:	f000 814f 	beq.w	100052c8 <tud_task_ext+0x608>
1000502a:	787b      	ldrb	r3, [r7, #1]
1000502c:	2b00      	cmp	r3, #0
1000502e:	f040 81be 	bne.w	100053ae <tud_task_ext+0x6ee>
10005032:	707e      	strb	r6, [r7, #1]
10005034:	2e00      	cmp	r6, #0
10005036:	f000 8145 	beq.w	100052c4 <tud_task_ext+0x604>
1000503a:	1e70      	subs	r0, r6, #1
1000503c:	b2c0      	uxtb	r0, r0
1000503e:	f7ff fb65 	bl	1000470c <tud_descriptor_configuration_cb>
10005042:	4603      	mov	r3, r0
10005044:	2800      	cmp	r0, #0
10005046:	f000 815f 	beq.w	10005308 <tud_task_ext+0x648>
1000504a:	7842      	ldrb	r2, [r0, #1]
1000504c:	2a02      	cmp	r2, #2
1000504e:	f040 815b 	bne.w	10005308 <tud_task_ext+0x648>
10005052:	79c1      	ldrb	r1, [r0, #7]
10005054:	f103 0609 	add.w	r6, r3, #9
10005058:	f3c1 1240 	ubfx	r2, r1, #5, #1
1000505c:	0112      	lsls	r2, r2, #4
1000505e:	f3c1 1180 	ubfx	r1, r1, #6, #1
10005062:	ea42 1241 	orr.w	r2, r2, r1, lsl #5
10005066:	4631      	mov	r1, r6
10005068:	7838      	ldrb	r0, [r7, #0]
1000506a:	f020 0030 	bic.w	r0, r0, #48	@ 0x30
1000506e:	4302      	orrs	r2, r0
10005070:	703a      	strb	r2, [r7, #0]
10005072:	885a      	ldrh	r2, [r3, #2]
10005074:	f8cd 800c 	str.w	r8, [sp, #12]
10005078:	189a      	adds	r2, r3, r2
1000507a:	9201      	str	r2, [sp, #4]
1000507c:	9b01      	ldr	r3, [sp, #4]
1000507e:	428b      	cmp	r3, r1
10005080:	f240 81a4 	bls.w	100053cc <tud_task_ext+0x70c>
10005084:	784a      	ldrb	r2, [r1, #1]
10005086:	2a0b      	cmp	r2, #11
10005088:	f000 81af 	beq.w	100053ea <tud_task_ext+0x72a>
1000508c:	2301      	movs	r3, #1
1000508e:	2a04      	cmp	r2, #4
10005090:	f040 813a 	bne.w	10005308 <tud_task_ext+0x648>
10005094:	2600      	movs	r6, #0
10005096:	9a01      	ldr	r2, [sp, #4]
10005098:	9600      	str	r6, [sp, #0]
1000509a:	1a52      	subs	r2, r2, r1
1000509c:	b292      	uxth	r2, r2
1000509e:	9202      	str	r2, [sp, #8]
100050a0:	4a6e      	ldr	r2, [pc, #440]	@ (1000525c <tud_task_ext+0x59c>)
100050a2:	9304      	str	r3, [sp, #16]
100050a4:	7812      	ldrb	r2, [r2, #0]
100050a6:	e01d      	b.n	100050e4 <tud_task_ext+0x424>
100050a8:	4b6e      	ldr	r3, [pc, #440]	@ (10005264 <tud_task_ext+0x5a4>)
100050aa:	681b      	ldr	r3, [r3, #0]
100050ac:	eb13 1846 	adds.w	r8, r3, r6, lsl #5
100050b0:	f000 812a 	beq.w	10005308 <tud_task_ext+0x648>
100050b4:	9a02      	ldr	r2, [sp, #8]
100050b6:	f8d8 3010 	ldr.w	r3, [r8, #16]
100050ba:	9803      	ldr	r0, [sp, #12]
100050bc:	9105      	str	r1, [sp, #20]
100050be:	4798      	blx	r3
100050c0:	2808      	cmp	r0, #8
100050c2:	4602      	mov	r2, r0
100050c4:	9905      	ldr	r1, [sp, #20]
100050c6:	f106 0301 	add.w	r3, r6, #1
100050ca:	d903      	bls.n	100050d4 <tud_task_ext+0x414>
100050cc:	9802      	ldr	r0, [sp, #8]
100050ce:	4290      	cmp	r0, r2
100050d0:	f080 80ff 	bcs.w	100052d2 <tud_task_ext+0x612>
100050d4:	b2de      	uxtb	r6, r3
100050d6:	4b61      	ldr	r3, [pc, #388]	@ (1000525c <tud_task_ext+0x59c>)
100050d8:	9600      	str	r6, [sp, #0]
100050da:	781a      	ldrb	r2, [r3, #0]
100050dc:	1c53      	adds	r3, r2, #1
100050de:	429e      	cmp	r6, r3
100050e0:	f300 8112 	bgt.w	10005308 <tud_task_ext+0x648>
100050e4:	9b00      	ldr	r3, [sp, #0]
100050e6:	4296      	cmp	r6, r2
100050e8:	eba3 0202 	sub.w	r2, r3, r2
100050ec:	d3dc      	bcc.n	100050a8 <tud_task_ext+0x3e8>
100050ee:	4b5c      	ldr	r3, [pc, #368]	@ (10005260 <tud_task_ext+0x5a0>)
100050f0:	eb03 1842 	add.w	r8, r3, r2, lsl #5
100050f4:	e7de      	b.n	100050b4 <tud_task_ext+0x3f4>
100050f6:	787b      	ldrb	r3, [r7, #1]
100050f8:	4640      	mov	r0, r8
100050fa:	f88d 301a 	strb.w	r3, [sp, #26]
100050fe:	f10d 021a 	add.w	r2, sp, #26
10005102:	2301      	movs	r3, #1
10005104:	a908      	add	r1, sp, #32
10005106:	f000 faab 	bl	10005660 <tud_control_xfer>
1000510a:	e5e9      	b.n	10004ce0 <tud_task_ext+0x20>
1000510c:	f8bd 0022 	ldrh.w	r0, [sp, #34]	@ 0x22
10005110:	0a03      	lsrs	r3, r0, #8
10005112:	3b01      	subs	r3, #1
10005114:	0a02      	lsrs	r2, r0, #8
10005116:	b2c0      	uxtb	r0, r0
10005118:	2b0e      	cmp	r3, #14
1000511a:	f63f aee9 	bhi.w	10004ef0 <tud_task_ext+0x230>
1000511e:	a101      	add	r1, pc, #4	@ (adr r1, 10005124 <tud_task_ext+0x464>)
10005120:	f851 f023 	ldr.w	pc, [r1, r3, lsl #2]
10005124:	10005339 	.word	0x10005339
10005128:	100051d5 	.word	0x100051d5
1000512c:	10005375 	.word	0x10005375
10005130:	10004ef1 	.word	0x10004ef1
10005134:	10004ef1 	.word	0x10004ef1
10005138:	10005357 	.word	0x10005357
1000513c:	100051d5 	.word	0x100051d5
10005140:	10004ef1 	.word	0x10004ef1
10005144:	10004ef1 	.word	0x10004ef1
10005148:	10004ef1 	.word	0x10004ef1
1000514c:	10004ef1 	.word	0x10004ef1
10005150:	10004ef1 	.word	0x10004ef1
10005154:	10004ef1 	.word	0x10004ef1
10005158:	10004ef1 	.word	0x10004ef1
1000515c:	1000532b 	.word	0x1000532b
10005160:	a808      	add	r0, sp, #32
10005162:	f000 fac1 	bl	100056e8 <usbd_control_set_request>
10005166:	4640      	mov	r0, r8
10005168:	f89d 1022 	ldrb.w	r1, [sp, #34]	@ 0x22
1000516c:	f7ff fbdc 	bl	10004928 <dcd_set_address>
10005170:	783b      	ldrb	r3, [r7, #0]
10005172:	f043 0302 	orr.w	r3, r3, #2
10005176:	703b      	strb	r3, [r7, #0]
10005178:	e5b2      	b.n	10004ce0 <tud_task_ext+0x20>
1000517a:	f8bd 3022 	ldrh.w	r3, [sp, #34]	@ 0x22
1000517e:	2b01      	cmp	r3, #1
10005180:	f47f aeb6 	bne.w	10004ef0 <tud_task_ext+0x230>
10005184:	783b      	ldrb	r3, [r7, #0]
10005186:	4640      	mov	r0, r8
10005188:	f023 0308 	bic.w	r3, r3, #8
1000518c:	a908      	add	r1, sp, #32
1000518e:	703b      	strb	r3, [r7, #0]
10005190:	f000 fa4c 	bl	1000562c <tud_control_status>
10005194:	e5a4      	b.n	10004ce0 <tud_task_ext+0x20>
10005196:	4640      	mov	r0, r8
10005198:	783b      	ldrb	r3, [r7, #0]
1000519a:	089a      	lsrs	r2, r3, #2
1000519c:	f002 0202 	and.w	r2, r2, #2
100051a0:	f3c3 1340 	ubfx	r3, r3, #5, #1
100051a4:	4313      	orrs	r3, r2
100051a6:	f8ad 301a 	strh.w	r3, [sp, #26]
100051aa:	f10d 021a 	add.w	r2, sp, #26
100051ae:	2302      	movs	r3, #2
100051b0:	a908      	add	r1, sp, #32
100051b2:	f000 fa55 	bl	10005660 <tud_control_xfer>
100051b6:	e593      	b.n	10004ce0 <tud_task_ext+0x20>
100051b8:	f8bd 3022 	ldrh.w	r3, [sp, #34]	@ 0x22
100051bc:	2b01      	cmp	r3, #1
100051be:	f47f ae97 	bne.w	10004ef0 <tud_task_ext+0x230>
100051c2:	783b      	ldrb	r3, [r7, #0]
100051c4:	4640      	mov	r0, r8
100051c6:	f043 0308 	orr.w	r3, r3, #8
100051ca:	a908      	add	r1, sp, #32
100051cc:	703b      	strb	r3, [r7, #0]
100051ce:	f000 fa2d 	bl	1000562c <tud_control_status>
100051d2:	e585      	b.n	10004ce0 <tud_task_ext+0x20>
100051d4:	2a02      	cmp	r2, #2
100051d6:	f43f ae7e 	beq.w	10004ed6 <tud_task_ext+0x216>
100051da:	f7ff fcdd 	bl	10004b98 <tud_descriptor_other_speed_configuration_cb>
100051de:	4602      	mov	r2, r0
100051e0:	2800      	cmp	r0, #0
100051e2:	f43f ae85 	beq.w	10004ef0 <tud_task_ext+0x230>
100051e6:	4640      	mov	r0, r8
100051e8:	8853      	ldrh	r3, [r2, #2]
100051ea:	a908      	add	r1, sp, #32
100051ec:	f000 fa38 	bl	10005660 <tud_control_xfer>
100051f0:	2800      	cmp	r0, #0
100051f2:	f47f ad75 	bne.w	10004ce0 <tud_task_ext+0x20>
100051f6:	e67b      	b.n	10004ef0 <tud_task_ext+0x230>
100051f8:	f89d 3024 	ldrb.w	r3, [sp, #36]	@ 0x24
100051fc:	2b0f      	cmp	r3, #15
100051fe:	f63f ae77 	bhi.w	10004ef0 <tud_task_ext+0x230>
10005202:	4a16      	ldr	r2, [pc, #88]	@ (1000525c <tud_task_ext+0x59c>)
10005204:	443b      	add	r3, r7
10005206:	791b      	ldrb	r3, [r3, #4]
10005208:	7812      	ldrb	r2, [r2, #0]
1000520a:	4293      	cmp	r3, r2
1000520c:	d21d      	bcs.n	1000524a <tud_task_ext+0x58a>
1000520e:	4a15      	ldr	r2, [pc, #84]	@ (10005264 <tud_task_ext+0x5a4>)
10005210:	6816      	ldr	r6, [r2, #0]
10005212:	eb16 1643 	adds.w	r6, r6, r3, lsl #5
10005216:	f47f aea2 	bne.w	10004f5e <tud_task_ext+0x29e>
1000521a:	e669      	b.n	10004ef0 <tud_task_ext+0x230>
1000521c:	2a00      	cmp	r2, #0
1000521e:	f47f ae67 	bne.w	10004ef0 <tud_task_ext+0x230>
10005222:	2600      	movs	r6, #0
10005224:	f89d 2021 	ldrb.w	r2, [sp, #33]	@ 0x21
10005228:	f002 03fd 	and.w	r3, r2, #253	@ 0xfd
1000522c:	2b01      	cmp	r3, #1
1000522e:	d01b      	beq.n	10005268 <tud_task_ext+0x5a8>
10005230:	2a00      	cmp	r2, #0
10005232:	f47f ae56 	bne.w	10004ee2 <tud_task_ext+0x222>
10005236:	9b01      	ldr	r3, [sp, #4]
10005238:	9a00      	ldr	r2, [sp, #0]
1000523a:	443b      	add	r3, r7
1000523c:	4413      	add	r3, r2
1000523e:	f893 3034 	ldrb.w	r3, [r3, #52]	@ 0x34
10005242:	4640      	mov	r0, r8
10005244:	f3c3 0340 	ubfx	r3, r3, #1, #1
10005248:	e7ad      	b.n	100051a6 <tud_task_ext+0x4e6>
1000524a:	1c51      	adds	r1, r2, #1
1000524c:	4299      	cmp	r1, r3
1000524e:	f6ff ae4f 	blt.w	10004ef0 <tud_task_ext+0x230>
10005252:	4e03      	ldr	r6, [pc, #12]	@ (10005260 <tud_task_ext+0x5a0>)
10005254:	1a9b      	subs	r3, r3, r2
10005256:	eb06 1643 	add.w	r6, r6, r3, lsl #5
1000525a:	e680      	b.n	10004f5e <tud_task_ext+0x29e>
1000525c:	200023b1 	.word	0x200023b1
10005260:	1000cc74 	.word	0x1000cc74
10005264:	2000188c 	.word	0x2000188c
10005268:	f8bd 3022 	ldrh.w	r3, [sp, #34]	@ 0x22
1000526c:	b9b3      	cbnz	r3, 1000529c <tud_task_ext+0x5dc>
1000526e:	2a01      	cmp	r2, #1
10005270:	f899 0000 	ldrb.w	r0, [r9]
10005274:	f000 8086 	beq.w	10005384 <tud_task_ext+0x6c4>
10005278:	f7ff fbd8 	bl	10004a2c <dcd_edpt_stall>
1000527c:	9b01      	ldr	r3, [sp, #4]
1000527e:	9a00      	ldr	r2, [sp, #0]
10005280:	443b      	add	r3, r7
10005282:	4413      	add	r3, r2
10005284:	f893 2034 	ldrb.w	r2, [r3, #52]	@ 0x34
10005288:	f042 0202 	orr.w	r2, r2, #2
1000528c:	f883 2034 	strb.w	r2, [r3, #52]	@ 0x34
10005290:	f893 2034 	ldrb.w	r2, [r3, #52]	@ 0x34
10005294:	f042 0201 	orr.w	r2, r2, #1
10005298:	f883 2034 	strb.w	r2, [r3, #52]	@ 0x34
1000529c:	2e00      	cmp	r6, #0
1000529e:	f43f ad1f 	beq.w	10004ce0 <tud_task_ext+0x20>
100052a2:	6970      	ldr	r0, [r6, #20]
100052a4:	f000 fa1a 	bl	100056dc <usbd_control_set_complete_callback>
100052a8:	6973      	ldr	r3, [r6, #20]
100052aa:	2101      	movs	r1, #1
100052ac:	aa08      	add	r2, sp, #32
100052ae:	4640      	mov	r0, r8
100052b0:	4798      	blx	r3
100052b2:	2000      	movs	r0, #0
100052b4:	f000 fa12 	bl	100056dc <usbd_control_set_complete_callback>
100052b8:	f897 3035 	ldrb.w	r3, [r7, #53]	@ 0x35
100052bc:	07df      	lsls	r7, r3, #31
100052be:	f53f ad0f 	bmi.w	10004ce0 <tud_task_ext+0x20>
100052c2:	e696      	b.n	10004ff2 <tud_task_ext+0x332>
100052c4:	f7ff fc6c 	bl	10004ba0 <tud_umount_cb>
100052c8:	4640      	mov	r0, r8
100052ca:	a908      	add	r1, sp, #32
100052cc:	f000 f9ae 	bl	1000562c <tud_control_status>
100052d0:	e506      	b.n	10004ce0 <tud_task_ext+0x20>
100052d2:	9b04      	ldr	r3, [sp, #16]
100052d4:	2b01      	cmp	r3, #1
100052d6:	f000 809e 	beq.w	10005416 <tud_task_ext+0x756>
100052da:	2b00      	cmp	r3, #0
100052dc:	f000 808a 	beq.w	100053f4 <tud_task_ext+0x734>
100052e0:	f04f 0c00 	mov.w	ip, #0
100052e4:	e005      	b.n	100052f2 <tud_task_ext+0x632>
100052e6:	7106      	strb	r6, [r0, #4]
100052e8:	fa5f f08c 	uxtb.w	r0, ip
100052ec:	4298      	cmp	r0, r3
100052ee:	f080 8081 	bcs.w	100053f4 <tud_task_ext+0x734>
100052f2:	7888      	ldrb	r0, [r1, #2]
100052f4:	4460      	add	r0, ip
100052f6:	fa57 f080 	uxtab	r0, r7, r0
100052fa:	f890 e004 	ldrb.w	lr, [r0, #4]
100052fe:	f10c 0c01 	add.w	ip, ip, #1
10005302:	f1be 0fff 	cmp.w	lr, #255	@ 0xff
10005306:	d0ee      	beq.n	100052e6 <tud_task_ext+0x626>
10005308:	f04f 23e0 	mov.w	r3, #3758153728	@ 0xe000e000
1000530c:	f8d3 3df0 	ldr.w	r3, [r3, #3568]	@ 0xdf0
10005310:	07da      	lsls	r2, r3, #31
10005312:	d500      	bpl.n	10005316 <tud_task_ext+0x656>
10005314:	be00      	bkpt	0x0000
10005316:	f04f 23e0 	mov.w	r3, #3758153728	@ 0xe000e000
1000531a:	f8d3 3df0 	ldr.w	r3, [r3, #3568]	@ 0xdf0
1000531e:	07db      	lsls	r3, r3, #31
10005320:	d500      	bpl.n	10005324 <tud_task_ext+0x664>
10005322:	be00      	bkpt	0x0000
10005324:	2300      	movs	r3, #0
10005326:	707b      	strb	r3, [r7, #1]
10005328:	e5e2      	b.n	10004ef0 <tud_task_ext+0x230>
1000532a:	f7fe ffab 	bl	10004284 <tud_descriptor_bos_cb>
1000532e:	4602      	mov	r2, r0
10005330:	2800      	cmp	r0, #0
10005332:	f47f af58 	bne.w	100051e6 <tud_task_ext+0x526>
10005336:	e5db      	b.n	10004ef0 <tud_task_ext+0x230>
10005338:	f7ff f9e4 	bl	10004704 <tud_descriptor_device_cb>
1000533c:	4602      	mov	r2, r0
1000533e:	2800      	cmp	r0, #0
10005340:	f43f adcf 	beq.w	10004ee2 <tud_task_ext+0x222>
10005344:	4640      	mov	r0, r8
10005346:	2312      	movs	r3, #18
10005348:	a908      	add	r1, sp, #32
1000534a:	f000 f989 	bl	10005660 <tud_control_xfer>
1000534e:	2800      	cmp	r0, #0
10005350:	f47f acc6 	bne.w	10004ce0 <tud_task_ext+0x20>
10005354:	e5cc      	b.n	10004ef0 <tud_task_ext+0x230>
10005356:	f7ff fc1d 	bl	10004b94 <tud_descriptor_device_qualifier_cb>
1000535a:	4602      	mov	r2, r0
1000535c:	2800      	cmp	r0, #0
1000535e:	f43f adc7 	beq.w	10004ef0 <tud_task_ext+0x230>
10005362:	4640      	mov	r0, r8
10005364:	7813      	ldrb	r3, [r2, #0]
10005366:	a908      	add	r1, sp, #32
10005368:	f000 f97a 	bl	10005660 <tud_control_xfer>
1000536c:	2800      	cmp	r0, #0
1000536e:	f47f acb7 	bne.w	10004ce0 <tud_task_ext+0x20>
10005372:	e5bd      	b.n	10004ef0 <tud_task_ext+0x230>
10005374:	f8bd 1024 	ldrh.w	r1, [sp, #36]	@ 0x24
10005378:	f7ff f9cc 	bl	10004714 <tud_descriptor_string_cb>
1000537c:	4602      	mov	r2, r0
1000537e:	2800      	cmp	r0, #0
10005380:	d1ef      	bne.n	10005362 <tud_task_ext+0x6a2>
10005382:	e5b5      	b.n	10004ef0 <tud_task_ext+0x230>
10005384:	9302      	str	r3, [sp, #8]
10005386:	f7ff fb69 	bl	10004a5c <dcd_edpt_clear_stall>
1000538a:	9a01      	ldr	r2, [sp, #4]
1000538c:	9b00      	ldr	r3, [sp, #0]
1000538e:	443a      	add	r2, r7
10005390:	441a      	add	r2, r3
10005392:	f892 1034 	ldrb.w	r1, [r2, #52]	@ 0x34
10005396:	9b02      	ldr	r3, [sp, #8]
10005398:	f363 0141 	bfi	r1, r3, #1, #1
1000539c:	f882 1034 	strb.w	r1, [r2, #52]	@ 0x34
100053a0:	f892 1034 	ldrb.w	r1, [r2, #52]	@ 0x34
100053a4:	f363 0100 	bfi	r1, r3, #0, #1
100053a8:	f882 1034 	strb.w	r1, [r2, #52]	@ 0x34
100053ac:	e776      	b.n	1000529c <tud_task_ext+0x5dc>
100053ae:	2100      	movs	r1, #0
100053b0:	4640      	mov	r0, r8
100053b2:	f7ff fac1 	bl	10004938 <dcd_sof_enable>
100053b6:	4640      	mov	r0, r8
100053b8:	f7ff fb22 	bl	10004a00 <dcd_edpt_close_all>
100053bc:	78bb      	ldrb	r3, [r7, #2]
100053be:	4640      	mov	r0, r8
100053c0:	9300      	str	r3, [sp, #0]
100053c2:	f7ff fb9d 	bl	10004b00 <configuration_reset>
100053c6:	9b00      	ldr	r3, [sp, #0]
100053c8:	70bb      	strb	r3, [r7, #2]
100053ca:	e632      	b.n	10005032 <tud_task_ext+0x372>
100053cc:	f8dd 800c 	ldr.w	r8, [sp, #12]
100053d0:	f7ff fbe4 	bl	10004b9c <tud_mount_cb>
100053d4:	e778      	b.n	100052c8 <tud_task_ext+0x608>
100053d6:	4640      	mov	r0, r8
100053d8:	2301      	movs	r3, #1
100053da:	a908      	add	r1, sp, #32
100053dc:	f10d 021a 	add.w	r2, sp, #26
100053e0:	f88d 601a 	strb.w	r6, [sp, #26]
100053e4:	f000 f93c 	bl	10005660 <tud_control_xfer>
100053e8:	e47a      	b.n	10004ce0 <tud_task_ext+0x20>
100053ea:	780a      	ldrb	r2, [r1, #0]
100053ec:	78cb      	ldrb	r3, [r1, #3]
100053ee:	4411      	add	r1, r2
100053f0:	784a      	ldrb	r2, [r1, #1]
100053f2:	e64c      	b.n	1000508e <tud_task_ext+0x3ce>
100053f4:	4633      	mov	r3, r6
100053f6:	4810      	ldr	r0, [pc, #64]	@ (10005438 <tud_task_ext+0x778>)
100053f8:	9204      	str	r2, [sp, #16]
100053fa:	9102      	str	r1, [sp, #8]
100053fc:	f000 fe1c 	bl	10006038 <tu_edpt_bind_driver>
10005400:	4b0e      	ldr	r3, [pc, #56]	@ (1000543c <tud_task_ext+0x77c>)
10005402:	9a04      	ldr	r2, [sp, #16]
10005404:	9902      	ldr	r1, [sp, #8]
10005406:	781b      	ldrb	r3, [r3, #0]
10005408:	4411      	add	r1, r2
1000540a:	9a00      	ldr	r2, [sp, #0]
1000540c:	3301      	adds	r3, #1
1000540e:	4293      	cmp	r3, r2
10005410:	f6bf ae34 	bge.w	1000507c <tud_task_ext+0x3bc>
10005414:	e778      	b.n	10005308 <tud_task_ext+0x648>
10005416:	f8d8 c010 	ldr.w	ip, [r8, #16]
1000541a:	4809      	ldr	r0, [pc, #36]	@ (10005440 <tud_task_ext+0x780>)
1000541c:	4584      	cmp	ip, r0
1000541e:	bf08      	it	eq
10005420:	2302      	moveq	r3, #2
10005422:	e75d      	b.n	100052e0 <tud_task_ext+0x620>
10005424:	f04f 23e0 	mov.w	r3, #3758153728	@ 0xe000e000
10005428:	f8d3 3df0 	ldr.w	r3, [r3, #3568]	@ 0xdf0
1000542c:	07db      	lsls	r3, r3, #31
1000542e:	f57f ac57 	bpl.w	10004ce0 <tud_task_ext+0x20>
10005432:	be00      	bkpt	0x0000
10005434:	e454      	b.n	10004ce0 <tud_task_ext+0x20>
10005436:	bf00      	nop
10005438:	20001a70 	.word	0x20001a70
1000543c:	200023b1 	.word	0x200023b1
10005440:	10005a61 	.word	0x10005a61

10005444 <usbd_edpt_open>:
10005444:	b538      	push	{r3, r4, r5, lr}
10005446:	788b      	ldrb	r3, [r1, #2]
10005448:	f013 0f70 	tst.w	r3, #112	@ 0x70
1000544c:	d008      	beq.n	10005460 <usbd_edpt_open+0x1c>
1000544e:	f04f 23e0 	mov.w	r3, #3758153728	@ 0xe000e000
10005452:	f8d3 3df0 	ldr.w	r3, [r3, #3568]	@ 0xdf0
10005456:	07db      	lsls	r3, r3, #31
10005458:	d500      	bpl.n	1000545c <usbd_edpt_open+0x18>
1000545a:	be00      	bkpt	0x0000
1000545c:	2000      	movs	r0, #0
1000545e:	bd38      	pop	{r3, r4, r5, pc}
10005460:	4a07      	ldr	r2, [pc, #28]	@ (10005480 <usbd_edpt_open+0x3c>)
10005462:	4b08      	ldr	r3, [pc, #32]	@ (10005484 <usbd_edpt_open+0x40>)
10005464:	460c      	mov	r4, r1
10005466:	4608      	mov	r0, r1
10005468:	7891      	ldrb	r1, [r2, #2]
1000546a:	781d      	ldrb	r5, [r3, #0]
1000546c:	f000 fdb4 	bl	10005fd8 <tu_edpt_validate>
10005470:	2800      	cmp	r0, #0
10005472:	d0ec      	beq.n	1000544e <usbd_edpt_open+0xa>
10005474:	4621      	mov	r1, r4
10005476:	4628      	mov	r0, r5
10005478:	e8bd 4038 	ldmia.w	sp!, {r3, r4, r5, lr}
1000547c:	f7ff ba78 	b.w	10004970 <dcd_edpt_open>
10005480:	20001a5c 	.word	0x20001a5c
10005484:	20000ec4 	.word	0x20000ec4

10005488 <usbd_open_edpt_pair>:
10005488:	e92d 47f0 	stmdb	sp!, {r4, r5, r6, r7, r8, r9, sl, lr}
1000548c:	e9dd 8908 	ldrd	r8, r9, [sp, #32]
10005490:	b35a      	cbz	r2, 100054ea <usbd_open_edpt_pair+0x62>
10005492:	4607      	mov	r7, r0
10005494:	460c      	mov	r4, r1
10005496:	461e      	mov	r6, r3
10005498:	4615      	mov	r5, r2
1000549a:	f04f 0a00 	mov.w	sl, #0
1000549e:	e016      	b.n	100054ce <usbd_open_edpt_pair+0x46>
100054a0:	78e1      	ldrb	r1, [r4, #3]
100054a2:	f001 0103 	and.w	r1, r1, #3
100054a6:	42b1      	cmp	r1, r6
100054a8:	d114      	bne.n	100054d4 <usbd_open_edpt_pair+0x4c>
100054aa:	4621      	mov	r1, r4
100054ac:	4638      	mov	r0, r7
100054ae:	f7ff ffc9 	bl	10005444 <usbd_edpt_open>
100054b2:	b178      	cbz	r0, 100054d4 <usbd_open_edpt_pair+0x4c>
100054b4:	78a3      	ldrb	r3, [r4, #2]
100054b6:	f10a 0a01 	add.w	sl, sl, #1
100054ba:	09da      	lsrs	r2, r3, #7
100054bc:	bf14      	ite	ne
100054be:	f889 3000 	strbne.w	r3, [r9]
100054c2:	f888 3000 	strbeq.w	r3, [r8]
100054c6:	7823      	ldrb	r3, [r4, #0]
100054c8:	45aa      	cmp	sl, r5
100054ca:	441c      	add	r4, r3
100054cc:	d00d      	beq.n	100054ea <usbd_open_edpt_pair+0x62>
100054ce:	7863      	ldrb	r3, [r4, #1]
100054d0:	2b05      	cmp	r3, #5
100054d2:	d0e5      	beq.n	100054a0 <usbd_open_edpt_pair+0x18>
100054d4:	f04f 23e0 	mov.w	r3, #3758153728	@ 0xe000e000
100054d8:	f8d3 3df0 	ldr.w	r3, [r3, #3568]	@ 0xdf0
100054dc:	07db      	lsls	r3, r3, #31
100054de:	d402      	bmi.n	100054e6 <usbd_open_edpt_pair+0x5e>
100054e0:	2000      	movs	r0, #0
100054e2:	e8bd 87f0 	ldmia.w	sp!, {r4, r5, r6, r7, r8, r9, sl, pc}
100054e6:	be00      	bkpt	0x0000
100054e8:	e7fa      	b.n	100054e0 <usbd_open_edpt_pair+0x58>
100054ea:	2001      	movs	r0, #1
100054ec:	e8bd 87f0 	ldmia.w	sp!, {r4, r5, r6, r7, r8, r9, sl, pc}

100054f0 <usbd_edpt_claim>:
100054f0:	460b      	mov	r3, r1
100054f2:	4a06      	ldr	r2, [pc, #24]	@ (1000550c <usbd_edpt_claim+0x1c>)
100054f4:	4806      	ldr	r0, [pc, #24]	@ (10005510 <usbd_edpt_claim+0x20>)
100054f6:	6811      	ldr	r1, [r2, #0]
100054f8:	09da      	lsrs	r2, r3, #7
100054fa:	3234      	adds	r2, #52	@ 0x34
100054fc:	f003 037f 	and.w	r3, r3, #127	@ 0x7f
10005500:	eb02 0343 	add.w	r3, r2, r3, lsl #1
10005504:	4418      	add	r0, r3
10005506:	f000 bd21 	b.w	10005f4c <tu_edpt_claim>
1000550a:	bf00      	nop
1000550c:	20001ab0 	.word	0x20001ab0
10005510:	20001a5c 	.word	0x20001a5c

10005514 <usbd_edpt_release>:
10005514:	460b      	mov	r3, r1
10005516:	4a06      	ldr	r2, [pc, #24]	@ (10005530 <usbd_edpt_release+0x1c>)
10005518:	4806      	ldr	r0, [pc, #24]	@ (10005534 <usbd_edpt_release+0x20>)
1000551a:	6811      	ldr	r1, [r2, #0]
1000551c:	09da      	lsrs	r2, r3, #7
1000551e:	3234      	adds	r2, #52	@ 0x34
10005520:	f003 037f 	and.w	r3, r3, #127	@ 0x7f
10005524:	eb02 0343 	add.w	r3, r2, r3, lsl #1
10005528:	4418      	add	r0, r3
1000552a:	f000 bd39 	b.w	10005fa0 <tu_edpt_release>
1000552e:	bf00      	nop
10005530:	20001ab0 	.word	0x20001ab0
10005534:	20001a5c 	.word	0x20001a5c

10005538 <usbd_edpt_xfer>:
10005538:	b510      	push	{r4, lr}
1000553a:	4819      	ldr	r0, [pc, #100]	@ (100055a0 <usbd_edpt_xfer+0x68>)
1000553c:	f001 0c7f 	and.w	ip, r1, #127	@ 0x7f
10005540:	eb00 004c 	add.w	r0, r0, ip, lsl #1
10005544:	eb00 10d1 	add.w	r0, r0, r1, lsr #7
10005548:	f890 c034 	ldrb.w	ip, [r0, #52]	@ 0x34
1000554c:	f01c 0f01 	tst.w	ip, #1
10005550:	d008      	beq.n	10005564 <usbd_edpt_xfer+0x2c>
10005552:	f04f 23e0 	mov.w	r3, #3758153728	@ 0xe000e000
10005556:	f8d3 3df0 	ldr.w	r3, [r3, #3568]	@ 0xdf0
1000555a:	07da      	lsls	r2, r3, #31
1000555c:	d500      	bpl.n	10005560 <usbd_edpt_xfer+0x28>
1000555e:	be00      	bkpt	0x0000
10005560:	2000      	movs	r0, #0
10005562:	bd10      	pop	{r4, pc}
10005564:	f100 0430 	add.w	r4, r0, #48	@ 0x30
10005568:	f894 c004 	ldrb.w	ip, [r4, #4]
1000556c:	480d      	ldr	r0, [pc, #52]	@ (100055a4 <usbd_edpt_xfer+0x6c>)
1000556e:	f04c 0c01 	orr.w	ip, ip, #1
10005572:	7800      	ldrb	r0, [r0, #0]
10005574:	f884 c004 	strb.w	ip, [r4, #4]
10005578:	f7ff fa44 	bl	10004a04 <dcd_edpt_xfer>
1000557c:	2800      	cmp	r0, #0
1000557e:	d1f0      	bne.n	10005562 <usbd_edpt_xfer+0x2a>
10005580:	f04f 21e0 	mov.w	r1, #3758153728	@ 0xe000e000
10005584:	7922      	ldrb	r2, [r4, #4]
10005586:	f360 0200 	bfi	r2, r0, #0, #1
1000558a:	7122      	strb	r2, [r4, #4]
1000558c:	7922      	ldrb	r2, [r4, #4]
1000558e:	f360 0282 	bfi	r2, r0, #2, #1
10005592:	7122      	strb	r2, [r4, #4]
10005594:	f8d1 3df0 	ldr.w	r3, [r1, #3568]	@ 0xdf0
10005598:	07db      	lsls	r3, r3, #31
1000559a:	d5e1      	bpl.n	10005560 <usbd_edpt_xfer+0x28>
1000559c:	be00      	bkpt	0x0000
1000559e:	e7df      	b.n	10005560 <usbd_edpt_xfer+0x28>
100055a0:	20001a5c 	.word	0x20001a5c
100055a4:	20000ec4 	.word	0x20000ec4

100055a8 <data_stage_xact>:
100055a8:	b510      	push	{r4, lr}
100055aa:	491e      	ldr	r1, [pc, #120]	@ (10005624 <data_stage_xact+0x7c>)
100055ac:	4604      	mov	r4, r0
100055ae:	f8b1 c00c 	ldrh.w	ip, [r1, #12]
100055b2:	89ca      	ldrh	r2, [r1, #14]
100055b4:	f991 e000 	ldrsb.w	lr, [r1]
100055b8:	ebac 0302 	sub.w	r3, ip, r2
100055bc:	b29b      	uxth	r3, r3
100055be:	2b40      	cmp	r3, #64	@ 0x40
100055c0:	bf28      	it	cs
100055c2:	2340      	movcs	r3, #64	@ 0x40
100055c4:	f1be 0f00 	cmp.w	lr, #0
100055c8:	b082      	sub	sp, #8
100055ca:	db0a      	blt.n	100055e2 <data_stage_xact+0x3a>
100055cc:	4594      	cmp	ip, r2
100055ce:	f04f 0100 	mov.w	r1, #0
100055d2:	d01f      	beq.n	10005614 <data_stage_xact+0x6c>
100055d4:	4620      	mov	r0, r4
100055d6:	4a14      	ldr	r2, [pc, #80]	@ (10005628 <data_stage_xact+0x80>)
100055d8:	b002      	add	sp, #8
100055da:	e8bd 4010 	ldmia.w	sp!, {r4, lr}
100055de:	f7ff bfab 	b.w	10005538 <usbd_edpt_xfer>
100055e2:	4594      	cmp	ip, r2
100055e4:	d00e      	beq.n	10005604 <data_stage_xact+0x5c>
100055e6:	461a      	mov	r2, r3
100055e8:	6889      	ldr	r1, [r1, #8]
100055ea:	480f      	ldr	r0, [pc, #60]	@ (10005628 <data_stage_xact+0x80>)
100055ec:	9301      	str	r3, [sp, #4]
100055ee:	f002 f8ff 	bl	100077f0 <memcpy>
100055f2:	2180      	movs	r1, #128	@ 0x80
100055f4:	4620      	mov	r0, r4
100055f6:	4a0c      	ldr	r2, [pc, #48]	@ (10005628 <data_stage_xact+0x80>)
100055f8:	9b01      	ldr	r3, [sp, #4]
100055fa:	b002      	add	sp, #8
100055fc:	e8bd 4010 	ldmia.w	sp!, {r4, lr}
10005600:	f7ff bf9a 	b.w	10005538 <usbd_edpt_xfer>
10005604:	2180      	movs	r1, #128	@ 0x80
10005606:	2200      	movs	r2, #0
10005608:	4620      	mov	r0, r4
1000560a:	b002      	add	sp, #8
1000560c:	e8bd 4010 	ldmia.w	sp!, {r4, lr}
10005610:	f7ff bf92 	b.w	10005538 <usbd_edpt_xfer>
10005614:	460a      	mov	r2, r1
10005616:	4620      	mov	r0, r4
10005618:	b002      	add	sp, #8
1000561a:	e8bd 4010 	ldmia.w	sp!, {r4, lr}
1000561e:	f7ff bf8b 	b.w	10005538 <usbd_edpt_xfer>
10005622:	bf00      	nop
10005624:	20001a1c 	.word	0x20001a1c
10005628:	200019dc 	.word	0x200019dc

1000562c <tud_control_status>:
1000562c:	b530      	push	{r4, r5, lr}
1000562e:	4c0b      	ldr	r4, [pc, #44]	@ (1000565c <tud_control_status+0x30>)
10005630:	2300      	movs	r3, #0
10005632:	46a6      	mov	lr, r4
10005634:	468c      	mov	ip, r1
10005636:	4605      	mov	r5, r0
10005638:	6808      	ldr	r0, [r1, #0]
1000563a:	6849      	ldr	r1, [r1, #4]
1000563c:	e9c4 3302 	strd	r3, r3, [r4, #8]
10005640:	e8ae 0003 	stmia.w	lr!, {r0, r1}
10005644:	f89c 1000 	ldrb.w	r1, [ip]
10005648:	4628      	mov	r0, r5
1000564a:	e8bd 4030 	ldmia.w	sp!, {r4, r5, lr}
1000564e:	43c9      	mvns	r1, r1
10005650:	461a      	mov	r2, r3
10005652:	f001 0180 	and.w	r1, r1, #128	@ 0x80
10005656:	f7ff bf6f 	b.w	10005538 <usbd_edpt_xfer>
1000565a:	bf00      	nop
1000565c:	20001a1c 	.word	0x20001a1c

10005660 <tud_control_xfer>:
10005660:	b570      	push	{r4, r5, r6, lr}
10005662:	4c18      	ldr	r4, [pc, #96]	@ (100056c4 <tud_control_xfer+0x64>)
10005664:	2500      	movs	r5, #0
10005666:	46a6      	mov	lr, r4
10005668:	468c      	mov	ip, r1
1000566a:	4606      	mov	r6, r0
1000566c:	6808      	ldr	r0, [r1, #0]
1000566e:	6849      	ldr	r1, [r1, #4]
10005670:	81e5      	strh	r5, [r4, #14]
10005672:	e8ae 0003 	stmia.w	lr!, {r0, r1}
10005676:	60a2      	str	r2, [r4, #8]
10005678:	f8bc 1006 	ldrh.w	r1, [ip, #6]
1000567c:	4299      	cmp	r1, r3
1000567e:	bf28      	it	cs
10005680:	4619      	movcs	r1, r3
10005682:	81a1      	strh	r1, [r4, #12]
10005684:	f8bc 3006 	ldrh.w	r3, [ip, #6]
10005688:	b13b      	cbz	r3, 1000569a <tud_control_xfer+0x3a>
1000568a:	b101      	cbz	r1, 1000568e <tud_control_xfer+0x2e>
1000568c:	b182      	cbz	r2, 100056b0 <tud_control_xfer+0x50>
1000568e:	4630      	mov	r0, r6
10005690:	f7ff ff8a 	bl	100055a8 <data_stage_xact>
10005694:	b160      	cbz	r0, 100056b0 <tud_control_xfer+0x50>
10005696:	2001      	movs	r0, #1
10005698:	bd70      	pop	{r4, r5, r6, pc}
1000569a:	f89c 1000 	ldrb.w	r1, [ip]
1000569e:	461a      	mov	r2, r3
100056a0:	43c9      	mvns	r1, r1
100056a2:	4630      	mov	r0, r6
100056a4:	f001 0180 	and.w	r1, r1, #128	@ 0x80
100056a8:	f7ff ff46 	bl	10005538 <usbd_edpt_xfer>
100056ac:	2800      	cmp	r0, #0
100056ae:	d1f2      	bne.n	10005696 <tud_control_xfer+0x36>
100056b0:	f04f 23e0 	mov.w	r3, #3758153728	@ 0xe000e000
100056b4:	f8d3 3df0 	ldr.w	r3, [r3, #3568]	@ 0xdf0
100056b8:	07db      	lsls	r3, r3, #31
100056ba:	d500      	bpl.n	100056be <tud_control_xfer+0x5e>
100056bc:	be00      	bkpt	0x0000
100056be:	2000      	movs	r0, #0
100056c0:	bd70      	pop	{r4, r5, r6, pc}
100056c2:	bf00      	nop
100056c4:	20001a1c 	.word	0x20001a1c

100056c8 <usbd_control_reset>:
100056c8:	2200      	movs	r2, #0
100056ca:	4b03      	ldr	r3, [pc, #12]	@ (100056d8 <usbd_control_reset+0x10>)
100056cc:	e9c3 2200 	strd	r2, r2, [r3]
100056d0:	e9c3 2202 	strd	r2, r2, [r3, #8]
100056d4:	611a      	str	r2, [r3, #16]
100056d6:	4770      	bx	lr
100056d8:	20001a1c 	.word	0x20001a1c

100056dc <usbd_control_set_complete_callback>:
100056dc:	4b01      	ldr	r3, [pc, #4]	@ (100056e4 <usbd_control_set_complete_callback+0x8>)
100056de:	6118      	str	r0, [r3, #16]
100056e0:	4770      	bx	lr
100056e2:	bf00      	nop
100056e4:	20001a1c 	.word	0x20001a1c

100056e8 <usbd_control_set_request>:
100056e8:	b430      	push	{r4, r5}
100056ea:	4602      	mov	r2, r0
100056ec:	4c04      	ldr	r4, [pc, #16]	@ (10005700 <usbd_control_set_request+0x18>)
100056ee:	2500      	movs	r5, #0
100056f0:	4623      	mov	r3, r4
100056f2:	6800      	ldr	r0, [r0, #0]
100056f4:	6851      	ldr	r1, [r2, #4]
100056f6:	e9c4 5502 	strd	r5, r5, [r4, #8]
100056fa:	c303      	stmia	r3!, {r0, r1}
100056fc:	bc30      	pop	{r4, r5}
100056fe:	4770      	bx	lr
10005700:	20001a1c 	.word	0x20001a1c

10005704 <usbd_control_xfer_cb>:
10005704:	b570      	push	{r4, r5, r6, lr}
10005706:	4c2b      	ldr	r4, [pc, #172]	@ (100057b4 <usbd_control_xfer_cb+0xb0>)
10005708:	09c9      	lsrs	r1, r1, #7
1000570a:	7822      	ldrb	r2, [r4, #0]
1000570c:	4606      	mov	r6, r0
1000570e:	ebb1 1fd2 	cmp.w	r1, r2, lsr #7
10005712:	461d      	mov	r5, r3
10005714:	d014      	beq.n	10005740 <usbd_control_xfer_cb+0x3c>
10005716:	b143      	cbz	r3, 1000572a <usbd_control_xfer_cb+0x26>
10005718:	f04f 23e0 	mov.w	r3, #3758153728	@ 0xe000e000
1000571c:	f8d3 3df0 	ldr.w	r3, [r3, #3568]	@ 0xdf0
10005720:	07db      	lsls	r3, r3, #31
10005722:	d500      	bpl.n	10005726 <usbd_control_xfer_cb+0x22>
10005724:	be00      	bkpt	0x0000
10005726:	2000      	movs	r0, #0
10005728:	bd70      	pop	{r4, r5, r6, pc}
1000572a:	4621      	mov	r1, r4
1000572c:	f7ff f912 	bl	10004954 <dcd_edpt0_status_complete>
10005730:	6923      	ldr	r3, [r4, #16]
10005732:	b11b      	cbz	r3, 1000573c <usbd_control_xfer_cb+0x38>
10005734:	4622      	mov	r2, r4
10005736:	2103      	movs	r1, #3
10005738:	4630      	mov	r0, r6
1000573a:	4798      	blx	r3
1000573c:	2001      	movs	r0, #1
1000573e:	bd70      	pop	{r4, r5, r6, pc}
10005740:	f994 3000 	ldrsb.w	r3, [r4]
10005744:	2b00      	cmp	r3, #0
10005746:	db06      	blt.n	10005756 <usbd_control_xfer_cb+0x52>
10005748:	68a0      	ldr	r0, [r4, #8]
1000574a:	2800      	cmp	r0, #0
1000574c:	d0eb      	beq.n	10005726 <usbd_control_xfer_cb+0x22>
1000574e:	462a      	mov	r2, r5
10005750:	4919      	ldr	r1, [pc, #100]	@ (100057b8 <usbd_control_xfer_cb+0xb4>)
10005752:	f002 f84d 	bl	100077f0 <memcpy>
10005756:	68a2      	ldr	r2, [r4, #8]
10005758:	89e3      	ldrh	r3, [r4, #14]
1000575a:	442a      	add	r2, r5
1000575c:	442b      	add	r3, r5
1000575e:	60a2      	str	r2, [r4, #8]
10005760:	88e2      	ldrh	r2, [r4, #6]
10005762:	b29b      	uxth	r3, r3
10005764:	429a      	cmp	r2, r3
10005766:	81e3      	strh	r3, [r4, #14]
10005768:	d007      	beq.n	1000577a <usbd_control_xfer_cb+0x76>
1000576a:	2d3f      	cmp	r5, #63	@ 0x3f
1000576c:	d905      	bls.n	1000577a <usbd_control_xfer_cb+0x76>
1000576e:	4630      	mov	r0, r6
10005770:	f7ff ff1a 	bl	100055a8 <data_stage_xact>
10005774:	2800      	cmp	r0, #0
10005776:	d1e1      	bne.n	1000573c <usbd_control_xfer_cb+0x38>
10005778:	e7ce      	b.n	10005718 <usbd_control_xfer_cb+0x14>
1000577a:	6923      	ldr	r3, [r4, #16]
1000577c:	b123      	cbz	r3, 10005788 <usbd_control_xfer_cb+0x84>
1000577e:	2102      	movs	r1, #2
10005780:	4630      	mov	r0, r6
10005782:	4a0c      	ldr	r2, [pc, #48]	@ (100057b4 <usbd_control_xfer_cb+0xb0>)
10005784:	4798      	blx	r3
10005786:	b160      	cbz	r0, 100057a2 <usbd_control_xfer_cb+0x9e>
10005788:	7821      	ldrb	r1, [r4, #0]
1000578a:	2300      	movs	r3, #0
1000578c:	43c9      	mvns	r1, r1
1000578e:	4630      	mov	r0, r6
10005790:	461a      	mov	r2, r3
10005792:	f001 0180 	and.w	r1, r1, #128	@ 0x80
10005796:	f7ff fecf 	bl	10005538 <usbd_edpt_xfer>
1000579a:	2800      	cmp	r0, #0
1000579c:	d0bc      	beq.n	10005718 <usbd_control_xfer_cb+0x14>
1000579e:	2001      	movs	r0, #1
100057a0:	e7cd      	b.n	1000573e <usbd_control_xfer_cb+0x3a>
100057a2:	4601      	mov	r1, r0
100057a4:	4630      	mov	r0, r6
100057a6:	f7ff f941 	bl	10004a2c <dcd_edpt_stall>
100057aa:	2180      	movs	r1, #128	@ 0x80
100057ac:	4630      	mov	r0, r6
100057ae:	f7ff f93d 	bl	10004a2c <dcd_edpt_stall>
100057b2:	e7c3      	b.n	1000573c <usbd_control_xfer_cb+0x38>
100057b4:	20001a1c 	.word	0x20001a1c
100057b8:	200019dc 	.word	0x200019dc

100057bc <_prep_out_transaction.isra.0>:
100057bc:	e92d 41f0 	stmdb	sp!, {r4, r5, r6, r7, r8, lr}
100057c0:	4604      	mov	r4, r0
100057c2:	f7ff f9f3 	bl	10004bac <tud_mounted>
100057c6:	b908      	cbnz	r0, 100057cc <_prep_out_transaction.isra.0+0x10>
100057c8:	e8bd 81f0 	ldmia.w	sp!, {r4, r5, r6, r7, r8, pc}
100057cc:	f7ff f9f6 	bl	10004bbc <tud_suspended>
100057d0:	4605      	mov	r5, r0
100057d2:	2800      	cmp	r0, #0
100057d4:	d1f8      	bne.n	100057c8 <_prep_out_transaction.isra.0+0xc>
100057d6:	23c8      	movs	r3, #200	@ 0xc8
100057d8:	fb04 f303 	mul.w	r3, r4, r3
100057dc:	4e12      	ldr	r6, [pc, #72]	@ (10005828 <_prep_out_transaction.isra.0+0x6c>)
100057de:	18f7      	adds	r7, r6, r3
100057e0:	78f9      	ldrb	r1, [r7, #3]
100057e2:	2900      	cmp	r1, #0
100057e4:	d0f0      	beq.n	100057c8 <_prep_out_transaction.isra.0+0xc>
100057e6:	3310      	adds	r3, #16
100057e8:	441e      	add	r6, r3
100057ea:	4630      	mov	r0, r6
100057ec:	f000 fe0c 	bl	10006408 <tu_fifo_remaining>
100057f0:	283f      	cmp	r0, #63	@ 0x3f
100057f2:	d9e9      	bls.n	100057c8 <_prep_out_transaction.isra.0+0xc>
100057f4:	4628      	mov	r0, r5
100057f6:	78f9      	ldrb	r1, [r7, #3]
100057f8:	f7ff fe7a 	bl	100054f0 <usbd_edpt_claim>
100057fc:	2800      	cmp	r0, #0
100057fe:	d0e3      	beq.n	100057c8 <_prep_out_transaction.isra.0+0xc>
10005800:	4630      	mov	r0, r6
10005802:	f000 fe01 	bl	10006408 <tu_fifo_remaining>
10005806:	283f      	cmp	r0, #63	@ 0x3f
10005808:	78f9      	ldrb	r1, [r7, #3]
1000580a:	d908      	bls.n	1000581e <_prep_out_transaction.isra.0+0x62>
1000580c:	4a07      	ldr	r2, [pc, #28]	@ (1000582c <_prep_out_transaction.isra.0+0x70>)
1000580e:	4628      	mov	r0, r5
10005810:	eb02 12c4 	add.w	r2, r2, r4, lsl #7
10005814:	2340      	movs	r3, #64	@ 0x40
10005816:	e8bd 41f0 	ldmia.w	sp!, {r4, r5, r6, r7, r8, lr}
1000581a:	f7ff be8d 	b.w	10005538 <usbd_edpt_xfer>
1000581e:	4628      	mov	r0, r5
10005820:	e8bd 41f0 	ldmia.w	sp!, {r4, r5, r6, r7, r8, lr}
10005824:	f7ff be76 	b.w	10005514 <usbd_edpt_release>
10005828:	20001914 	.word	0x20001914
1000582c:	20001890 	.word	0x20001890

10005830 <tud_cdc_n_connected>:
10005830:	b510      	push	{r4, lr}
10005832:	4604      	mov	r4, r0
10005834:	f7ff f9ba 	bl	10004bac <tud_mounted>
10005838:	b908      	cbnz	r0, 1000583e <tud_cdc_n_connected+0xe>
1000583a:	2000      	movs	r0, #0
1000583c:	bd10      	pop	{r4, pc}
1000583e:	f7ff f9bd 	bl	10004bbc <tud_suspended>
10005842:	2800      	cmp	r0, #0
10005844:	d1f9      	bne.n	1000583a <tud_cdc_n_connected+0xa>
10005846:	22c8      	movs	r2, #200	@ 0xc8
10005848:	4b03      	ldr	r3, [pc, #12]	@ (10005858 <tud_cdc_n_connected+0x28>)
1000584a:	fb02 3304 	mla	r3, r2, r4, r3
1000584e:	7918      	ldrb	r0, [r3, #4]
10005850:	f000 0001 	and.w	r0, r0, #1
10005854:	bd10      	pop	{r4, pc}
10005856:	bf00      	nop
10005858:	20001914 	.word	0x20001914

1000585c <tud_cdc_n_available>:
1000585c:	22c8      	movs	r2, #200	@ 0xc8
1000585e:	b508      	push	{r3, lr}
10005860:	4b02      	ldr	r3, [pc, #8]	@ (1000586c <tud_cdc_n_available+0x10>)
10005862:	fb02 3000 	mla	r0, r2, r0, r3
10005866:	f000 fdb5 	bl	100063d4 <tu_fifo_count>
1000586a:	bd08      	pop	{r3, pc}
1000586c:	20001924 	.word	0x20001924

10005870 <tud_cdc_n_read>:
10005870:	b510      	push	{r4, lr}
10005872:	f64f 7eff 	movw	lr, #65535	@ 0xffff
10005876:	4572      	cmp	r2, lr
10005878:	f04f 0cc8 	mov.w	ip, #200	@ 0xc8
1000587c:	bf28      	it	cs
1000587e:	4672      	movcs	r2, lr
10005880:	4b06      	ldr	r3, [pc, #24]	@ (1000589c <tud_cdc_n_read+0x2c>)
10005882:	4604      	mov	r4, r0
10005884:	b292      	uxth	r2, r2
10005886:	fb0c 3000 	mla	r0, ip, r0, r3
1000588a:	f000 fdf7 	bl	1000647c <tu_fifo_read_n>
1000588e:	4603      	mov	r3, r0
10005890:	4620      	mov	r0, r4
10005892:	461c      	mov	r4, r3
10005894:	f7ff ff92 	bl	100057bc <_prep_out_transaction.isra.0>
10005898:	4620      	mov	r0, r4
1000589a:	bd10      	pop	{r4, pc}
1000589c:	20001924 	.word	0x20001924

100058a0 <tud_cdc_n_write_flush>:
100058a0:	e92d 41f0 	stmdb	sp!, {r4, r5, r6, r7, r8, lr}
100058a4:	4604      	mov	r4, r0
100058a6:	f7ff f981 	bl	10004bac <tud_mounted>
100058aa:	b910      	cbnz	r0, 100058b2 <tud_cdc_n_write_flush+0x12>
100058ac:	2000      	movs	r0, #0
100058ae:	e8bd 81f0 	ldmia.w	sp!, {r4, r5, r6, r7, r8, pc}
100058b2:	f7ff f983 	bl	10004bbc <tud_suspended>
100058b6:	4605      	mov	r5, r0
100058b8:	2800      	cmp	r0, #0
100058ba:	d1f7      	bne.n	100058ac <tud_cdc_n_write_flush+0xc>
100058bc:	26c8      	movs	r6, #200	@ 0xc8
100058be:	fb04 f606 	mul.w	r6, r4, r6
100058c2:	f8df 8064 	ldr.w	r8, [pc, #100]	@ 10005928 <tud_cdc_n_write_flush+0x88>
100058c6:	f106 0724 	add.w	r7, r6, #36	@ 0x24
100058ca:	4447      	add	r7, r8
100058cc:	4638      	mov	r0, r7
100058ce:	f000 fd81 	bl	100063d4 <tu_fifo_count>
100058d2:	2800      	cmp	r0, #0
100058d4:	d0ea      	beq.n	100058ac <tud_cdc_n_write_flush+0xc>
100058d6:	44b0      	add	r8, r6
100058d8:	4628      	mov	r0, r5
100058da:	f898 1002 	ldrb.w	r1, [r8, #2]
100058de:	f7ff fe07 	bl	100054f0 <usbd_edpt_claim>
100058e2:	2800      	cmp	r0, #0
100058e4:	d0e2      	beq.n	100058ac <tud_cdc_n_write_flush+0xc>
100058e6:	4e0f      	ldr	r6, [pc, #60]	@ (10005924 <tud_cdc_n_write_flush+0x84>)
100058e8:	4638      	mov	r0, r7
100058ea:	eb06 16c4 	add.w	r6, r6, r4, lsl #7
100058ee:	4631      	mov	r1, r6
100058f0:	2240      	movs	r2, #64	@ 0x40
100058f2:	f000 fdc3 	bl	1000647c <tu_fifo_read_n>
100058f6:	f898 1002 	ldrb.w	r1, [r8, #2]
100058fa:	4604      	mov	r4, r0
100058fc:	b168      	cbz	r0, 1000591a <tud_cdc_n_write_flush+0x7a>
100058fe:	4603      	mov	r3, r0
10005900:	4632      	mov	r2, r6
10005902:	4628      	mov	r0, r5
10005904:	f7ff fe18 	bl	10005538 <usbd_edpt_xfer>
10005908:	b950      	cbnz	r0, 10005920 <tud_cdc_n_write_flush+0x80>
1000590a:	f04f 23e0 	mov.w	r3, #3758153728	@ 0xe000e000
1000590e:	f8d3 3df0 	ldr.w	r3, [r3, #3568]	@ 0xdf0
10005912:	07db      	lsls	r3, r3, #31
10005914:	d5ca      	bpl.n	100058ac <tud_cdc_n_write_flush+0xc>
10005916:	be00      	bkpt	0x0000
10005918:	e7c8      	b.n	100058ac <tud_cdc_n_write_flush+0xc>
1000591a:	f7ff fdfb 	bl	10005514 <usbd_edpt_release>
1000591e:	e7c5      	b.n	100058ac <tud_cdc_n_write_flush+0xc>
10005920:	4620      	mov	r0, r4
10005922:	e7c4      	b.n	100058ae <tud_cdc_n_write_flush+0xe>
10005924:	200018d0 	.word	0x200018d0
10005928:	20001914 	.word	0x20001914

1000592c <tud_cdc_n_write>:
1000592c:	b538      	push	{r3, r4, r5, lr}
1000592e:	f64f 75ff 	movw	r5, #65535	@ 0xffff
10005932:	23c8      	movs	r3, #200	@ 0xc8
10005934:	42aa      	cmp	r2, r5
10005936:	bf28      	it	cs
10005938:	462a      	movcs	r2, r5
1000593a:	4c0b      	ldr	r4, [pc, #44]	@ (10005968 <tud_cdc_n_write+0x3c>)
1000593c:	b292      	uxth	r2, r2
1000593e:	fb03 4400 	mla	r4, r3, r0, r4
10005942:	4605      	mov	r5, r0
10005944:	4620      	mov	r0, r4
10005946:	f000 fe19 	bl	1000657c <tu_fifo_write_n>
1000594a:	4603      	mov	r3, r0
1000594c:	4620      	mov	r0, r4
1000594e:	461c      	mov	r4, r3
10005950:	f000 fd40 	bl	100063d4 <tu_fifo_count>
10005954:	283f      	cmp	r0, #63	@ 0x3f
10005956:	d801      	bhi.n	1000595c <tud_cdc_n_write+0x30>
10005958:	4620      	mov	r0, r4
1000595a:	bd38      	pop	{r3, r4, r5, pc}
1000595c:	4628      	mov	r0, r5
1000595e:	f7ff ff9f 	bl	100058a0 <tud_cdc_n_write_flush>
10005962:	4620      	mov	r0, r4
10005964:	bd38      	pop	{r3, r4, r5, pc}
10005966:	bf00      	nop
10005968:	20001938 	.word	0x20001938

1000596c <tud_cdc_n_write_available>:
1000596c:	22c8      	movs	r2, #200	@ 0xc8
1000596e:	b508      	push	{r3, lr}
10005970:	4b02      	ldr	r3, [pc, #8]	@ (1000597c <tud_cdc_n_write_available+0x10>)
10005972:	fb02 3000 	mla	r0, r2, r0, r3
10005976:	f000 fd47 	bl	10006408 <tu_fifo_remaining>
1000597a:	bd08      	pop	{r3, pc}
1000597c:	20001938 	.word	0x20001938

10005980 <cdcd_init>:
10005980:	b5f0      	push	{r4, r5, r6, r7, lr}
10005982:	2400      	movs	r4, #0
10005984:	b083      	sub	sp, #12
10005986:	22c8      	movs	r2, #200	@ 0xc8
10005988:	2100      	movs	r1, #0
1000598a:	4817      	ldr	r0, [pc, #92]	@ (100059e8 <cdcd_init+0x68>)
1000598c:	f001 fda0 	bl	100074d0 <memset>
10005990:	23ff      	movs	r3, #255	@ 0xff
10005992:	f44f 31e1 	mov.w	r1, #115200	@ 0x1c200
10005996:	2208      	movs	r2, #8
10005998:	4814      	ldr	r0, [pc, #80]	@ (100059ec <cdcd_init+0x6c>)
1000599a:	7004      	strb	r4, [r0, #0]
1000599c:	4812      	ldr	r0, [pc, #72]	@ (100059e8 <cdcd_init+0x68>)
1000599e:	9400      	str	r4, [sp, #0]
100059a0:	4607      	mov	r7, r0
100059a2:	7143      	strb	r3, [r0, #5]
100059a4:	6081      	str	r1, [r0, #8]
100059a6:	7382      	strb	r2, [r0, #14]
100059a8:	f100 0138 	add.w	r1, r0, #56	@ 0x38
100059ac:	2301      	movs	r3, #1
100059ae:	2240      	movs	r2, #64	@ 0x40
100059b0:	3010      	adds	r0, #16
100059b2:	f000 fcdf 	bl	10006374 <tu_fifo_config>
100059b6:	2301      	movs	r3, #1
100059b8:	2240      	movs	r2, #64	@ 0x40
100059ba:	f107 0178 	add.w	r1, r7, #120	@ 0x78
100059be:	9300      	str	r3, [sp, #0]
100059c0:	f107 06b8 	add.w	r6, r7, #184	@ 0xb8
100059c4:	f107 0024 	add.w	r0, r7, #36	@ 0x24
100059c8:	f000 fcd4 	bl	10006374 <tu_fifo_config>
100059cc:	f107 05c0 	add.w	r5, r7, #192	@ 0xc0
100059d0:	4630      	mov	r0, r6
100059d2:	f7fb fe15 	bl	10001600 <mutex_init>
100059d6:	4628      	mov	r0, r5
100059d8:	f7fb fe12 	bl	10001600 <mutex_init>
100059dc:	e9c7 4607 	strd	r4, r6, [r7, #28]
100059e0:	e9c7 540c 	strd	r5, r4, [r7, #48]	@ 0x30
100059e4:	b003      	add	sp, #12
100059e6:	bdf0      	pop	{r4, r5, r6, r7, pc}
100059e8:	20001914 	.word	0x20001914
100059ec:	20001910 	.word	0x20001910

100059f0 <cdcd_deinit>:
100059f0:	4a07      	ldr	r2, [pc, #28]	@ (10005a10 <cdcd_deinit+0x20>)
100059f2:	6a11      	ldr	r1, [r2, #32]
100059f4:	6b10      	ldr	r0, [r2, #48]	@ 0x30
100059f6:	b111      	cbz	r1, 100059fe <cdcd_deinit+0xe>
100059f8:	2300      	movs	r3, #0
100059fa:	2101      	movs	r1, #1
100059fc:	61d3      	str	r3, [r2, #28]
100059fe:	b110      	cbz	r0, 10005a06 <cdcd_deinit+0x16>
10005a00:	2300      	movs	r3, #0
10005a02:	e9c2 330c 	strd	r3, r3, [r2, #48]	@ 0x30
10005a06:	b109      	cbz	r1, 10005a0c <cdcd_deinit+0x1c>
10005a08:	2300      	movs	r3, #0
10005a0a:	6213      	str	r3, [r2, #32]
10005a0c:	2001      	movs	r0, #1
10005a0e:	4770      	bx	lr
10005a10:	20001914 	.word	0x20001914

10005a14 <cdcd_reset>:
10005a14:	2200      	movs	r2, #0
10005a16:	b510      	push	{r4, lr}
10005a18:	4c0e      	ldr	r4, [pc, #56]	@ (10005a54 <cdcd_reset+0x40>)
10005a1a:	480f      	ldr	r0, [pc, #60]	@ (10005a58 <cdcd_reset+0x44>)
10005a1c:	7823      	ldrb	r3, [r4, #0]
10005a1e:	6002      	str	r2, [r0, #0]
10005a20:	7102      	strb	r2, [r0, #4]
10005a22:	07da      	lsls	r2, r3, #31
10005a24:	d507      	bpl.n	10005a36 <cdcd_reset+0x22>
10005a26:	079b      	lsls	r3, r3, #30
10005a28:	d50b      	bpl.n	10005a42 <cdcd_reset+0x2e>
10005a2a:	e8bd 4010 	ldmia.w	sp!, {r4, lr}
10005a2e:	2101      	movs	r1, #1
10005a30:	480a      	ldr	r0, [pc, #40]	@ (10005a5c <cdcd_reset+0x48>)
10005a32:	f000 be71 	b.w	10006718 <tu_fifo_set_overwritable>
10005a36:	3010      	adds	r0, #16
10005a38:	f000 fe52 	bl	100066e0 <tu_fifo_clear>
10005a3c:	7823      	ldrb	r3, [r4, #0]
10005a3e:	079b      	lsls	r3, r3, #30
10005a40:	d4f3      	bmi.n	10005a2a <cdcd_reset+0x16>
10005a42:	4806      	ldr	r0, [pc, #24]	@ (10005a5c <cdcd_reset+0x48>)
10005a44:	f000 fe4c 	bl	100066e0 <tu_fifo_clear>
10005a48:	e8bd 4010 	ldmia.w	sp!, {r4, lr}
10005a4c:	2101      	movs	r1, #1
10005a4e:	4803      	ldr	r0, [pc, #12]	@ (10005a5c <cdcd_reset+0x48>)
10005a50:	f000 be62 	b.w	10006718 <tu_fifo_set_overwritable>
10005a54:	20001910 	.word	0x20001910
10005a58:	20001914 	.word	0x20001914
10005a5c:	20001938 	.word	0x20001938

10005a60 <cdcd_open>:
10005a60:	b5f0      	push	{r4, r5, r6, r7, lr}
10005a62:	794b      	ldrb	r3, [r1, #5]
10005a64:	b083      	sub	sp, #12
10005a66:	2b02      	cmp	r3, #2
10005a68:	d102      	bne.n	10005a70 <cdcd_open+0x10>
10005a6a:	798b      	ldrb	r3, [r1, #6]
10005a6c:	2b02      	cmp	r3, #2
10005a6e:	d003      	beq.n	10005a78 <cdcd_open+0x18>
10005a70:	2500      	movs	r5, #0
10005a72:	4628      	mov	r0, r5
10005a74:	b003      	add	sp, #12
10005a76:	bdf0      	pop	{r4, r5, r6, r7, pc}
10005a78:	4f25      	ldr	r7, [pc, #148]	@ (10005b10 <cdcd_open+0xb0>)
10005a7a:	78bb      	ldrb	r3, [r7, #2]
10005a7c:	b13b      	cbz	r3, 10005a8e <cdcd_open+0x2e>
10005a7e:	f04f 23e0 	mov.w	r3, #3758153728	@ 0xe000e000
10005a82:	f8d3 3df0 	ldr.w	r3, [r3, #3568]	@ 0xdf0
10005a86:	07db      	lsls	r3, r3, #31
10005a88:	d5f2      	bpl.n	10005a70 <cdcd_open+0x10>
10005a8a:	be00      	bkpt	0x0000
10005a8c:	e7f0      	b.n	10005a70 <cdcd_open+0x10>
10005a8e:	788b      	ldrb	r3, [r1, #2]
10005a90:	4606      	mov	r6, r0
10005a92:	703b      	strb	r3, [r7, #0]
10005a94:	780b      	ldrb	r3, [r1, #0]
10005a96:	2509      	movs	r5, #9
10005a98:	18cc      	adds	r4, r1, r3
10005a9a:	7861      	ldrb	r1, [r4, #1]
10005a9c:	2924      	cmp	r1, #36	@ 0x24
10005a9e:	d007      	beq.n	10005ab0 <cdcd_open+0x50>
10005aa0:	e014      	b.n	10005acc <cdcd_open+0x6c>
10005aa2:	7823      	ldrb	r3, [r4, #0]
10005aa4:	441c      	add	r4, r3
10005aa6:	7861      	ldrb	r1, [r4, #1]
10005aa8:	442b      	add	r3, r5
10005aaa:	2924      	cmp	r1, #36	@ 0x24
10005aac:	b29d      	uxth	r5, r3
10005aae:	d10d      	bne.n	10005acc <cdcd_open+0x6c>
10005ab0:	42aa      	cmp	r2, r5
10005ab2:	d2f6      	bcs.n	10005aa2 <cdcd_open+0x42>
10005ab4:	7863      	ldrb	r3, [r4, #1]
10005ab6:	2b04      	cmp	r3, #4
10005ab8:	d102      	bne.n	10005ac0 <cdcd_open+0x60>
10005aba:	7963      	ldrb	r3, [r4, #5]
10005abc:	2b0a      	cmp	r3, #10
10005abe:	d014      	beq.n	10005aea <cdcd_open+0x8a>
10005ac0:	2000      	movs	r0, #0
10005ac2:	f7ff fe7b 	bl	100057bc <_prep_out_transaction.isra.0>
10005ac6:	4628      	mov	r0, r5
10005ac8:	b003      	add	sp, #12
10005aca:	bdf0      	pop	{r4, r5, r6, r7, pc}
10005acc:	2905      	cmp	r1, #5
10005ace:	d1f1      	bne.n	10005ab4 <cdcd_open+0x54>
10005ad0:	4621      	mov	r1, r4
10005ad2:	4630      	mov	r0, r6
10005ad4:	f7ff fcb6 	bl	10005444 <usbd_edpt_open>
10005ad8:	2800      	cmp	r0, #0
10005ada:	d0d0      	beq.n	10005a7e <cdcd_open+0x1e>
10005adc:	78a3      	ldrb	r3, [r4, #2]
10005ade:	707b      	strb	r3, [r7, #1]
10005ae0:	7823      	ldrb	r3, [r4, #0]
10005ae2:	441d      	add	r5, r3
10005ae4:	b2ad      	uxth	r5, r5
10005ae6:	441c      	add	r4, r3
10005ae8:	e7e4      	b.n	10005ab4 <cdcd_open+0x54>
10005aea:	4b0a      	ldr	r3, [pc, #40]	@ (10005b14 <cdcd_open+0xb4>)
10005aec:	7827      	ldrb	r7, [r4, #0]
10005aee:	9301      	str	r3, [sp, #4]
10005af0:	3301      	adds	r3, #1
10005af2:	9300      	str	r3, [sp, #0]
10005af4:	2302      	movs	r3, #2
10005af6:	4630      	mov	r0, r6
10005af8:	461a      	mov	r2, r3
10005afa:	19e1      	adds	r1, r4, r7
10005afc:	f7ff fcc4 	bl	10005488 <usbd_open_edpt_pair>
10005b00:	2800      	cmp	r0, #0
10005b02:	d0bc      	beq.n	10005a7e <cdcd_open+0x1e>
10005b04:	350e      	adds	r5, #14
10005b06:	fa17 f585 	uxtah	r5, r7, r5
10005b0a:	b2ad      	uxth	r5, r5
10005b0c:	e7d8      	b.n	10005ac0 <cdcd_open+0x60>
10005b0e:	bf00      	nop
10005b10:	20001914 	.word	0x20001914
10005b14:	20001916 	.word	0x20001916

10005b18 <cdcd_control_xfer_cb>:
10005b18:	7813      	ldrb	r3, [r2, #0]
10005b1a:	f003 0360 	and.w	r3, r3, #96	@ 0x60
10005b1e:	2b20      	cmp	r3, #32
10005b20:	d108      	bne.n	10005b34 <cdcd_control_xfer_cb+0x1c>
10005b22:	b570      	push	{r4, r5, r6, lr}
10005b24:	4c26      	ldr	r4, [pc, #152]	@ (10005bc0 <cdcd_control_xfer_cb+0xa8>)
10005b26:	8893      	ldrh	r3, [r2, #4]
10005b28:	f894 c000 	ldrb.w	ip, [r4]
10005b2c:	459c      	cmp	ip, r3
10005b2e:	d003      	beq.n	10005b38 <cdcd_control_xfer_cb+0x20>
10005b30:	2000      	movs	r0, #0
10005b32:	bd70      	pop	{r4, r5, r6, pc}
10005b34:	2000      	movs	r0, #0
10005b36:	4770      	bx	lr
10005b38:	7853      	ldrb	r3, [r2, #1]
10005b3a:	3b20      	subs	r3, #32
10005b3c:	2b03      	cmp	r3, #3
10005b3e:	d8f7      	bhi.n	10005b30 <cdcd_control_xfer_cb+0x18>
10005b40:	e8df f003 	tbb	[pc, r3]
10005b44:	020d2327 	.word	0x020d2327
10005b48:	2901      	cmp	r1, #1
10005b4a:	d02e      	beq.n	10005baa <cdcd_control_xfer_cb+0x92>
10005b4c:	2903      	cmp	r1, #3
10005b4e:	d11e      	bne.n	10005b8e <cdcd_control_xfer_cb+0x76>
10005b50:	4b1c      	ldr	r3, [pc, #112]	@ (10005bc4 <cdcd_control_xfer_cb+0xac>)
10005b52:	b1e3      	cbz	r3, 10005b8e <cdcd_control_xfer_cb+0x76>
10005b54:	2000      	movs	r0, #0
10005b56:	8851      	ldrh	r1, [r2, #2]
10005b58:	f3af 8000 	nop.w
10005b5c:	e017      	b.n	10005b8e <cdcd_control_xfer_cb+0x76>
10005b5e:	2901      	cmp	r1, #1
10005b60:	d023      	beq.n	10005baa <cdcd_control_xfer_cb+0x92>
10005b62:	2903      	cmp	r1, #3
10005b64:	d113      	bne.n	10005b8e <cdcd_control_xfer_cb+0x76>
10005b66:	8855      	ldrh	r5, [r2, #2]
10005b68:	4817      	ldr	r0, [pc, #92]	@ (10005bc8 <cdcd_control_xfer_cb+0xb0>)
10005b6a:	f005 0601 	and.w	r6, r5, #1
10005b6e:	f086 0101 	eor.w	r1, r6, #1
10005b72:	7125      	strb	r5, [r4, #4]
10005b74:	f000 fdd0 	bl	10006718 <tu_fifo_set_overwritable>
10005b78:	4b14      	ldr	r3, [pc, #80]	@ (10005bcc <cdcd_control_xfer_cb+0xb4>)
10005b7a:	b143      	cbz	r3, 10005b8e <cdcd_control_xfer_cb+0x76>
10005b7c:	4631      	mov	r1, r6
10005b7e:	2000      	movs	r0, #0
10005b80:	f3c5 0240 	ubfx	r2, r5, #1, #1
10005b84:	f3af 8000 	nop.w
10005b88:	e001      	b.n	10005b8e <cdcd_control_xfer_cb+0x76>
10005b8a:	2901      	cmp	r1, #1
10005b8c:	d011      	beq.n	10005bb2 <cdcd_control_xfer_cb+0x9a>
10005b8e:	2001      	movs	r0, #1
10005b90:	bd70      	pop	{r4, r5, r6, pc}
10005b92:	2901      	cmp	r1, #1
10005b94:	d00d      	beq.n	10005bb2 <cdcd_control_xfer_cb+0x9a>
10005b96:	2903      	cmp	r1, #3
10005b98:	d1f9      	bne.n	10005b8e <cdcd_control_xfer_cb+0x76>
10005b9a:	4b0d      	ldr	r3, [pc, #52]	@ (10005bd0 <cdcd_control_xfer_cb+0xb8>)
10005b9c:	2b00      	cmp	r3, #0
10005b9e:	d0f6      	beq.n	10005b8e <cdcd_control_xfer_cb+0x76>
10005ba0:	2000      	movs	r0, #0
10005ba2:	490c      	ldr	r1, [pc, #48]	@ (10005bd4 <cdcd_control_xfer_cb+0xbc>)
10005ba4:	f7fe fb8e 	bl	100042c4 <tud_cdc_line_coding_cb>
10005ba8:	e7f1      	b.n	10005b8e <cdcd_control_xfer_cb+0x76>
10005baa:	4611      	mov	r1, r2
10005bac:	f7ff fd3e 	bl	1000562c <tud_control_status>
10005bb0:	e7ed      	b.n	10005b8e <cdcd_control_xfer_cb+0x76>
10005bb2:	4611      	mov	r1, r2
10005bb4:	2307      	movs	r3, #7
10005bb6:	4a07      	ldr	r2, [pc, #28]	@ (10005bd4 <cdcd_control_xfer_cb+0xbc>)
10005bb8:	f7ff fd52 	bl	10005660 <tud_control_xfer>
10005bbc:	e7e7      	b.n	10005b8e <cdcd_control_xfer_cb+0x76>
10005bbe:	bf00      	nop
10005bc0:	20001914 	.word	0x20001914
10005bc4:	00000000 	.word	0x00000000
10005bc8:	20001938 	.word	0x20001938
10005bcc:	00000000 	.word	0x00000000
10005bd0:	100042c5 	.word	0x100042c5
10005bd4:	2000191c 	.word	0x2000191c

10005bd8 <cdcd_xfer_cb>:
10005bd8:	e92d 43f8 	stmdb	sp!, {r3, r4, r5, r6, r7, r8, r9, lr}
10005bdc:	4e35      	ldr	r6, [pc, #212]	@ (10005cb4 <cdcd_xfer_cb+0xdc>)
10005bde:	460c      	mov	r4, r1
10005be0:	78f2      	ldrb	r2, [r6, #3]
10005be2:	4607      	mov	r7, r0
10005be4:	428a      	cmp	r2, r1
10005be6:	461d      	mov	r5, r3
10005be8:	d03d      	beq.n	10005c66 <cdcd_xfer_cb+0x8e>
10005bea:	78b3      	ldrb	r3, [r6, #2]
10005bec:	428b      	cmp	r3, r1
10005bee:	d012      	beq.n	10005c16 <cdcd_xfer_cb+0x3e>
10005bf0:	f04f 23e0 	mov.w	r3, #3758153728	@ 0xe000e000
10005bf4:	f8d3 3df0 	ldr.w	r3, [r3, #3568]	@ 0xdf0
10005bf8:	07db      	lsls	r3, r3, #31
10005bfa:	d432      	bmi.n	10005c62 <cdcd_xfer_cb+0x8a>
10005bfc:	2000      	movs	r0, #0
10005bfe:	e8bd 83f8 	ldmia.w	sp!, {r3, r4, r5, r6, r7, r8, r9, pc}
10005c02:	4b2d      	ldr	r3, [pc, #180]	@ (10005cb8 <cdcd_xfer_cb+0xe0>)
10005c04:	b123      	cbz	r3, 10005c10 <cdcd_xfer_cb+0x38>
10005c06:	482d      	ldr	r0, [pc, #180]	@ (10005cbc <cdcd_xfer_cb+0xe4>)
10005c08:	f000 fbf4 	bl	100063f4 <tu_fifo_empty>
10005c0c:	2800      	cmp	r0, #0
10005c0e:	d04d      	beq.n	10005cac <cdcd_xfer_cb+0xd4>
10005c10:	2000      	movs	r0, #0
10005c12:	f7ff fdd3 	bl	100057bc <_prep_out_transaction.isra.0>
10005c16:	78b3      	ldrb	r3, [r6, #2]
10005c18:	42a3      	cmp	r3, r4
10005c1a:	d001      	beq.n	10005c20 <cdcd_xfer_cb+0x48>
10005c1c:	2001      	movs	r0, #1
10005c1e:	e7ee      	b.n	10005bfe <cdcd_xfer_cb+0x26>
10005c20:	4b27      	ldr	r3, [pc, #156]	@ (10005cc0 <cdcd_xfer_cb+0xe8>)
10005c22:	b113      	cbz	r3, 10005c2a <cdcd_xfer_cb+0x52>
10005c24:	2000      	movs	r0, #0
10005c26:	f3af 8000 	nop.w
10005c2a:	2000      	movs	r0, #0
10005c2c:	f7ff fe38 	bl	100058a0 <tud_cdc_n_write_flush>
10005c30:	2800      	cmp	r0, #0
10005c32:	d1f3      	bne.n	10005c1c <cdcd_xfer_cb+0x44>
10005c34:	4823      	ldr	r0, [pc, #140]	@ (10005cc4 <cdcd_xfer_cb+0xec>)
10005c36:	f000 fbcd 	bl	100063d4 <tu_fifo_count>
10005c3a:	2800      	cmp	r0, #0
10005c3c:	d1ee      	bne.n	10005c1c <cdcd_xfer_cb+0x44>
10005c3e:	2d00      	cmp	r5, #0
10005c40:	d0ec      	beq.n	10005c1c <cdcd_xfer_cb+0x44>
10005c42:	f015 053f 	ands.w	r5, r5, #63	@ 0x3f
10005c46:	d1e9      	bne.n	10005c1c <cdcd_xfer_cb+0x44>
10005c48:	4638      	mov	r0, r7
10005c4a:	78b1      	ldrb	r1, [r6, #2]
10005c4c:	f7ff fc50 	bl	100054f0 <usbd_edpt_claim>
10005c50:	2800      	cmp	r0, #0
10005c52:	d0e3      	beq.n	10005c1c <cdcd_xfer_cb+0x44>
10005c54:	462b      	mov	r3, r5
10005c56:	462a      	mov	r2, r5
10005c58:	4638      	mov	r0, r7
10005c5a:	78b1      	ldrb	r1, [r6, #2]
10005c5c:	f7ff fc6c 	bl	10005538 <usbd_edpt_xfer>
10005c60:	e7dc      	b.n	10005c1c <cdcd_xfer_cb+0x44>
10005c62:	be00      	bkpt	0x0000
10005c64:	e7ca      	b.n	10005bfc <cdcd_xfer_cb+0x24>
10005c66:	b29a      	uxth	r2, r3
10005c68:	4917      	ldr	r1, [pc, #92]	@ (10005cc8 <cdcd_xfer_cb+0xf0>)
10005c6a:	f106 0010 	add.w	r0, r6, #16
10005c6e:	f000 fc85 	bl	1000657c <tu_fifo_write_n>
10005c72:	4b16      	ldr	r3, [pc, #88]	@ (10005ccc <cdcd_xfer_cb+0xf4>)
10005c74:	2b00      	cmp	r3, #0
10005c76:	d0c4      	beq.n	10005c02 <cdcd_xfer_cb+0x2a>
10005c78:	7973      	ldrb	r3, [r6, #5]
10005c7a:	2bff      	cmp	r3, #255	@ 0xff
10005c7c:	d0c1      	beq.n	10005c02 <cdcd_xfer_cb+0x2a>
10005c7e:	2d00      	cmp	r5, #0
10005c80:	d0bf      	beq.n	10005c02 <cdcd_xfer_cb+0x2a>
10005c82:	f8df 8044 	ldr.w	r8, [pc, #68]	@ 10005cc8 <cdcd_xfer_cb+0xf0>
10005c86:	eb08 0905 	add.w	r9, r8, r5
10005c8a:	e002      	b.n	10005c92 <cdcd_xfer_cb+0xba>
10005c8c:	45c8      	cmp	r8, r9
10005c8e:	d0b8      	beq.n	10005c02 <cdcd_xfer_cb+0x2a>
10005c90:	7973      	ldrb	r3, [r6, #5]
10005c92:	f818 2b01 	ldrb.w	r2, [r8], #1
10005c96:	429a      	cmp	r2, r3
10005c98:	d1f8      	bne.n	10005c8c <cdcd_xfer_cb+0xb4>
10005c9a:	4808      	ldr	r0, [pc, #32]	@ (10005cbc <cdcd_xfer_cb+0xe4>)
10005c9c:	f000 fbaa 	bl	100063f4 <tu_fifo_empty>
10005ca0:	2800      	cmp	r0, #0
10005ca2:	d1f3      	bne.n	10005c8c <cdcd_xfer_cb+0xb4>
10005ca4:	7971      	ldrb	r1, [r6, #5]
10005ca6:	f3af 8000 	nop.w
10005caa:	e7ef      	b.n	10005c8c <cdcd_xfer_cb+0xb4>
10005cac:	f3af 8000 	nop.w
10005cb0:	e7ae      	b.n	10005c10 <cdcd_xfer_cb+0x38>
10005cb2:	bf00      	nop
10005cb4:	20001914 	.word	0x20001914
10005cb8:	00000000 	.word	0x00000000
10005cbc:	20001924 	.word	0x20001924
10005cc0:	00000000 	.word	0x00000000
10005cc4:	20001938 	.word	0x20001938
10005cc8:	20001890 	.word	0x20001890
10005ccc:	00000000 	.word	0x00000000

10005cd0 <vendord_init>:
10005cd0:	b5f0      	push	{r4, r5, r6, r7, lr}
10005cd2:	f44f 7213 	mov.w	r2, #588	@ 0x24c
10005cd6:	b085      	sub	sp, #20
10005cd8:	2100      	movs	r1, #0
10005cda:	4812      	ldr	r0, [pc, #72]	@ (10005d24 <vendord_init+0x54>)
10005cdc:	f001 fbf8 	bl	100074d0 <memset>
10005ce0:	2640      	movs	r6, #64	@ 0x40
10005ce2:	2300      	movs	r3, #0
10005ce4:	f44f 7580 	mov.w	r5, #256	@ 0x100
10005ce8:	4f0e      	ldr	r7, [pc, #56]	@ (10005d24 <vendord_init+0x54>)
10005cea:	4c0f      	ldr	r4, [pc, #60]	@ (10005d28 <vendord_init+0x58>)
10005cec:	f507 72a6 	add.w	r2, r7, #332	@ 0x14c
10005cf0:	4619      	mov	r1, r3
10005cf2:	e9cd 4602 	strd	r4, r6, [sp, #8]
10005cf6:	9200      	str	r2, [sp, #0]
10005cf8:	9501      	str	r5, [sp, #4]
10005cfa:	461a      	mov	r2, r3
10005cfc:	f507 7094 	add.w	r0, r7, #296	@ 0x128
10005d00:	f000 f9c4 	bl	1000608c <tu_edpt_stream_init>
10005d04:	2300      	movs	r3, #0
10005d06:	4638      	mov	r0, r7
10005d08:	f107 0128 	add.w	r1, r7, #40	@ 0x28
10005d0c:	4434      	add	r4, r6
10005d0e:	9100      	str	r1, [sp, #0]
10005d10:	2201      	movs	r2, #1
10005d12:	4619      	mov	r1, r3
10005d14:	e9cd 4602 	strd	r4, r6, [sp, #8]
10005d18:	9501      	str	r5, [sp, #4]
10005d1a:	3004      	adds	r0, #4
10005d1c:	f000 f9b6 	bl	1000608c <tu_edpt_stream_init>
10005d20:	b005      	add	sp, #20
10005d22:	bdf0      	pop	{r4, r5, r6, r7, pc}
10005d24:	20001bf8 	.word	0x20001bf8
10005d28:	20001b78 	.word	0x20001b78

10005d2c <vendord_deinit>:
10005d2c:	b508      	push	{r3, lr}
10005d2e:	4805      	ldr	r0, [pc, #20]	@ (10005d44 <vendord_deinit+0x18>)
10005d30:	f000 f9d8 	bl	100060e4 <tu_edpt_stream_deinit>
10005d34:	4b03      	ldr	r3, [pc, #12]	@ (10005d44 <vendord_deinit+0x18>)
10005d36:	f5a3 7092 	sub.w	r0, r3, #292	@ 0x124
10005d3a:	f000 f9d3 	bl	100060e4 <tu_edpt_stream_deinit>
10005d3e:	2001      	movs	r0, #1
10005d40:	bd08      	pop	{r3, pc}
10005d42:	bf00      	nop
10005d44:	20001d20 	.word	0x20001d20

10005d48 <vendord_reset>:
10005d48:	b538      	push	{r3, r4, r5, lr}
10005d4a:	2500      	movs	r5, #0
10005d4c:	4c06      	ldr	r4, [pc, #24]	@ (10005d68 <vendord_reset+0x20>)
10005d4e:	f504 7098 	add.w	r0, r4, #304	@ 0x130
10005d52:	7025      	strb	r5, [r4, #0]
10005d54:	f000 fcc4 	bl	100066e0 <tu_fifo_clear>
10005d58:	f104 000c 	add.w	r0, r4, #12
10005d5c:	f000 fcc0 	bl	100066e0 <tu_fifo_clear>
10005d60:	f884 5129 	strb.w	r5, [r4, #297]	@ 0x129
10005d64:	7165      	strb	r5, [r4, #5]
10005d66:	bd38      	pop	{r3, r4, r5, pc}
10005d68:	20001bf8 	.word	0x20001bf8

10005d6c <vendord_open>:
10005d6c:	e92d 43f8 	stmdb	sp!, {r3, r4, r5, r6, r7, r8, r9, lr}
10005d70:	794b      	ldrb	r3, [r1, #5]
10005d72:	2bff      	cmp	r3, #255	@ 0xff
10005d74:	d151      	bne.n	10005e1a <vendord_open+0xae>
10005d76:	4e35      	ldr	r6, [pc, #212]	@ (10005e4c <vendord_open+0xe0>)
10005d78:	f896 3129 	ldrb.w	r3, [r6, #297]	@ 0x129
10005d7c:	2b00      	cmp	r3, #0
10005d7e:	d14c      	bne.n	10005e1a <vendord_open+0xae>
10005d80:	f896 8005 	ldrb.w	r8, [r6, #5]
10005d84:	f1b8 0f00 	cmp.w	r8, #0
10005d88:	d147      	bne.n	10005e1a <vendord_open+0xae>
10005d8a:	788b      	ldrb	r3, [r1, #2]
10005d8c:	780c      	ldrb	r4, [r1, #0]
10005d8e:	7033      	strb	r3, [r6, #0]
10005d90:	790b      	ldrb	r3, [r1, #4]
10005d92:	460f      	mov	r7, r1
10005d94:	440c      	add	r4, r1
10005d96:	b3ab      	cbz	r3, 10005e04 <vendord_open+0x98>
10005d98:	4681      	mov	r9, r0
10005d9a:	18a5      	adds	r5, r4, r2
10005d9c:	e003      	b.n	10005da6 <vendord_open+0x3a>
10005d9e:	42a5      	cmp	r5, r4
10005da0:	d930      	bls.n	10005e04 <vendord_open+0x98>
10005da2:	7823      	ldrb	r3, [r4, #0]
10005da4:	441c      	add	r4, r3
10005da6:	7863      	ldrb	r3, [r4, #1]
10005da8:	2b05      	cmp	r3, #5
10005daa:	d1f8      	bne.n	10005d9e <vendord_open+0x32>
10005dac:	42ac      	cmp	r4, r5
10005dae:	d229      	bcs.n	10005e04 <vendord_open+0x98>
10005db0:	4621      	mov	r1, r4
10005db2:	4648      	mov	r0, r9
10005db4:	f7ff fb46 	bl	10005444 <usbd_edpt_open>
10005db8:	b340      	cbz	r0, 10005e0c <vendord_open+0xa0>
10005dba:	78a3      	ldrb	r3, [r4, #2]
10005dbc:	09db      	lsrs	r3, r3, #7
10005dbe:	d12f      	bne.n	10005e20 <vendord_open+0xb4>
10005dc0:	4823      	ldr	r0, [pc, #140]	@ (10005e50 <vendord_open+0xe4>)
10005dc2:	f000 fc8d 	bl	100066e0 <tu_fifo_clear>
10005dc6:	78a3      	ldrb	r3, [r4, #2]
10005dc8:	f896 2128 	ldrb.w	r2, [r6, #296]	@ 0x128
10005dcc:	f886 3129 	strb.w	r3, [r6, #297]	@ 0x129
10005dd0:	88a3      	ldrh	r3, [r4, #4]
10005dd2:	4648      	mov	r0, r9
10005dd4:	f3c3 030a 	ubfx	r3, r3, #0, #11
10005dd8:	f5a3 7300 	sub.w	r3, r3, #512	@ 0x200
10005ddc:	fab3 f383 	clz	r3, r3
10005de0:	095b      	lsrs	r3, r3, #5
10005de2:	f363 0241 	bfi	r2, r3, #1, #1
10005de6:	491b      	ldr	r1, [pc, #108]	@ (10005e54 <vendord_open+0xe8>)
10005de8:	f886 2128 	strb.w	r2, [r6, #296]	@ 0x128
10005dec:	f000 f9e8 	bl	100061c0 <tu_edpt_stream_read_xfer>
10005df0:	b160      	cbz	r0, 10005e0c <vendord_open+0xa0>
10005df2:	7823      	ldrb	r3, [r4, #0]
10005df4:	793a      	ldrb	r2, [r7, #4]
10005df6:	f108 0801 	add.w	r8, r8, #1
10005dfa:	441c      	add	r4, r3
10005dfc:	fa5f f388 	uxtb.w	r3, r8
10005e00:	429a      	cmp	r2, r3
10005e02:	d8d0      	bhi.n	10005da6 <vendord_open+0x3a>
10005e04:	1be1      	subs	r1, r4, r7
10005e06:	b288      	uxth	r0, r1
10005e08:	e8bd 83f8 	ldmia.w	sp!, {r3, r4, r5, r6, r7, r8, r9, pc}
10005e0c:	f04f 23e0 	mov.w	r3, #3758153728	@ 0xe000e000
10005e10:	f8d3 3df0 	ldr.w	r3, [r3, #3568]	@ 0xdf0
10005e14:	07db      	lsls	r3, r3, #31
10005e16:	d500      	bpl.n	10005e1a <vendord_open+0xae>
10005e18:	be00      	bkpt	0x0000
10005e1a:	2000      	movs	r0, #0
10005e1c:	e8bd 83f8 	ldmia.w	sp!, {r3, r4, r5, r6, r7, r8, r9, pc}
10005e20:	480d      	ldr	r0, [pc, #52]	@ (10005e58 <vendord_open+0xec>)
10005e22:	f000 fc5d 	bl	100066e0 <tu_fifo_clear>
10005e26:	78a3      	ldrb	r3, [r4, #2]
10005e28:	7932      	ldrb	r2, [r6, #4]
10005e2a:	7173      	strb	r3, [r6, #5]
10005e2c:	88a3      	ldrh	r3, [r4, #4]
10005e2e:	490b      	ldr	r1, [pc, #44]	@ (10005e5c <vendord_open+0xf0>)
10005e30:	f3c3 030a 	ubfx	r3, r3, #0, #11
10005e34:	f5a3 7300 	sub.w	r3, r3, #512	@ 0x200
10005e38:	fab3 f383 	clz	r3, r3
10005e3c:	095b      	lsrs	r3, r3, #5
10005e3e:	f363 0241 	bfi	r2, r3, #1, #1
10005e42:	2000      	movs	r0, #0
10005e44:	7132      	strb	r2, [r6, #4]
10005e46:	f000 f983 	bl	10006150 <tu_edpt_stream_write_xfer>
10005e4a:	e7d2      	b.n	10005df2 <vendord_open+0x86>
10005e4c:	20001bf8 	.word	0x20001bf8
10005e50:	20001d28 	.word	0x20001d28
10005e54:	20001d20 	.word	0x20001d20
10005e58:	20001c04 	.word	0x20001c04
10005e5c:	20001bfc 	.word	0x20001bfc

10005e60 <vendord_xfer_cb>:
10005e60:	b570      	push	{r4, r5, r6, lr}
10005e62:	4c1b      	ldr	r4, [pc, #108]	@ (10005ed0 <vendord_xfer_cb+0x70>)
10005e64:	4606      	mov	r6, r0
10005e66:	f894 c129 	ldrb.w	ip, [r4, #297]	@ 0x129
10005e6a:	461d      	mov	r5, r3
10005e6c:	458c      	cmp	ip, r1
10005e6e:	d011      	beq.n	10005e94 <vendord_xfer_cb+0x34>
10005e70:	7963      	ldrb	r3, [r4, #5]
10005e72:	428b      	cmp	r3, r1
10005e74:	d001      	beq.n	10005e7a <vendord_xfer_cb+0x1a>
10005e76:	2000      	movs	r0, #0
10005e78:	bd70      	pop	{r4, r5, r6, pc}
10005e7a:	4b16      	ldr	r3, [pc, #88]	@ (10005ed4 <vendord_xfer_cb+0x74>)
10005e7c:	b11b      	cbz	r3, 10005e86 <vendord_xfer_cb+0x26>
10005e7e:	2000      	movs	r0, #0
10005e80:	b2a9      	uxth	r1, r5
10005e82:	f3af 8000 	nop.w
10005e86:	4630      	mov	r0, r6
10005e88:	4913      	ldr	r1, [pc, #76]	@ (10005ed8 <vendord_xfer_cb+0x78>)
10005e8a:	f000 f961 	bl	10006150 <tu_edpt_stream_write_xfer>
10005e8e:	b1c8      	cbz	r0, 10005ec4 <vendord_xfer_cb+0x64>
10005e90:	2001      	movs	r0, #1
10005e92:	bd70      	pop	{r4, r5, r6, pc}
10005e94:	f8b4 3134 	ldrh.w	r3, [r4, #308]	@ 0x134
10005e98:	b963      	cbnz	r3, 10005eb4 <vendord_xfer_cb+0x54>
10005e9a:	4b10      	ldr	r3, [pc, #64]	@ (10005edc <vendord_xfer_cb+0x7c>)
10005e9c:	b123      	cbz	r3, 10005ea8 <vendord_xfer_cb+0x48>
10005e9e:	2000      	movs	r0, #0
10005ea0:	490f      	ldr	r1, [pc, #60]	@ (10005ee0 <vendord_xfer_cb+0x80>)
10005ea2:	b2aa      	uxth	r2, r5
10005ea4:	f3af 8000 	nop.w
10005ea8:	4630      	mov	r0, r6
10005eaa:	490e      	ldr	r1, [pc, #56]	@ (10005ee4 <vendord_xfer_cb+0x84>)
10005eac:	f000 f988 	bl	100061c0 <tu_edpt_stream_read_xfer>
10005eb0:	2001      	movs	r0, #1
10005eb2:	e7ee      	b.n	10005e92 <vendord_xfer_cb+0x32>
10005eb4:	f8d4 112c 	ldr.w	r1, [r4, #300]	@ 0x12c
10005eb8:	b2aa      	uxth	r2, r5
10005eba:	f504 7098 	add.w	r0, r4, #304	@ 0x130
10005ebe:	f000 fb5d 	bl	1000657c <tu_fifo_write_n>
10005ec2:	e7ea      	b.n	10005e9a <vendord_xfer_cb+0x3a>
10005ec4:	462a      	mov	r2, r5
10005ec6:	4630      	mov	r0, r6
10005ec8:	4903      	ldr	r1, [pc, #12]	@ (10005ed8 <vendord_xfer_cb+0x78>)
10005eca:	f000 f90d 	bl	100060e8 <tu_edpt_stream_write_zlp_if_needed>
10005ece:	e7df      	b.n	10005e90 <vendord_xfer_cb+0x30>
10005ed0:	20001bf8 	.word	0x20001bf8
10005ed4:	00000000 	.word	0x00000000
10005ed8:	20001bfc 	.word	0x20001bfc
10005edc:	00000000 	.word	0x00000000
10005ee0:	20001b78 	.word	0x20001b78
10005ee4:	20001d20 	.word	0x20001d20

10005ee8 <tusb_rhport_init>:
10005ee8:	b510      	push	{r4, lr}
10005eea:	b082      	sub	sp, #8
10005eec:	b1c9      	cbz	r1, 10005f22 <tusb_rhport_init+0x3a>
10005eee:	2801      	cmp	r0, #1
10005ef0:	d80c      	bhi.n	10005f0c <tusb_rhport_init+0x24>
10005ef2:	780b      	ldrb	r3, [r1, #0]
10005ef4:	b153      	cbz	r3, 10005f0c <tusb_rhport_init+0x24>
10005ef6:	4c14      	ldr	r4, [pc, #80]	@ (10005f48 <tusb_rhport_init+0x60>)
10005ef8:	2b01      	cmp	r3, #1
10005efa:	5423      	strb	r3, [r4, r0]
10005efc:	d002      	beq.n	10005f04 <tusb_rhport_init+0x1c>
10005efe:	2001      	movs	r0, #1
10005f00:	b002      	add	sp, #8
10005f02:	bd10      	pop	{r4, pc}
10005f04:	f7fe fe62 	bl	10004bcc <tud_rhport_init>
10005f08:	2800      	cmp	r0, #0
10005f0a:	d1f8      	bne.n	10005efe <tusb_rhport_init+0x16>
10005f0c:	f04f 23e0 	mov.w	r3, #3758153728	@ 0xe000e000
10005f10:	f8d3 3df0 	ldr.w	r3, [r3, #3568]	@ 0xdf0
10005f14:	07db      	lsls	r3, r3, #31
10005f16:	d402      	bmi.n	10005f1e <tusb_rhport_init+0x36>
10005f18:	2000      	movs	r0, #0
10005f1a:	b002      	add	sp, #8
10005f1c:	bd10      	pop	{r4, pc}
10005f1e:	be00      	bkpt	0x0000
10005f20:	e7fa      	b.n	10005f18 <tusb_rhport_init+0x30>
10005f22:	2401      	movs	r4, #1
10005f24:	4608      	mov	r0, r1
10005f26:	a901      	add	r1, sp, #4
10005f28:	f8ad 4004 	strh.w	r4, [sp, #4]
10005f2c:	f7fe fe4e 	bl	10004bcc <tud_rhport_init>
10005f30:	b938      	cbnz	r0, 10005f42 <tusb_rhport_init+0x5a>
10005f32:	f04f 23e0 	mov.w	r3, #3758153728	@ 0xe000e000
10005f36:	f8d3 3df0 	ldr.w	r3, [r3, #3568]	@ 0xdf0
10005f3a:	07da      	lsls	r2, r3, #31
10005f3c:	d5ed      	bpl.n	10005f1a <tusb_rhport_init+0x32>
10005f3e:	be00      	bkpt	0x0000
10005f40:	e7eb      	b.n	10005f1a <tusb_rhport_init+0x32>
10005f42:	4b01      	ldr	r3, [pc, #4]	@ (10005f48 <tusb_rhport_init+0x60>)
10005f44:	701c      	strb	r4, [r3, #0]
10005f46:	e7e8      	b.n	10005f1a <tusb_rhport_init+0x32>
10005f48:	20001a50 	.word	0x20001a50

10005f4c <tu_edpt_claim>:
10005f4c:	b5f8      	push	{r3, r4, r5, r6, r7, lr}
10005f4e:	7803      	ldrb	r3, [r0, #0]
10005f50:	f013 0401 	ands.w	r4, r3, #1
10005f54:	d11a      	bne.n	10005f8c <tu_edpt_claim+0x40>
10005f56:	7803      	ldrb	r3, [r0, #0]
10005f58:	4605      	mov	r5, r0
10005f5a:	075a      	lsls	r2, r3, #29
10005f5c:	f3c3 0780 	ubfx	r7, r3, #2, #1
10005f60:	d501      	bpl.n	10005f66 <tu_edpt_claim+0x1a>
10005f62:	4620      	mov	r0, r4
10005f64:	bdf8      	pop	{r3, r4, r5, r6, r7, pc}
10005f66:	460e      	mov	r6, r1
10005f68:	f04f 31ff 	mov.w	r1, #4294967295	@ 0xffffffff
10005f6c:	4630      	mov	r0, r6
10005f6e:	f006 f8db 	bl	1000c128 <__mutex_enter_timeout_ms_veneer>
10005f72:	782b      	ldrb	r3, [r5, #0]
10005f74:	f013 0401 	ands.w	r4, r3, #1
10005f78:	d10b      	bne.n	10005f92 <tu_edpt_claim+0x46>
10005f7a:	782b      	ldrb	r3, [r5, #0]
10005f7c:	075b      	lsls	r3, r3, #29
10005f7e:	d409      	bmi.n	10005f94 <tu_edpt_claim+0x48>
10005f80:	782b      	ldrb	r3, [r5, #0]
10005f82:	2401      	movs	r4, #1
10005f84:	f043 0304 	orr.w	r3, r3, #4
10005f88:	702b      	strb	r3, [r5, #0]
10005f8a:	e003      	b.n	10005f94 <tu_edpt_claim+0x48>
10005f8c:	2400      	movs	r4, #0
10005f8e:	4620      	mov	r0, r4
10005f90:	bdf8      	pop	{r3, r4, r5, r6, r7, pc}
10005f92:	463c      	mov	r4, r7
10005f94:	4630      	mov	r0, r6
10005f96:	f006 f8d7 	bl	1000c148 <__mutex_exit_veneer>
10005f9a:	4620      	mov	r0, r4
10005f9c:	bdf8      	pop	{r3, r4, r5, r6, r7, pc}
10005f9e:	bf00      	nop

10005fa0 <tu_edpt_release>:
10005fa0:	b570      	push	{r4, r5, r6, lr}
10005fa2:	460c      	mov	r4, r1
10005fa4:	4605      	mov	r5, r0
10005fa6:	f04f 31ff 	mov.w	r1, #4294967295	@ 0xffffffff
10005faa:	4620      	mov	r0, r4
10005fac:	f006 f8bc 	bl	1000c128 <__mutex_enter_timeout_ms_veneer>
10005fb0:	782b      	ldrb	r3, [r5, #0]
10005fb2:	f3c3 0680 	ubfx	r6, r3, #2, #1
10005fb6:	075b      	lsls	r3, r3, #29
10005fb8:	d508      	bpl.n	10005fcc <tu_edpt_release+0x2c>
10005fba:	782b      	ldrb	r3, [r5, #0]
10005fbc:	f013 0301 	ands.w	r3, r3, #1
10005fc0:	bf11      	iteee	ne
10005fc2:	2600      	movne	r6, #0
10005fc4:	782a      	ldrbeq	r2, [r5, #0]
10005fc6:	f363 0282 	bfieq	r2, r3, #2, #1
10005fca:	702a      	strbeq	r2, [r5, #0]
10005fcc:	4620      	mov	r0, r4
10005fce:	f006 f8bb 	bl	1000c148 <__mutex_exit_veneer>
10005fd2:	4630      	mov	r0, r6
10005fd4:	bd70      	pop	{r4, r5, r6, pc}
10005fd6:	bf00      	nop

10005fd8 <tu_edpt_validate>:
10005fd8:	78c3      	ldrb	r3, [r0, #3]
10005fda:	8882      	ldrh	r2, [r0, #4]
10005fdc:	f003 0003 	and.w	r0, r3, #3
10005fe0:	2802      	cmp	r0, #2
10005fe2:	f3c2 020a 	ubfx	r2, r2, #0, #11
10005fe6:	d015      	beq.n	10006014 <tu_edpt_validate+0x3c>
10005fe8:	2803      	cmp	r0, #3
10005fea:	d00a      	beq.n	10006002 <tu_edpt_validate+0x2a>
10005fec:	2801      	cmp	r0, #1
10005fee:	d11c      	bne.n	1000602a <tu_edpt_validate+0x52>
10005ff0:	2902      	cmp	r1, #2
10005ff2:	f240 33ff 	movw	r3, #1023	@ 0x3ff
10005ff6:	bf08      	it	eq
10005ff8:	f44f 6380 	moveq.w	r3, #1024	@ 0x400
10005ffc:	4293      	cmp	r3, r2
10005ffe:	d30d      	bcc.n	1000601c <tu_edpt_validate+0x44>
10006000:	4770      	bx	lr
10006002:	2902      	cmp	r1, #2
10006004:	bf14      	ite	ne
10006006:	2340      	movne	r3, #64	@ 0x40
10006008:	f44f 6380 	moveq.w	r3, #1024	@ 0x400
1000600c:	4293      	cmp	r3, r2
1000600e:	d305      	bcc.n	1000601c <tu_edpt_validate+0x44>
10006010:	2001      	movs	r0, #1
10006012:	4770      	bx	lr
10006014:	2902      	cmp	r1, #2
10006016:	d00a      	beq.n	1000602e <tu_edpt_validate+0x56>
10006018:	2a40      	cmp	r2, #64	@ 0x40
1000601a:	d9f9      	bls.n	10006010 <tu_edpt_validate+0x38>
1000601c:	f04f 23e0 	mov.w	r3, #3758153728	@ 0xe000e000
10006020:	f8d3 3df0 	ldr.w	r3, [r3, #3568]	@ 0xdf0
10006024:	07db      	lsls	r3, r3, #31
10006026:	d500      	bpl.n	1000602a <tu_edpt_validate+0x52>
10006028:	be00      	bkpt	0x0000
1000602a:	2000      	movs	r0, #0
1000602c:	4770      	bx	lr
1000602e:	f5b2 7f00 	cmp.w	r2, #512	@ 0x200
10006032:	d0ed      	beq.n	10006010 <tu_edpt_validate+0x38>
10006034:	e7f2      	b.n	1000601c <tu_edpt_validate+0x44>
10006036:	bf00      	nop

10006038 <tu_edpt_bind_driver>:
10006038:	440a      	add	r2, r1
1000603a:	4291      	cmp	r1, r2
1000603c:	d305      	bcc.n	1000604a <tu_edpt_bind_driver+0x12>
1000603e:	4770      	bx	lr
10006040:	f891 c000 	ldrb.w	ip, [r1]
10006044:	4461      	add	r1, ip
10006046:	428a      	cmp	r2, r1
10006048:	d91f      	bls.n	1000608a <tu_edpt_bind_driver+0x52>
1000604a:	f891 c001 	ldrb.w	ip, [r1, #1]
1000604e:	f1bc 0f05 	cmp.w	ip, #5
10006052:	d1f5      	bne.n	10006040 <tu_edpt_bind_driver+0x8>
10006054:	b500      	push	{lr}
10006056:	f891 c002 	ldrb.w	ip, [r1, #2]
1000605a:	f00c 0e7f 	and.w	lr, ip, #127	@ 0x7f
1000605e:	eb00 0e4e 	add.w	lr, r0, lr, lsl #1
10006062:	ea4f 1cdc 	mov.w	ip, ip, lsr #7
10006066:	f80e 300c 	strb.w	r3, [lr, ip]
1000606a:	f891 c000 	ldrb.w	ip, [r1]
1000606e:	4461      	add	r1, ip
10006070:	428a      	cmp	r2, r1
10006072:	d909      	bls.n	10006088 <tu_edpt_bind_driver+0x50>
10006074:	f891 c001 	ldrb.w	ip, [r1, #1]
10006078:	f1bc 0f05 	cmp.w	ip, #5
1000607c:	d0eb      	beq.n	10006056 <tu_edpt_bind_driver+0x1e>
1000607e:	f891 c000 	ldrb.w	ip, [r1]
10006082:	4461      	add	r1, ip
10006084:	428a      	cmp	r2, r1
10006086:	d8f5      	bhi.n	10006074 <tu_edpt_bind_driver+0x3c>
10006088:	bd00      	pop	{pc}
1000608a:	4770      	bx	lr

1000608c <tu_edpt_stream_init>:
1000608c:	e92d 41f0 	stmdb	sp!, {r4, r5, r6, r7, r8, lr}
10006090:	468e      	mov	lr, r1
10006092:	b082      	sub	sp, #8
10006094:	9300      	str	r3, [sp, #0]
10006096:	f890 c000 	ldrb.w	ip, [r0]
1000609a:	9e08      	ldr	r6, [sp, #32]
1000609c:	f8bd 7024 	ldrh.w	r7, [sp, #36]	@ 0x24
100060a0:	f36e 0c00 	bfi	ip, lr, #0, #1
100060a4:	4604      	mov	r4, r0
100060a6:	4615      	mov	r5, r2
100060a8:	2301      	movs	r3, #1
100060aa:	4631      	mov	r1, r6
100060ac:	463a      	mov	r2, r7
100060ae:	f800 cb08 	strb.w	ip, [r0], #8
100060b2:	f8bd 802c 	ldrh.w	r8, [sp, #44]	@ 0x2c
100060b6:	f000 f95d 	bl	10006374 <tu_fifo_config>
100060ba:	b106      	cbz	r6, 100060be <tu_edpt_stream_init+0x32>
100060bc:	b93f      	cbnz	r7, 100060ce <tu_edpt_stream_init+0x42>
100060be:	2001      	movs	r0, #1
100060c0:	9b0a      	ldr	r3, [sp, #40]	@ 0x28
100060c2:	f8a4 8002 	strh.w	r8, [r4, #2]
100060c6:	6063      	str	r3, [r4, #4]
100060c8:	b002      	add	sp, #8
100060ca:	e8bd 81f0 	ldmia.w	sp!, {r4, r5, r6, r7, r8, pc}
100060ce:	f104 061c 	add.w	r6, r4, #28
100060d2:	4630      	mov	r0, r6
100060d4:	f7fb fa94 	bl	10001600 <mutex_init>
100060d8:	b10d      	cbz	r5, 100060de <tu_edpt_stream_init+0x52>
100060da:	4635      	mov	r5, r6
100060dc:	2600      	movs	r6, #0
100060de:	e9c4 5605 	strd	r5, r6, [r4, #20]
100060e2:	e7ec      	b.n	100060be <tu_edpt_stream_init+0x32>

100060e4 <tu_edpt_stream_deinit>:
100060e4:	2001      	movs	r0, #1
100060e6:	4770      	bx	lr

100060e8 <tu_edpt_stream_write_zlp_if_needed>:
100060e8:	b5f8      	push	{r3, r4, r5, r6, r7, lr}
100060ea:	4606      	mov	r6, r0
100060ec:	4608      	mov	r0, r1
100060ee:	f810 3b08 	ldrb.w	r3, [r0], #8
100060f2:	460c      	mov	r4, r1
100060f4:	f013 0f02 	tst.w	r3, #2
100060f8:	bf0c      	ite	eq
100060fa:	2740      	moveq	r7, #64	@ 0x40
100060fc:	f44f 7700 	movne.w	r7, #512	@ 0x200
10006100:	4615      	mov	r5, r2
10006102:	f000 f967 	bl	100063d4 <tu_fifo_count>
10006106:	b930      	cbnz	r0, 10006116 <tu_edpt_stream_write_zlp_if_needed+0x2e>
10006108:	b12d      	cbz	r5, 10006116 <tu_edpt_stream_write_zlp_if_needed+0x2e>
1000610a:	3f01      	subs	r7, #1
1000610c:	422f      	tst	r7, r5
1000610e:	d102      	bne.n	10006116 <tu_edpt_stream_write_zlp_if_needed+0x2e>
10006110:	7823      	ldrb	r3, [r4, #0]
10006112:	07da      	lsls	r2, r3, #31
10006114:	d501      	bpl.n	1000611a <tu_edpt_stream_write_zlp_if_needed+0x32>
10006116:	2000      	movs	r0, #0
10006118:	bdf8      	pop	{r3, r4, r5, r6, r7, pc}
1000611a:	4630      	mov	r0, r6
1000611c:	7861      	ldrb	r1, [r4, #1]
1000611e:	f7ff f9e7 	bl	100054f0 <usbd_edpt_claim>
10006122:	2800      	cmp	r0, #0
10006124:	d0f7      	beq.n	10006116 <tu_edpt_stream_write_zlp_if_needed+0x2e>
10006126:	7823      	ldrb	r3, [r4, #0]
10006128:	f013 0301 	ands.w	r3, r3, #1
1000612c:	d007      	beq.n	1000613e <tu_edpt_stream_write_zlp_if_needed+0x56>
1000612e:	f04f 23e0 	mov.w	r3, #3758153728	@ 0xe000e000
10006132:	f8d3 3df0 	ldr.w	r3, [r3, #3568]	@ 0xdf0
10006136:	07db      	lsls	r3, r3, #31
10006138:	d5ed      	bpl.n	10006116 <tu_edpt_stream_write_zlp_if_needed+0x2e>
1000613a:	be00      	bkpt	0x0000
1000613c:	e7eb      	b.n	10006116 <tu_edpt_stream_write_zlp_if_needed+0x2e>
1000613e:	461a      	mov	r2, r3
10006140:	4630      	mov	r0, r6
10006142:	7861      	ldrb	r1, [r4, #1]
10006144:	f7ff f9f8 	bl	10005538 <usbd_edpt_xfer>
10006148:	2800      	cmp	r0, #0
1000614a:	d0f0      	beq.n	1000612e <tu_edpt_stream_write_zlp_if_needed+0x46>
1000614c:	bdf8      	pop	{r3, r4, r5, r6, r7, pc}
1000614e:	bf00      	nop

10006150 <tu_edpt_stream_write_xfer>:
10006150:	b570      	push	{r4, r5, r6, lr}
10006152:	f101 0508 	add.w	r5, r1, #8
10006156:	4606      	mov	r6, r0
10006158:	4628      	mov	r0, r5
1000615a:	460c      	mov	r4, r1
1000615c:	f000 f93a 	bl	100063d4 <tu_fifo_count>
10006160:	b110      	cbz	r0, 10006168 <tu_edpt_stream_write_xfer+0x18>
10006162:	7823      	ldrb	r3, [r4, #0]
10006164:	07da      	lsls	r2, r3, #31
10006166:	d501      	bpl.n	1000616c <tu_edpt_stream_write_xfer+0x1c>
10006168:	2000      	movs	r0, #0
1000616a:	bd70      	pop	{r4, r5, r6, pc}
1000616c:	4630      	mov	r0, r6
1000616e:	7861      	ldrb	r1, [r4, #1]
10006170:	f7ff f9be 	bl	100054f0 <usbd_edpt_claim>
10006174:	2800      	cmp	r0, #0
10006176:	d0f7      	beq.n	10006168 <tu_edpt_stream_write_xfer+0x18>
10006178:	4628      	mov	r0, r5
1000617a:	8862      	ldrh	r2, [r4, #2]
1000617c:	6861      	ldr	r1, [r4, #4]
1000617e:	f000 f97d 	bl	1000647c <tu_fifo_read_n>
10006182:	7823      	ldrb	r3, [r4, #0]
10006184:	4605      	mov	r5, r0
10006186:	f003 0301 	and.w	r3, r3, #1
1000618a:	b140      	cbz	r0, 1000619e <tu_edpt_stream_write_xfer+0x4e>
1000618c:	b173      	cbz	r3, 100061ac <tu_edpt_stream_write_xfer+0x5c>
1000618e:	f04f 23e0 	mov.w	r3, #3758153728	@ 0xe000e000
10006192:	f8d3 3df0 	ldr.w	r3, [r3, #3568]	@ 0xdf0
10006196:	07db      	lsls	r3, r3, #31
10006198:	d5e6      	bpl.n	10006168 <tu_edpt_stream_write_xfer+0x18>
1000619a:	be00      	bkpt	0x0000
1000619c:	e7e4      	b.n	10006168 <tu_edpt_stream_write_xfer+0x18>
1000619e:	2b00      	cmp	r3, #0
100061a0:	d1e2      	bne.n	10006168 <tu_edpt_stream_write_xfer+0x18>
100061a2:	4630      	mov	r0, r6
100061a4:	7861      	ldrb	r1, [r4, #1]
100061a6:	f7ff f9b5 	bl	10005514 <usbd_edpt_release>
100061aa:	e7dd      	b.n	10006168 <tu_edpt_stream_write_xfer+0x18>
100061ac:	4603      	mov	r3, r0
100061ae:	6862      	ldr	r2, [r4, #4]
100061b0:	4630      	mov	r0, r6
100061b2:	7861      	ldrb	r1, [r4, #1]
100061b4:	f7ff f9c0 	bl	10005538 <usbd_edpt_xfer>
100061b8:	2800      	cmp	r0, #0
100061ba:	d0e8      	beq.n	1000618e <tu_edpt_stream_write_xfer+0x3e>
100061bc:	4628      	mov	r0, r5
100061be:	bd70      	pop	{r4, r5, r6, pc}

100061c0 <tu_edpt_stream_read_xfer>:
100061c0:	b5f8      	push	{r3, r4, r5, r6, r7, lr}
100061c2:	898a      	ldrh	r2, [r1, #12]
100061c4:	460c      	mov	r4, r1
100061c6:	4605      	mov	r5, r0
100061c8:	780b      	ldrb	r3, [r1, #0]
100061ca:	b91a      	cbnz	r2, 100061d4 <tu_edpt_stream_read_xfer+0x14>
100061cc:	07de      	lsls	r6, r3, #31
100061ce:	d532      	bpl.n	10006236 <tu_edpt_stream_read_xfer+0x76>
100061d0:	2000      	movs	r0, #0
100061d2:	bdf8      	pop	{r3, r4, r5, r6, r7, pc}
100061d4:	f101 0708 	add.w	r7, r1, #8
100061d8:	f013 0f02 	tst.w	r3, #2
100061dc:	4638      	mov	r0, r7
100061de:	bf0c      	ite	eq
100061e0:	2640      	moveq	r6, #64	@ 0x40
100061e2:	f44f 7600 	movne.w	r6, #512	@ 0x200
100061e6:	f000 f90f 	bl	10006408 <tu_fifo_remaining>
100061ea:	4286      	cmp	r6, r0
100061ec:	d8f0      	bhi.n	100061d0 <tu_edpt_stream_read_xfer+0x10>
100061ee:	7823      	ldrb	r3, [r4, #0]
100061f0:	07da      	lsls	r2, r3, #31
100061f2:	d4ed      	bmi.n	100061d0 <tu_edpt_stream_read_xfer+0x10>
100061f4:	4628      	mov	r0, r5
100061f6:	7861      	ldrb	r1, [r4, #1]
100061f8:	f7ff f97a 	bl	100054f0 <usbd_edpt_claim>
100061fc:	2800      	cmp	r0, #0
100061fe:	d0e7      	beq.n	100061d0 <tu_edpt_stream_read_xfer+0x10>
10006200:	4638      	mov	r0, r7
10006202:	f000 f901 	bl	10006408 <tu_fifo_remaining>
10006206:	7823      	ldrb	r3, [r4, #0]
10006208:	4286      	cmp	r6, r0
1000620a:	f003 0301 	and.w	r3, r3, #1
1000620e:	d82f      	bhi.n	10006270 <tu_edpt_stream_read_xfer+0xb0>
10006210:	b9cb      	cbnz	r3, 10006246 <tu_edpt_stream_read_xfer+0x86>
10006212:	4276      	negs	r6, r6
10006214:	8863      	ldrh	r3, [r4, #2]
10006216:	4030      	ands	r0, r6
10006218:	b280      	uxth	r0, r0
1000621a:	4298      	cmp	r0, r3
1000621c:	bf28      	it	cs
1000621e:	4618      	movcs	r0, r3
10006220:	7861      	ldrb	r1, [r4, #1]
10006222:	4606      	mov	r6, r0
10006224:	b358      	cbz	r0, 1000627e <tu_edpt_stream_read_xfer+0xbe>
10006226:	6862      	ldr	r2, [r4, #4]
10006228:	4633      	mov	r3, r6
1000622a:	4628      	mov	r0, r5
1000622c:	f7ff f984 	bl	10005538 <usbd_edpt_xfer>
10006230:	b148      	cbz	r0, 10006246 <tu_edpt_stream_read_xfer+0x86>
10006232:	4630      	mov	r0, r6
10006234:	bdf8      	pop	{r3, r4, r5, r6, r7, pc}
10006236:	7849      	ldrb	r1, [r1, #1]
10006238:	f7ff f95a 	bl	100054f0 <usbd_edpt_claim>
1000623c:	2800      	cmp	r0, #0
1000623e:	d0c7      	beq.n	100061d0 <tu_edpt_stream_read_xfer+0x10>
10006240:	7823      	ldrb	r3, [r4, #0]
10006242:	07d9      	lsls	r1, r3, #31
10006244:	d507      	bpl.n	10006256 <tu_edpt_stream_read_xfer+0x96>
10006246:	f04f 23e0 	mov.w	r3, #3758153728	@ 0xe000e000
1000624a:	f8d3 3df0 	ldr.w	r3, [r3, #3568]	@ 0xdf0
1000624e:	07db      	lsls	r3, r3, #31
10006250:	d5be      	bpl.n	100061d0 <tu_edpt_stream_read_xfer+0x10>
10006252:	be00      	bkpt	0x0000
10006254:	e7bc      	b.n	100061d0 <tu_edpt_stream_read_xfer+0x10>
10006256:	8863      	ldrh	r3, [r4, #2]
10006258:	7861      	ldrb	r1, [r4, #1]
1000625a:	b13b      	cbz	r3, 1000626c <tu_edpt_stream_read_xfer+0xac>
1000625c:	6862      	ldr	r2, [r4, #4]
1000625e:	4628      	mov	r0, r5
10006260:	f7ff f96a 	bl	10005538 <usbd_edpt_xfer>
10006264:	2800      	cmp	r0, #0
10006266:	d0ee      	beq.n	10006246 <tu_edpt_stream_read_xfer+0x86>
10006268:	8860      	ldrh	r0, [r4, #2]
1000626a:	bdf8      	pop	{r3, r4, r5, r6, r7, pc}
1000626c:	461a      	mov	r2, r3
1000626e:	e7f6      	b.n	1000625e <tu_edpt_stream_read_xfer+0x9e>
10006270:	2b00      	cmp	r3, #0
10006272:	d1ad      	bne.n	100061d0 <tu_edpt_stream_read_xfer+0x10>
10006274:	4628      	mov	r0, r5
10006276:	7861      	ldrb	r1, [r4, #1]
10006278:	f7ff f94c 	bl	10005514 <usbd_edpt_release>
1000627c:	e7a8      	b.n	100061d0 <tu_edpt_stream_read_xfer+0x10>
1000627e:	4602      	mov	r2, r0
10006280:	e7d2      	b.n	10006228 <tu_edpt_stream_read_xfer+0x68>
10006282:	bf00      	nop

10006284 <_tu_fifo_peek>:
10006284:	b510      	push	{r4, lr}
10006286:	4686      	mov	lr, r0
10006288:	1ad4      	subs	r4, r2, r3
1000628a:	f8be c004 	ldrh.w	ip, [lr, #4]
1000628e:	b2a4      	uxth	r4, r4
10006290:	429a      	cmp	r2, r3
10006292:	bf3c      	itt	cc
10006294:	eb04 044c 	addcc.w	r4, r4, ip, lsl #1
10006298:	b2a4      	uxthcc	r4, r4
1000629a:	4608      	mov	r0, r1
1000629c:	b1e4      	cbz	r4, 100062d8 <_tu_fifo_peek+0x54>
1000629e:	45a4      	cmp	ip, r4
100062a0:	d20c      	bcs.n	100062bc <_tu_fifo_peek+0x38>
100062a2:	4594      	cmp	ip, r2
100062a4:	bf94      	ite	ls
100062a6:	eba2 020c 	subls.w	r2, r2, ip
100062aa:	4462      	addhi	r2, ip
100062ac:	b293      	uxth	r3, r2
100062ae:	459c      	cmp	ip, r3
100062b0:	f8ae 300a 	strh.w	r3, [lr, #10]
100062b4:	d804      	bhi.n	100062c0 <_tu_fifo_peek+0x3c>
100062b6:	eba3 030c 	sub.w	r3, r3, ip
100062ba:	b29b      	uxth	r3, r3
100062bc:	459c      	cmp	ip, r3
100062be:	d9fa      	bls.n	100062b6 <_tu_fifo_peek+0x32>
100062c0:	f8be 2006 	ldrh.w	r2, [lr, #6]
100062c4:	f8de 1000 	ldr.w	r1, [lr]
100062c8:	f3c2 020e 	ubfx	r2, r2, #0, #15
100062cc:	fb02 1103 	mla	r1, r2, r3, r1
100062d0:	f001 fa8e 	bl	100077f0 <memcpy>
100062d4:	2001      	movs	r0, #1
100062d6:	bd10      	pop	{r4, pc}
100062d8:	4620      	mov	r0, r4
100062da:	bd10      	pop	{r4, pc}

100062dc <_tu_fifo_peek_n.constprop.0>:
100062dc:	e92d 47f0 	stmdb	sp!, {r4, r5, r6, r7, r8, r9, sl, lr}
100062e0:	f8bd 4020 	ldrh.w	r4, [sp, #32]
100062e4:	8885      	ldrh	r5, [r0, #4]
100062e6:	1b1e      	subs	r6, r3, r4
100062e8:	b2b6      	uxth	r6, r6
100062ea:	42a3      	cmp	r3, r4
100062ec:	bf3c      	itt	cc
100062ee:	eb06 0645 	addcc.w	r6, r6, r5, lsl #1
100062f2:	b2b6      	uxthcc	r6, r6
100062f4:	4607      	mov	r7, r0
100062f6:	4688      	mov	r8, r1
100062f8:	b1de      	cbz	r6, 10006332 <_tu_fifo_peek_n.constprop.0+0x56>
100062fa:	42b5      	cmp	r5, r6
100062fc:	d331      	bcc.n	10006362 <_tu_fifo_peek_n.constprop.0+0x86>
100062fe:	4296      	cmp	r6, r2
10006300:	bf28      	it	cs
10006302:	4616      	movcs	r6, r2
10006304:	42a5      	cmp	r5, r4
10006306:	d803      	bhi.n	10006310 <_tu_fifo_peek_n.constprop.0+0x34>
10006308:	1b64      	subs	r4, r4, r5
1000630a:	b2a4      	uxth	r4, r4
1000630c:	42a5      	cmp	r5, r4
1000630e:	d9fb      	bls.n	10006308 <_tu_fifo_peek_n.constprop.0+0x2c>
10006310:	f8b7 9006 	ldrh.w	r9, [r7, #6]
10006314:	1b2b      	subs	r3, r5, r4
10006316:	6839      	ldr	r1, [r7, #0]
10006318:	b29b      	uxth	r3, r3
1000631a:	f3c9 020e 	ubfx	r2, r9, #0, #15
1000631e:	429e      	cmp	r6, r3
10006320:	4691      	mov	r9, r2
10006322:	fb02 1104 	mla	r1, r2, r4, r1
10006326:	d807      	bhi.n	10006338 <_tu_fifo_peek_n.constprop.0+0x5c>
10006328:	4640      	mov	r0, r8
1000632a:	fb06 f202 	mul.w	r2, r6, r2
1000632e:	f001 fa5f 	bl	100077f0 <memcpy>
10006332:	4630      	mov	r0, r6
10006334:	e8bd 87f0 	ldmia.w	sp!, {r4, r5, r6, r7, r8, r9, sl, pc}
10006338:	fb13 f302 	smulbb	r3, r3, r2
1000633c:	fa1f fa83 	uxth.w	sl, r3
10006340:	4652      	mov	r2, sl
10006342:	4640      	mov	r0, r8
10006344:	f001 fa54 	bl	100077f0 <memcpy>
10006348:	1b73      	subs	r3, r6, r5
1000634a:	18e2      	adds	r2, r4, r3
1000634c:	fb12 f209 	smulbb	r2, r2, r9
10006350:	6839      	ldr	r1, [r7, #0]
10006352:	eb08 000a 	add.w	r0, r8, sl
10006356:	b292      	uxth	r2, r2
10006358:	f001 fa4a 	bl	100077f0 <memcpy>
1000635c:	4630      	mov	r0, r6
1000635e:	e8bd 87f0 	ldmia.w	sp!, {r4, r5, r6, r7, r8, r9, sl, pc}
10006362:	429d      	cmp	r5, r3
10006364:	bf94      	ite	ls
10006366:	1b5b      	subls	r3, r3, r5
10006368:	195b      	addhi	r3, r3, r5
1000636a:	b29c      	uxth	r4, r3
1000636c:	462e      	mov	r6, r5
1000636e:	8144      	strh	r4, [r0, #10]
10006370:	e7c5      	b.n	100062fe <_tu_fifo_peek_n.constprop.0+0x22>
10006372:	bf00      	nop

10006374 <tu_fifo_config>:
10006374:	e92d 41f0 	stmdb	sp!, {r4, r5, r6, r7, r8, lr}
10006378:	f5b2 4f00 	cmp.w	r2, #32768	@ 0x8000
1000637c:	f89d 8018 	ldrb.w	r8, [sp, #24]
10006380:	d824      	bhi.n	100063cc <tu_fifo_config+0x58>
10006382:	4604      	mov	r4, r0
10006384:	68c0      	ldr	r0, [r0, #12]
10006386:	4617      	mov	r7, r2
10006388:	460e      	mov	r6, r1
1000638a:	461d      	mov	r5, r3
1000638c:	b118      	cbz	r0, 10006396 <tu_fifo_config+0x22>
1000638e:	f04f 31ff 	mov.w	r1, #4294967295	@ 0xffffffff
10006392:	f005 fec9 	bl	1000c128 <__mutex_enter_timeout_ms_veneer>
10006396:	6920      	ldr	r0, [r4, #16]
10006398:	b118      	cbz	r0, 100063a2 <tu_fifo_config+0x2e>
1000639a:	f04f 31ff 	mov.w	r1, #4294967295	@ 0xffffffff
1000639e:	f005 fec3 	bl	1000c128 <__mutex_enter_timeout_ms_veneer>
100063a2:	2200      	movs	r2, #0
100063a4:	f3c5 030e 	ubfx	r3, r5, #0, #15
100063a8:	68e0      	ldr	r0, [r4, #12]
100063aa:	ea43 33c8 	orr.w	r3, r3, r8, lsl #15
100063ae:	8162      	strh	r2, [r4, #10]
100063b0:	6026      	str	r6, [r4, #0]
100063b2:	80a7      	strh	r7, [r4, #4]
100063b4:	80e3      	strh	r3, [r4, #6]
100063b6:	8122      	strh	r2, [r4, #8]
100063b8:	b108      	cbz	r0, 100063be <tu_fifo_config+0x4a>
100063ba:	f005 fec5 	bl	1000c148 <__mutex_exit_veneer>
100063be:	6920      	ldr	r0, [r4, #16]
100063c0:	b108      	cbz	r0, 100063c6 <tu_fifo_config+0x52>
100063c2:	f005 fec1 	bl	1000c148 <__mutex_exit_veneer>
100063c6:	2001      	movs	r0, #1
100063c8:	e8bd 81f0 	ldmia.w	sp!, {r4, r5, r6, r7, r8, pc}
100063cc:	2000      	movs	r0, #0
100063ce:	e8bd 81f0 	ldmia.w	sp!, {r4, r5, r6, r7, r8, pc}
100063d2:	bf00      	nop

100063d4 <tu_fifo_count>:
100063d4:	8903      	ldrh	r3, [r0, #8]
100063d6:	8942      	ldrh	r2, [r0, #10]
100063d8:	b29b      	uxth	r3, r3
100063da:	b292      	uxth	r2, r2
100063dc:	8880      	ldrh	r0, [r0, #4]
100063de:	4293      	cmp	r3, r2
100063e0:	bf36      	itet	cc
100063e2:	ebc2 0240 	rsbcc	r2, r2, r0, lsl #1
100063e6:	1a9b      	subcs	r3, r3, r2
100063e8:	189b      	addcc	r3, r3, r2
100063ea:	b29b      	uxth	r3, r3
100063ec:	4298      	cmp	r0, r3
100063ee:	bf28      	it	cs
100063f0:	4618      	movcs	r0, r3
100063f2:	4770      	bx	lr

100063f4 <tu_fifo_empty>:
100063f4:	8902      	ldrh	r2, [r0, #8]
100063f6:	8943      	ldrh	r3, [r0, #10]
100063f8:	b290      	uxth	r0, r2
100063fa:	b29b      	uxth	r3, r3
100063fc:	1ac0      	subs	r0, r0, r3
100063fe:	fab0 f080 	clz	r0, r0
10006402:	0940      	lsrs	r0, r0, #5
10006404:	4770      	bx	lr
10006406:	bf00      	nop

10006408 <tu_fifo_remaining>:
10006408:	8903      	ldrh	r3, [r0, #8]
1000640a:	8942      	ldrh	r2, [r0, #10]
1000640c:	b29b      	uxth	r3, r3
1000640e:	8880      	ldrh	r0, [r0, #4]
10006410:	b292      	uxth	r2, r2
10006412:	4293      	cmp	r3, r2
10006414:	bf36      	itet	cc
10006416:	ebc2 0240 	rsbcc	r2, r2, r0, lsl #1
1000641a:	1a9b      	subcs	r3, r3, r2
1000641c:	189b      	addcc	r3, r3, r2
1000641e:	b29b      	uxth	r3, r3
10006420:	4298      	cmp	r0, r3
10006422:	bf86      	itte	hi
10006424:	1ac0      	subhi	r0, r0, r3
10006426:	b280      	uxthhi	r0, r0
10006428:	2000      	movls	r0, #0
1000642a:	4770      	bx	lr

1000642c <tu_fifo_read>:
1000642c:	b538      	push	{r3, r4, r5, lr}
1000642e:	4604      	mov	r4, r0
10006430:	6900      	ldr	r0, [r0, #16]
10006432:	460d      	mov	r5, r1
10006434:	b118      	cbz	r0, 1000643e <tu_fifo_read+0x12>
10006436:	f04f 31ff 	mov.w	r1, #4294967295	@ 0xffffffff
1000643a:	f005 fe75 	bl	1000c128 <__mutex_enter_timeout_ms_veneer>
1000643e:	8922      	ldrh	r2, [r4, #8]
10006440:	8963      	ldrh	r3, [r4, #10]
10006442:	4629      	mov	r1, r5
10006444:	b29b      	uxth	r3, r3
10006446:	b292      	uxth	r2, r2
10006448:	4620      	mov	r0, r4
1000644a:	f7ff ff1b 	bl	10006284 <_tu_fifo_peek>
1000644e:	8962      	ldrh	r2, [r4, #10]
10006450:	88a1      	ldrh	r1, [r4, #4]
10006452:	b292      	uxth	r2, r2
10006454:	1883      	adds	r3, r0, r2
10006456:	b29b      	uxth	r3, r3
10006458:	429a      	cmp	r2, r3
1000645a:	4605      	mov	r5, r0
1000645c:	ea4f 0241 	mov.w	r2, r1, lsl #1
10006460:	d809      	bhi.n	10006476 <tu_fifo_read+0x4a>
10006462:	ebb3 0f41 	cmp.w	r3, r1, lsl #1
10006466:	da06      	bge.n	10006476 <tu_fifo_read+0x4a>
10006468:	6920      	ldr	r0, [r4, #16]
1000646a:	8163      	strh	r3, [r4, #10]
1000646c:	b108      	cbz	r0, 10006472 <tu_fifo_read+0x46>
1000646e:	f005 fe6b 	bl	1000c148 <__mutex_exit_veneer>
10006472:	4628      	mov	r0, r5
10006474:	bd38      	pop	{r3, r4, r5, pc}
10006476:	1a9b      	subs	r3, r3, r2
10006478:	b29b      	uxth	r3, r3
1000647a:	e7f5      	b.n	10006468 <tu_fifo_read+0x3c>

1000647c <tu_fifo_read_n>:
1000647c:	b570      	push	{r4, r5, r6, lr}
1000647e:	4604      	mov	r4, r0
10006480:	6900      	ldr	r0, [r0, #16]
10006482:	460d      	mov	r5, r1
10006484:	4616      	mov	r6, r2
10006486:	b082      	sub	sp, #8
10006488:	b118      	cbz	r0, 10006492 <tu_fifo_read_n+0x16>
1000648a:	f04f 31ff 	mov.w	r1, #4294967295	@ 0xffffffff
1000648e:	f005 fe4b 	bl	1000c128 <__mutex_enter_timeout_ms_veneer>
10006492:	8923      	ldrh	r3, [r4, #8]
10006494:	8960      	ldrh	r0, [r4, #10]
10006496:	4629      	mov	r1, r5
10006498:	b280      	uxth	r0, r0
1000649a:	4632      	mov	r2, r6
1000649c:	9000      	str	r0, [sp, #0]
1000649e:	b29b      	uxth	r3, r3
100064a0:	4620      	mov	r0, r4
100064a2:	f7ff ff1b 	bl	100062dc <_tu_fifo_peek_n.constprop.0>
100064a6:	8962      	ldrh	r2, [r4, #10]
100064a8:	88a1      	ldrh	r1, [r4, #4]
100064aa:	b292      	uxth	r2, r2
100064ac:	1883      	adds	r3, r0, r2
100064ae:	b29b      	uxth	r3, r3
100064b0:	429a      	cmp	r2, r3
100064b2:	4605      	mov	r5, r0
100064b4:	ea4f 0241 	mov.w	r2, r1, lsl #1
100064b8:	d80a      	bhi.n	100064d0 <tu_fifo_read_n+0x54>
100064ba:	ebb3 0f41 	cmp.w	r3, r1, lsl #1
100064be:	da07      	bge.n	100064d0 <tu_fifo_read_n+0x54>
100064c0:	6920      	ldr	r0, [r4, #16]
100064c2:	8163      	strh	r3, [r4, #10]
100064c4:	b108      	cbz	r0, 100064ca <tu_fifo_read_n+0x4e>
100064c6:	f005 fe3f 	bl	1000c148 <__mutex_exit_veneer>
100064ca:	4628      	mov	r0, r5
100064cc:	b002      	add	sp, #8
100064ce:	bd70      	pop	{r4, r5, r6, pc}
100064d0:	1a9b      	subs	r3, r3, r2
100064d2:	b29b      	uxth	r3, r3
100064d4:	e7f4      	b.n	100064c0 <tu_fifo_read_n+0x44>
100064d6:	bf00      	nop

100064d8 <tu_fifo_write>:
100064d8:	b5f8      	push	{r3, r4, r5, r6, r7, lr}
100064da:	4604      	mov	r4, r0
100064dc:	68c0      	ldr	r0, [r0, #12]
100064de:	460e      	mov	r6, r1
100064e0:	b118      	cbz	r0, 100064ea <tu_fifo_write+0x12>
100064e2:	f04f 31ff 	mov.w	r1, #4294967295	@ 0xffffffff
100064e6:	f005 fe1f 	bl	1000c128 <__mutex_enter_timeout_ms_veneer>
100064ea:	8925      	ldrh	r5, [r4, #8]
100064ec:	8923      	ldrh	r3, [r4, #8]
100064ee:	8961      	ldrh	r1, [r4, #10]
100064f0:	b29b      	uxth	r3, r3
100064f2:	b289      	uxth	r1, r1
100064f4:	88a2      	ldrh	r2, [r4, #4]
100064f6:	428b      	cmp	r3, r1
100064f8:	bf36      	itet	cc
100064fa:	ebc1 0142 	rsbcc	r1, r1, r2, lsl #1
100064fe:	1a5b      	subcs	r3, r3, r1
10006500:	185b      	addcc	r3, r3, r1
10006502:	b29b      	uxth	r3, r3
10006504:	429a      	cmp	r2, r3
10006506:	b2ad      	uxth	r5, r5
10006508:	d808      	bhi.n	1000651c <tu_fifo_write+0x44>
1000650a:	79e7      	ldrb	r7, [r4, #7]
1000650c:	09ff      	lsrs	r7, r7, #7
1000650e:	d105      	bne.n	1000651c <tu_fifo_write+0x44>
10006510:	68e0      	ldr	r0, [r4, #12]
10006512:	b108      	cbz	r0, 10006518 <tu_fifo_write+0x40>
10006514:	f005 fe18 	bl	1000c148 <__mutex_exit_veneer>
10006518:	4638      	mov	r0, r7
1000651a:	bdf8      	pop	{r3, r4, r5, r6, r7, pc}
1000651c:	4295      	cmp	r5, r2
1000651e:	bf28      	it	cs
10006520:	462b      	movcs	r3, r5
10006522:	d318      	bcc.n	10006556 <tu_fifo_write+0x7e>
10006524:	1a9b      	subs	r3, r3, r2
10006526:	b29b      	uxth	r3, r3
10006528:	4293      	cmp	r3, r2
1000652a:	d2fb      	bcs.n	10006524 <tu_fifo_write+0x4c>
1000652c:	88e2      	ldrh	r2, [r4, #6]
1000652e:	6820      	ldr	r0, [r4, #0]
10006530:	f3c2 020e 	ubfx	r2, r2, #0, #15
10006534:	fb02 0003 	mla	r0, r2, r3, r0
10006538:	4631      	mov	r1, r6
1000653a:	f001 f959 	bl	100077f0 <memcpy>
1000653e:	1c6b      	adds	r3, r5, #1
10006540:	b29b      	uxth	r3, r3
10006542:	429d      	cmp	r5, r3
10006544:	88a2      	ldrh	r2, [r4, #4]
10006546:	d912      	bls.n	1000656e <tu_fifo_write+0x96>
10006548:	2300      	movs	r3, #0
1000654a:	0051      	lsls	r1, r2, #1
1000654c:	1a5b      	subs	r3, r3, r1
1000654e:	b29b      	uxth	r3, r3
10006550:	2701      	movs	r7, #1
10006552:	8123      	strh	r3, [r4, #8]
10006554:	e7dc      	b.n	10006510 <tu_fifo_write+0x38>
10006556:	88e2      	ldrh	r2, [r4, #6]
10006558:	6820      	ldr	r0, [r4, #0]
1000655a:	f3c2 020e 	ubfx	r2, r2, #0, #15
1000655e:	fb05 0002 	mla	r0, r5, r2, r0
10006562:	4631      	mov	r1, r6
10006564:	f001 f944 	bl	100077f0 <memcpy>
10006568:	3501      	adds	r5, #1
1000656a:	88a2      	ldrh	r2, [r4, #4]
1000656c:	b2ab      	uxth	r3, r5
1000656e:	ebb3 0f42 	cmp.w	r3, r2, lsl #1
10006572:	ea4f 0142 	mov.w	r1, r2, lsl #1
10006576:	dbeb      	blt.n	10006550 <tu_fifo_write+0x78>
10006578:	e7e8      	b.n	1000654c <tu_fifo_write+0x74>
1000657a:	bf00      	nop

1000657c <tu_fifo_write_n>:
1000657c:	e92d 4ff0 	stmdb	sp!, {r4, r5, r6, r7, r8, r9, sl, fp, lr}
10006580:	4617      	mov	r7, r2
10006582:	b083      	sub	sp, #12
10006584:	2a00      	cmp	r2, #0
10006586:	d075      	beq.n	10006674 <tu_fifo_write_n+0xf8>
10006588:	4606      	mov	r6, r0
1000658a:	68c0      	ldr	r0, [r0, #12]
1000658c:	4689      	mov	r9, r1
1000658e:	b118      	cbz	r0, 10006598 <tu_fifo_write_n+0x1c>
10006590:	f04f 31ff 	mov.w	r1, #4294967295	@ 0xffffffff
10006594:	f005 fdc8 	bl	1000c128 <__mutex_enter_timeout_ms_veneer>
10006598:	79f3      	ldrb	r3, [r6, #7]
1000659a:	f8b6 8008 	ldrh.w	r8, [r6, #8]
1000659e:	8972      	ldrh	r2, [r6, #10]
100065a0:	09db      	lsrs	r3, r3, #7
100065a2:	88b5      	ldrh	r5, [r6, #4]
100065a4:	fa1f f888 	uxth.w	r8, r8
100065a8:	b292      	uxth	r2, r2
100065aa:	d13d      	bne.n	10006628 <tu_fifo_write_n+0xac>
100065ac:	4590      	cmp	r8, r2
100065ae:	bf36      	itet	cc
100065b0:	ebc2 0245 	rsbcc	r2, r2, r5, lsl #1
100065b4:	eba8 0202 	subcs.w	r2, r8, r2
100065b8:	4442      	addcc	r2, r8
100065ba:	b292      	uxth	r2, r2
100065bc:	42aa      	cmp	r2, r5
100065be:	d25e      	bcs.n	1000667e <tu_fifo_write_n+0x102>
100065c0:	1aaa      	subs	r2, r5, r2
100065c2:	b292      	uxth	r2, r2
100065c4:	42ba      	cmp	r2, r7
100065c6:	bf28      	it	cs
100065c8:	463a      	movcs	r2, r7
100065ca:	b297      	uxth	r7, r2
100065cc:	eba7 0b05 	sub.w	fp, r7, r5
100065d0:	eb08 0a07 	add.w	sl, r8, r7
100065d4:	88f3      	ldrh	r3, [r6, #6]
100065d6:	fa1f fb8b 	uxth.w	fp, fp
100065da:	fa1f fa8a 	uxth.w	sl, sl
100065de:	45a8      	cmp	r8, r5
100065e0:	4644      	mov	r4, r8
100065e2:	d303      	bcc.n	100065ec <tu_fifo_write_n+0x70>
100065e4:	1b64      	subs	r4, r4, r5
100065e6:	b2a4      	uxth	r4, r4
100065e8:	42ac      	cmp	r4, r5
100065ea:	d2fb      	bcs.n	100065e4 <tu_fifo_write_n+0x68>
100065ec:	1b2d      	subs	r5, r5, r4
100065ee:	6830      	ldr	r0, [r6, #0]
100065f0:	b2ad      	uxth	r5, r5
100065f2:	f3c3 020e 	ubfx	r2, r3, #0, #15
100065f6:	42bd      	cmp	r5, r7
100065f8:	fb02 0004 	mla	r0, r2, r4, r0
100065fc:	d35a      	bcc.n	100066b4 <tu_fifo_write_n+0x138>
100065fe:	4649      	mov	r1, r9
10006600:	fb07 f202 	mul.w	r2, r7, r2
10006604:	f001 f8f4 	bl	100077f0 <memcpy>
10006608:	88b2      	ldrh	r2, [r6, #4]
1000660a:	45d0      	cmp	r8, sl
1000660c:	ea4f 0342 	mov.w	r3, r2, lsl #1
10006610:	d802      	bhi.n	10006618 <tu_fifo_write_n+0x9c>
10006612:	ebba 0f42 	cmp.w	sl, r2, lsl #1
10006616:	db03      	blt.n	10006620 <tu_fifo_write_n+0xa4>
10006618:	ebaa 0303 	sub.w	r3, sl, r3
1000661c:	fa1f fa83 	uxth.w	sl, r3
10006620:	463d      	mov	r5, r7
10006622:	f8a6 a008 	strh.w	sl, [r6, #8]
10006626:	e02b      	b.n	10006680 <tu_fifo_write_n+0x104>
10006628:	42af      	cmp	r7, r5
1000662a:	d232      	bcs.n	10006692 <tu_fifo_write_n+0x116>
1000662c:	4590      	cmp	r8, r2
1000662e:	bf36      	itet	cc
10006630:	ebc2 0345 	rsbcc	r3, r2, r5, lsl #1
10006634:	eba8 0302 	subcs.w	r3, r8, r2
10006638:	4443      	addcc	r3, r8
1000663a:	b29b      	uxth	r3, r3
1000663c:	0069      	lsls	r1, r5, #1
1000663e:	443b      	add	r3, r7
10006640:	eba7 0b05 	sub.w	fp, r7, r5
10006644:	428b      	cmp	r3, r1
10006646:	fa1f fb8b 	uxth.w	fp, fp
1000664a:	db0d      	blt.n	10006668 <tu_fifo_write_n+0xec>
1000664c:	eb02 0a05 	add.w	sl, r2, r5
10006650:	fa1f fa8a 	uxth.w	sl, sl
10006654:	ebaa 0807 	sub.w	r8, sl, r7
10006658:	fa1f f888 	uxth.w	r8, r8
1000665c:	4542      	cmp	r2, r8
1000665e:	d93c      	bls.n	100066da <tu_fifo_write_n+0x15e>
10006660:	eba8 0101 	sub.w	r1, r8, r1
10006664:	fa1f f881 	uxth.w	r8, r1
10006668:	eb07 0a08 	add.w	sl, r7, r8
1000666c:	fa1f fa8a 	uxth.w	sl, sl
10006670:	88f3      	ldrh	r3, [r6, #6]
10006672:	e7b4      	b.n	100065de <tu_fifo_write_n+0x62>
10006674:	4615      	mov	r5, r2
10006676:	4628      	mov	r0, r5
10006678:	b003      	add	sp, #12
1000667a:	e8bd 8ff0 	ldmia.w	sp!, {r4, r5, r6, r7, r8, r9, sl, fp, pc}
1000667e:	2500      	movs	r5, #0
10006680:	68f0      	ldr	r0, [r6, #12]
10006682:	2800      	cmp	r0, #0
10006684:	d0f7      	beq.n	10006676 <tu_fifo_write_n+0xfa>
10006686:	f005 fd5f 	bl	1000c148 <__mutex_exit_veneer>
1000668a:	4628      	mov	r0, r5
1000668c:	b003      	add	sp, #12
1000668e:	e8bd 8ff0 	ldmia.w	sp!, {r4, r5, r6, r7, r8, r9, sl, fp, pc}
10006692:	2d00      	cmp	r5, #0
10006694:	d0f4      	beq.n	10006680 <tu_fifo_write_n+0x104>
10006696:	88f3      	ldrh	r3, [r6, #6]
10006698:	1b7f      	subs	r7, r7, r5
1000669a:	eb02 0a05 	add.w	sl, r2, r5
1000669e:	4690      	mov	r8, r2
100066a0:	f3c3 020e 	ubfx	r2, r3, #0, #15
100066a4:	fb02 9907 	mla	r9, r2, r7, r9
100066a8:	f04f 0b00 	mov.w	fp, #0
100066ac:	462f      	mov	r7, r5
100066ae:	fa1f fa8a 	uxth.w	sl, sl
100066b2:	e794      	b.n	100065de <tu_fifo_write_n+0x62>
100066b4:	fb15 f502 	smulbb	r5, r5, r2
100066b8:	b2ad      	uxth	r5, r5
100066ba:	4649      	mov	r1, r9
100066bc:	9201      	str	r2, [sp, #4]
100066be:	462a      	mov	r2, r5
100066c0:	f001 f896 	bl	100077f0 <memcpy>
100066c4:	9b01      	ldr	r3, [sp, #4]
100066c6:	445c      	add	r4, fp
100066c8:	fb14 f403 	smulbb	r4, r4, r3
100066cc:	6830      	ldr	r0, [r6, #0]
100066ce:	eb09 0105 	add.w	r1, r9, r5
100066d2:	b2a2      	uxth	r2, r4
100066d4:	f001 f88c 	bl	100077f0 <memcpy>
100066d8:	e796      	b.n	10006608 <tu_fifo_write_n+0x8c>
100066da:	4541      	cmp	r1, r8
100066dc:	ddc0      	ble.n	10006660 <tu_fifo_write_n+0xe4>
100066de:	e7c7      	b.n	10006670 <tu_fifo_write_n+0xf4>

100066e0 <tu_fifo_clear>:
100066e0:	b510      	push	{r4, lr}
100066e2:	4604      	mov	r4, r0
100066e4:	68c0      	ldr	r0, [r0, #12]
100066e6:	b118      	cbz	r0, 100066f0 <tu_fifo_clear+0x10>
100066e8:	f04f 31ff 	mov.w	r1, #4294967295	@ 0xffffffff
100066ec:	f005 fd1c 	bl	1000c128 <__mutex_enter_timeout_ms_veneer>
100066f0:	6920      	ldr	r0, [r4, #16]
100066f2:	b118      	cbz	r0, 100066fc <tu_fifo_clear+0x1c>
100066f4:	f04f 31ff 	mov.w	r1, #4294967295	@ 0xffffffff
100066f8:	f005 fd16 	bl	1000c128 <__mutex_enter_timeout_ms_veneer>
100066fc:	2300      	movs	r3, #0
100066fe:	68e0      	ldr	r0, [r4, #12]
10006700:	8163      	strh	r3, [r4, #10]
10006702:	8123      	strh	r3, [r4, #8]
10006704:	b108      	cbz	r0, 1000670a <tu_fifo_clear+0x2a>
10006706:	f005 fd1f 	bl	1000c148 <__mutex_exit_veneer>
1000670a:	6920      	ldr	r0, [r4, #16]
1000670c:	b108      	cbz	r0, 10006712 <tu_fifo_clear+0x32>
1000670e:	f005 fd1b 	bl	1000c148 <__mutex_exit_veneer>
10006712:	2001      	movs	r0, #1
10006714:	bd10      	pop	{r4, pc}
10006716:	bf00      	nop

10006718 <tu_fifo_set_overwritable>:
10006718:	b538      	push	{r3, r4, r5, lr}
1000671a:	4604      	mov	r4, r0
1000671c:	68c0      	ldr	r0, [r0, #12]
1000671e:	460d      	mov	r5, r1
10006720:	b118      	cbz	r0, 1000672a <tu_fifo_set_overwritable+0x12>
10006722:	f04f 31ff 	mov.w	r1, #4294967295	@ 0xffffffff
10006726:	f005 fcff 	bl	1000c128 <__mutex_enter_timeout_ms_veneer>
1000672a:	6920      	ldr	r0, [r4, #16]
1000672c:	b118      	cbz	r0, 10006736 <tu_fifo_set_overwritable+0x1e>
1000672e:	f04f 31ff 	mov.w	r1, #4294967295	@ 0xffffffff
10006732:	f005 fcf9 	bl	1000c128 <__mutex_enter_timeout_ms_veneer>
10006736:	79e3      	ldrb	r3, [r4, #7]
10006738:	68e0      	ldr	r0, [r4, #12]
1000673a:	f365 13c7 	bfi	r3, r5, #7, #1
1000673e:	71e3      	strb	r3, [r4, #7]
10006740:	b108      	cbz	r0, 10006746 <tu_fifo_set_overwritable+0x2e>
10006742:	f005 fd01 	bl	1000c148 <__mutex_exit_veneer>
10006746:	6920      	ldr	r0, [r4, #16]
10006748:	b108      	cbz	r0, 1000674e <tu_fifo_set_overwritable+0x36>
1000674a:	f005 fcfd 	bl	1000c148 <__mutex_exit_veneer>
1000674e:	2001      	movs	r0, #1
10006750:	bd38      	pop	{r3, r4, r5, pc}
10006752:	bf00      	nop

10006754 <spi_set_baudrate>:
10006754:	e92d 47f0 	stmdb	sp!, {r4, r5, r6, r7, r8, r9, sl, lr}
10006758:	4606      	mov	r6, r0
1000675a:	f04f 0902 	mov.w	r9, #2
1000675e:	2006      	movs	r0, #6
10006760:	460d      	mov	r5, r1
10006762:	f7fb fbd1 	bl	10001f08 <clock_get_hz>
10006766:	4631      	mov	r1, r6
10006768:	464c      	mov	r4, r9
1000676a:	f851 7f04 	ldr.w	r7, [r1, #4]!
1000676e:	4686      	mov	lr, r0
10006770:	ea4f 5cd5 	mov.w	ip, r5, lsr #23
10006774:	0268      	lsls	r0, r5, #9
10006776:	f501 5a40 	add.w	sl, r1, #12288	@ 0x3000
1000677a:	f04f 0800 	mov.w	r8, #0
1000677e:	4603      	mov	r3, r0
10006780:	4662      	mov	r2, ip
10006782:	4027      	ands	r7, r4
10006784:	f8ca 9000 	str.w	r9, [sl]
10006788:	e007      	b.n	1000679a <spi_set_baudrate+0x46>
1000678a:	181b      	adds	r3, r3, r0
1000678c:	f104 0402 	add.w	r4, r4, #2
10006790:	eb42 020c 	adc.w	r2, r2, ip
10006794:	f5b4 7f80 	cmp.w	r4, #256	@ 0x100
10006798:	d003      	beq.n	100067a2 <spi_set_baudrate+0x4e>
1000679a:	459e      	cmp	lr, r3
1000679c:	eb78 0902 	sbcs.w	r9, r8, r2
100067a0:	d2f3      	bcs.n	1000678a <spi_set_baudrate+0x36>
100067a2:	f44f 7380 	mov.w	r3, #256	@ 0x100
100067a6:	ebc4 2204 	rsb	r2, r4, r4, lsl #8
100067aa:	e001      	b.n	100067b0 <spi_set_baudrate+0x5c>
100067ac:	2b01      	cmp	r3, #1
100067ae:	d01a      	beq.n	100067e6 <spi_set_baudrate+0x92>
100067b0:	fbbe fcf2 	udiv	ip, lr, r2
100067b4:	45ac      	cmp	ip, r5
100067b6:	4618      	mov	r0, r3
100067b8:	eba2 0204 	sub.w	r2, r2, r4
100067bc:	f103 33ff 	add.w	r3, r3, #4294967295	@ 0xffffffff
100067c0:	d9f4      	bls.n	100067ac <spi_set_baudrate+0x58>
100067c2:	fb04 f000 	mul.w	r0, r4, r0
100067c6:	021b      	lsls	r3, r3, #8
100067c8:	6134      	str	r4, [r6, #16]
100067ca:	6832      	ldr	r2, [r6, #0]
100067cc:	f501 5100 	add.w	r1, r1, #8192	@ 0x2000
100067d0:	4053      	eors	r3, r2
100067d2:	f403 437f 	and.w	r3, r3, #65280	@ 0xff00
100067d6:	f506 5680 	add.w	r6, r6, #4096	@ 0x1000
100067da:	6033      	str	r3, [r6, #0]
100067dc:	600f      	str	r7, [r1, #0]
100067de:	fbbe f0f0 	udiv	r0, lr, r0
100067e2:	e8bd 87f0 	ldmia.w	sp!, {r4, r5, r6, r7, r8, r9, sl, pc}
100067e6:	4620      	mov	r0, r4
100067e8:	2300      	movs	r3, #0
100067ea:	e7ed      	b.n	100067c8 <spi_set_baudrate+0x74>

100067ec <spi_init>:
100067ec:	4a17      	ldr	r2, [pc, #92]	@ (1000684c <spi_init+0x60>)
100067ee:	b5f8      	push	{r3, r4, r5, r6, r7, lr}
100067f0:	4290      	cmp	r0, r2
100067f2:	bf14      	ite	ne
100067f4:	f44f 2200 	movne.w	r2, #524288	@ 0x80000
100067f8:	f44f 2280 	moveq.w	r2, #262144	@ 0x40000
100067fc:	4605      	mov	r5, r0
100067fe:	4e14      	ldr	r6, [pc, #80]	@ (10006850 <spi_init+0x64>)
10006800:	4b14      	ldr	r3, [pc, #80]	@ (10006854 <spi_init+0x68>)
10006802:	4c15      	ldr	r4, [pc, #84]	@ (10006858 <spi_init+0x6c>)
10006804:	6032      	str	r2, [r6, #0]
10006806:	601a      	str	r2, [r3, #0]
10006808:	68a3      	ldr	r3, [r4, #8]
1000680a:	ea32 0303 	bics.w	r3, r2, r3
1000680e:	d1fb      	bne.n	10006808 <spi_init+0x1c>
10006810:	4628      	mov	r0, r5
10006812:	f7ff ff9f 	bl	10006754 <spi_set_baudrate>
10006816:	462b      	mov	r3, r5
10006818:	2602      	movs	r6, #2
1000681a:	2703      	movs	r7, #3
1000681c:	f853 4f04 	ldr.w	r4, [r3, #4]!
10006820:	f505 5100 	add.w	r1, r5, #8192	@ 0x2000
10006824:	f503 5240 	add.w	r2, r3, #12288	@ 0x3000
10006828:	6016      	str	r6, [r2, #0]
1000682a:	682a      	ldr	r2, [r5, #0]
1000682c:	f503 5300 	add.w	r3, r3, #8192	@ 0x2000
10006830:	f082 0207 	eor.w	r2, r2, #7
10006834:	f505 5c80 	add.w	ip, r5, #4096	@ 0x1000
10006838:	4034      	ands	r4, r6
1000683a:	f002 02cf 	and.w	r2, r2, #207	@ 0xcf
1000683e:	f8cc 2000 	str.w	r2, [ip]
10006842:	601c      	str	r4, [r3, #0]
10006844:	624f      	str	r7, [r1, #36]	@ 0x24
10006846:	601e      	str	r6, [r3, #0]
10006848:	bdf8      	pop	{r3, r4, r5, r6, r7, pc}
1000684a:	bf00      	nop
1000684c:	40080000 	.word	0x40080000
10006850:	40022000 	.word	0x40022000
10006854:	40023000 	.word	0x40023000
10006858:	40020000 	.word	0x40020000

1000685c <_calloc_r>:
1000685c:	b538      	push	{r3, r4, r5, lr}
1000685e:	fba1 1402 	umull	r1, r4, r1, r2
10006862:	bb34      	cbnz	r4, 100068b2 <_calloc_r+0x56>
10006864:	f000 f842 	bl	100068ec <_malloc_r>
10006868:	4605      	mov	r5, r0
1000686a:	b330      	cbz	r0, 100068ba <_calloc_r+0x5e>
1000686c:	f850 2c04 	ldr.w	r2, [r0, #-4]
10006870:	f022 0203 	bic.w	r2, r2, #3
10006874:	3a04      	subs	r2, #4
10006876:	2a24      	cmp	r2, #36	@ 0x24
10006878:	d80c      	bhi.n	10006894 <_calloc_r+0x38>
1000687a:	2a13      	cmp	r2, #19
1000687c:	d90f      	bls.n	1000689e <_calloc_r+0x42>
1000687e:	2a1b      	cmp	r2, #27
10006880:	e9c0 4400 	strd	r4, r4, [r0]
10006884:	d912      	bls.n	100068ac <_calloc_r+0x50>
10006886:	2a24      	cmp	r2, #36	@ 0x24
10006888:	e9c0 4402 	strd	r4, r4, [r0, #8]
1000688c:	d018      	beq.n	100068c0 <_calloc_r+0x64>
1000688e:	f100 0210 	add.w	r2, r0, #16
10006892:	e005      	b.n	100068a0 <_calloc_r+0x44>
10006894:	4621      	mov	r1, r4
10006896:	f000 fe1b 	bl	100074d0 <memset>
1000689a:	4628      	mov	r0, r5
1000689c:	bd38      	pop	{r3, r4, r5, pc}
1000689e:	4602      	mov	r2, r0
100068a0:	2300      	movs	r3, #0
100068a2:	4628      	mov	r0, r5
100068a4:	e9c2 3300 	strd	r3, r3, [r2]
100068a8:	6093      	str	r3, [r2, #8]
100068aa:	bd38      	pop	{r3, r4, r5, pc}
100068ac:	f100 0208 	add.w	r2, r0, #8
100068b0:	e7f6      	b.n	100068a0 <_calloc_r+0x44>
100068b2:	f000 fea7 	bl	10007604 <__errno>
100068b6:	230c      	movs	r3, #12
100068b8:	6003      	str	r3, [r0, #0]
100068ba:	2500      	movs	r5, #0
100068bc:	4628      	mov	r0, r5
100068be:	bd38      	pop	{r3, r4, r5, pc}
100068c0:	f100 0218 	add.w	r2, r0, #24
100068c4:	e9c0 4404 	strd	r4, r4, [r0, #16]
100068c8:	e7ea      	b.n	100068a0 <_calloc_r+0x44>
100068ca:	bf00      	nop

100068cc <malloc>:
100068cc:	4b02      	ldr	r3, [pc, #8]	@ (100068d8 <malloc+0xc>)
100068ce:	4601      	mov	r1, r0
100068d0:	6818      	ldr	r0, [r3, #0]
100068d2:	f000 b80b 	b.w	100068ec <_malloc_r>
100068d6:	bf00      	nop
100068d8:	200012d8 	.word	0x200012d8

100068dc <free>:
100068dc:	4b02      	ldr	r3, [pc, #8]	@ (100068e8 <free+0xc>)
100068de:	4601      	mov	r1, r0
100068e0:	6818      	ldr	r0, [r3, #0]
100068e2:	f001 b885 	b.w	100079f0 <_free_r>
100068e6:	bf00      	nop
100068e8:	200012d8 	.word	0x200012d8

100068ec <_malloc_r>:
100068ec:	f101 030b 	add.w	r3, r1, #11
100068f0:	2b16      	cmp	r3, #22
100068f2:	e92d 4ff0 	stmdb	sp!, {r4, r5, r6, r7, r8, r9, sl, fp, lr}
100068f6:	4607      	mov	r7, r0
100068f8:	b083      	sub	sp, #12
100068fa:	d823      	bhi.n	10006944 <_malloc_r+0x58>
100068fc:	2910      	cmp	r1, #16
100068fe:	f200 80af 	bhi.w	10006a60 <_malloc_r+0x174>
10006902:	f000 faaf 	bl	10006e64 <__malloc_lock>
10006906:	2510      	movs	r5, #16
10006908:	2318      	movs	r3, #24
1000690a:	2002      	movs	r0, #2
1000690c:	4eba      	ldr	r6, [pc, #744]	@ (10006bf8 <_malloc_r+0x30c>)
1000690e:	4433      	add	r3, r6
10006910:	685c      	ldr	r4, [r3, #4]
10006912:	f1a3 0208 	sub.w	r2, r3, #8
10006916:	4294      	cmp	r4, r2
10006918:	f000 8156 	beq.w	10006bc8 <_malloc_r+0x2dc>
1000691c:	6863      	ldr	r3, [r4, #4]
1000691e:	4638      	mov	r0, r7
10006920:	f023 0303 	bic.w	r3, r3, #3
10006924:	e9d4 1202 	ldrd	r1, r2, [r4, #8]
10006928:	4423      	add	r3, r4
1000692a:	60ca      	str	r2, [r1, #12]
1000692c:	6091      	str	r1, [r2, #8]
1000692e:	685a      	ldr	r2, [r3, #4]
10006930:	3408      	adds	r4, #8
10006932:	f042 0201 	orr.w	r2, r2, #1
10006936:	605a      	str	r2, [r3, #4]
10006938:	f000 fa9a 	bl	10006e70 <__malloc_unlock>
1000693c:	4620      	mov	r0, r4
1000693e:	b003      	add	sp, #12
10006940:	e8bd 8ff0 	ldmia.w	sp!, {r4, r5, r6, r7, r8, r9, sl, fp, pc}
10006944:	2b00      	cmp	r3, #0
10006946:	f023 0507 	bic.w	r5, r3, #7
1000694a:	f2c0 8089 	blt.w	10006a60 <_malloc_r+0x174>
1000694e:	42a9      	cmp	r1, r5
10006950:	f200 8086 	bhi.w	10006a60 <_malloc_r+0x174>
10006954:	f000 fa86 	bl	10006e64 <__malloc_lock>
10006958:	f5b5 7ffc 	cmp.w	r5, #504	@ 0x1f8
1000695c:	f0c0 827b 	bcc.w	10006e56 <_malloc_r+0x56a>
10006960:	0a6b      	lsrs	r3, r5, #9
10006962:	f000 8084 	beq.w	10006a6e <_malloc_r+0x182>
10006966:	2b04      	cmp	r3, #4
10006968:	f200 8162 	bhi.w	10006c30 <_malloc_r+0x344>
1000696c:	09ab      	lsrs	r3, r5, #6
1000696e:	f103 0039 	add.w	r0, r3, #57	@ 0x39
10006972:	f103 0e38 	add.w	lr, r3, #56	@ 0x38
10006976:	00c3      	lsls	r3, r0, #3
10006978:	4e9f      	ldr	r6, [pc, #636]	@ (10006bf8 <_malloc_r+0x30c>)
1000697a:	4433      	add	r3, r6
1000697c:	f1a3 0c08 	sub.w	ip, r3, #8
10006980:	685c      	ldr	r4, [r3, #4]
10006982:	45a4      	cmp	ip, r4
10006984:	d107      	bne.n	10006996 <_malloc_r+0xaa>
10006986:	e00d      	b.n	100069a4 <_malloc_r+0xb8>
10006988:	2a00      	cmp	r2, #0
1000698a:	68e1      	ldr	r1, [r4, #12]
1000698c:	f280 8116 	bge.w	10006bbc <_malloc_r+0x2d0>
10006990:	458c      	cmp	ip, r1
10006992:	460c      	mov	r4, r1
10006994:	d006      	beq.n	100069a4 <_malloc_r+0xb8>
10006996:	6863      	ldr	r3, [r4, #4]
10006998:	f023 0303 	bic.w	r3, r3, #3
1000699c:	1b5a      	subs	r2, r3, r5
1000699e:	2a0f      	cmp	r2, #15
100069a0:	ddf2      	ble.n	10006988 <_malloc_r+0x9c>
100069a2:	4670      	mov	r0, lr
100069a4:	f8df 8268 	ldr.w	r8, [pc, #616]	@ 10006c10 <_malloc_r+0x324>
100069a8:	6934      	ldr	r4, [r6, #16]
100069aa:	4544      	cmp	r4, r8
100069ac:	f000 80f2 	beq.w	10006b94 <_malloc_r+0x2a8>
100069b0:	6863      	ldr	r3, [r4, #4]
100069b2:	f023 0c03 	bic.w	ip, r3, #3
100069b6:	ebac 0305 	sub.w	r3, ip, r5
100069ba:	2b0f      	cmp	r3, #15
100069bc:	f300 8174 	bgt.w	10006ca8 <_malloc_r+0x3bc>
100069c0:	2b00      	cmp	r3, #0
100069c2:	e9c6 8804 	strd	r8, r8, [r6, #16]
100069c6:	f280 8163 	bge.w	10006c90 <_malloc_r+0x3a4>
100069ca:	f5bc 7f00 	cmp.w	ip, #512	@ 0x200
100069ce:	f8d6 e004 	ldr.w	lr, [r6, #4]
100069d2:	f080 80ff 	bcs.w	10006bd4 <_malloc_r+0x2e8>
100069d6:	ea4f 03dc 	mov.w	r3, ip, lsr #3
100069da:	2201      	movs	r2, #1
100069dc:	ea4f 1c5c 	mov.w	ip, ip, lsr #5
100069e0:	3301      	adds	r3, #1
100069e2:	fa02 f20c 	lsl.w	r2, r2, ip
100069e6:	f856 1033 	ldr.w	r1, [r6, r3, lsl #3]
100069ea:	ea4e 0e02 	orr.w	lr, lr, r2
100069ee:	eb06 02c3 	add.w	r2, r6, r3, lsl #3
100069f2:	3a08      	subs	r2, #8
100069f4:	f8c6 e004 	str.w	lr, [r6, #4]
100069f8:	e9c4 1202 	strd	r1, r2, [r4, #8]
100069fc:	f846 4033 	str.w	r4, [r6, r3, lsl #3]
10006a00:	60cc      	str	r4, [r1, #12]
10006a02:	1083      	asrs	r3, r0, #2
10006a04:	f04f 0c01 	mov.w	ip, #1
10006a08:	fa0c fc03 	lsl.w	ip, ip, r3
10006a0c:	45f4      	cmp	ip, lr
10006a0e:	d834      	bhi.n	10006a7a <_malloc_r+0x18e>
10006a10:	ea1c 0f0e 	tst.w	ip, lr
10006a14:	d107      	bne.n	10006a26 <_malloc_r+0x13a>
10006a16:	f020 0003 	bic.w	r0, r0, #3
10006a1a:	ea4f 0c4c 	mov.w	ip, ip, lsl #1
10006a1e:	3004      	adds	r0, #4
10006a20:	ea1c 0f0e 	tst.w	ip, lr
10006a24:	d0f9      	beq.n	10006a1a <_malloc_r+0x12e>
10006a26:	eb06 0ac0 	add.w	sl, r6, r0, lsl #3
10006a2a:	4681      	mov	r9, r0
10006a2c:	46d6      	mov	lr, sl
10006a2e:	f8de 300c 	ldr.w	r3, [lr, #12]
10006a32:	e00b      	b.n	10006a4c <_malloc_r+0x160>
10006a34:	685a      	ldr	r2, [r3, #4]
10006a36:	461c      	mov	r4, r3
10006a38:	68db      	ldr	r3, [r3, #12]
10006a3a:	f022 0203 	bic.w	r2, r2, #3
10006a3e:	1b51      	subs	r1, r2, r5
10006a40:	290f      	cmp	r1, #15
10006a42:	f300 8101 	bgt.w	10006c48 <_malloc_r+0x35c>
10006a46:	2900      	cmp	r1, #0
10006a48:	f280 8115 	bge.w	10006c76 <_malloc_r+0x38a>
10006a4c:	459e      	cmp	lr, r3
10006a4e:	d1f1      	bne.n	10006a34 <_malloc_r+0x148>
10006a50:	f109 0901 	add.w	r9, r9, #1
10006a54:	f10e 0e08 	add.w	lr, lr, #8
10006a58:	f019 0f03 	tst.w	r9, #3
10006a5c:	d1e7      	bne.n	10006a2e <_malloc_r+0x142>
10006a5e:	e158      	b.n	10006d12 <_malloc_r+0x426>
10006a60:	230c      	movs	r3, #12
10006a62:	603b      	str	r3, [r7, #0]
10006a64:	2400      	movs	r4, #0
10006a66:	4620      	mov	r0, r4
10006a68:	b003      	add	sp, #12
10006a6a:	e8bd 8ff0 	ldmia.w	sp!, {r4, r5, r6, r7, r8, r9, sl, fp, pc}
10006a6e:	f44f 7300 	mov.w	r3, #512	@ 0x200
10006a72:	2040      	movs	r0, #64	@ 0x40
10006a74:	f04f 0e3f 	mov.w	lr, #63	@ 0x3f
10006a78:	e77e      	b.n	10006978 <_malloc_r+0x8c>
10006a7a:	68b4      	ldr	r4, [r6, #8]
10006a7c:	6863      	ldr	r3, [r4, #4]
10006a7e:	f023 0903 	bic.w	r9, r3, #3
10006a82:	45a9      	cmp	r9, r5
10006a84:	eba9 0305 	sub.w	r3, r9, r5
10006a88:	d302      	bcc.n	10006a90 <_malloc_r+0x1a4>
10006a8a:	2b0f      	cmp	r3, #15
10006a8c:	f300 8085 	bgt.w	10006b9a <_malloc_r+0x2ae>
10006a90:	4b5a      	ldr	r3, [pc, #360]	@ (10006bfc <_malloc_r+0x310>)
10006a92:	2008      	movs	r0, #8
10006a94:	681b      	ldr	r3, [r3, #0]
10006a96:	f103 0810 	add.w	r8, r3, #16
10006a9a:	eb04 0309 	add.w	r3, r4, r9
10006a9e:	9300      	str	r3, [sp, #0]
10006aa0:	f000 fdba 	bl	10007618 <sysconf>
10006aa4:	4a56      	ldr	r2, [pc, #344]	@ (10006c00 <_malloc_r+0x314>)
10006aa6:	44a8      	add	r8, r5
10006aa8:	4683      	mov	fp, r0
10006aaa:	6813      	ldr	r3, [r2, #0]
10006aac:	3301      	adds	r3, #1
10006aae:	d005      	beq.n	10006abc <_malloc_r+0x1d0>
10006ab0:	f108 38ff 	add.w	r8, r8, #4294967295	@ 0xffffffff
10006ab4:	4243      	negs	r3, r0
10006ab6:	4480      	add	r8, r0
10006ab8:	ea03 0808 	and.w	r8, r3, r8
10006abc:	4641      	mov	r1, r8
10006abe:	4638      	mov	r0, r7
10006ac0:	f000 fd8e 	bl	100075e0 <_sbrk_r>
10006ac4:	f1b0 3fff 	cmp.w	r0, #4294967295	@ 0xffffffff
10006ac8:	4682      	mov	sl, r0
10006aca:	4a4d      	ldr	r2, [pc, #308]	@ (10006c00 <_malloc_r+0x314>)
10006acc:	f000 8107 	beq.w	10006cde <_malloc_r+0x3f2>
10006ad0:	eb04 0309 	add.w	r3, r4, r9
10006ad4:	4283      	cmp	r3, r0
10006ad6:	f200 8100 	bhi.w	10006cda <_malloc_r+0x3ee>
10006ada:	4b4a      	ldr	r3, [pc, #296]	@ (10006c04 <_malloc_r+0x318>)
10006adc:	f10b 3cff 	add.w	ip, fp, #4294967295	@ 0xffffffff
10006ae0:	6818      	ldr	r0, [r3, #0]
10006ae2:	4440      	add	r0, r8
10006ae4:	6018      	str	r0, [r3, #0]
10006ae6:	f000 8164 	beq.w	10006db2 <_malloc_r+0x4c6>
10006aea:	6811      	ldr	r1, [r2, #0]
10006aec:	3101      	adds	r1, #1
10006aee:	f000 816c 	beq.w	10006dca <_malloc_r+0x4de>
10006af2:	eb04 0209 	add.w	r2, r4, r9
10006af6:	ebaa 0202 	sub.w	r2, sl, r2
10006afa:	4402      	add	r2, r0
10006afc:	601a      	str	r2, [r3, #0]
10006afe:	f01a 0207 	ands.w	r2, sl, #7
10006b02:	e9cd 2300 	strd	r2, r3, [sp]
10006b06:	f000 8127 	beq.w	10006d58 <_malloc_r+0x46c>
10006b0a:	f1c2 0208 	rsb	r2, r2, #8
10006b0e:	4638      	mov	r0, r7
10006b10:	4492      	add	sl, r2
10006b12:	445a      	add	r2, fp
10006b14:	44d0      	add	r8, sl
10006b16:	ea08 010c 	and.w	r1, r8, ip
10006b1a:	1a52      	subs	r2, r2, r1
10006b1c:	ea02 0b0c 	and.w	fp, r2, ip
10006b20:	4659      	mov	r1, fp
10006b22:	f000 fd5d 	bl	100075e0 <_sbrk_r>
10006b26:	1c42      	adds	r2, r0, #1
10006b28:	9b01      	ldr	r3, [sp, #4]
10006b2a:	f000 816a 	beq.w	10006e02 <_malloc_r+0x516>
10006b2e:	eba0 000a 	sub.w	r0, r0, sl
10006b32:	eb00 080b 	add.w	r8, r0, fp
10006b36:	6818      	ldr	r0, [r3, #0]
10006b38:	f048 0201 	orr.w	r2, r8, #1
10006b3c:	42b4      	cmp	r4, r6
10006b3e:	f8c6 a008 	str.w	sl, [r6, #8]
10006b42:	4458      	add	r0, fp
10006b44:	f8ca 2004 	str.w	r2, [sl, #4]
10006b48:	6018      	str	r0, [r3, #0]
10006b4a:	d017      	beq.n	10006b7c <_malloc_r+0x290>
10006b4c:	f1b9 0f0f 	cmp.w	r9, #15
10006b50:	f240 813e 	bls.w	10006dd0 <_malloc_r+0x4e4>
10006b54:	6861      	ldr	r1, [r4, #4]
10006b56:	f1a9 020c 	sub.w	r2, r9, #12
10006b5a:	f04f 0c05 	mov.w	ip, #5
10006b5e:	f022 0207 	bic.w	r2, r2, #7
10006b62:	f001 0101 	and.w	r1, r1, #1
10006b66:	4311      	orrs	r1, r2
10006b68:	2a0f      	cmp	r2, #15
10006b6a:	6061      	str	r1, [r4, #4]
10006b6c:	eb04 0102 	add.w	r1, r4, r2
10006b70:	e9c1 cc01 	strd	ip, ip, [r1, #4]
10006b74:	f200 814d 	bhi.w	10006e12 <_malloc_r+0x526>
10006b78:	f8da 2004 	ldr.w	r2, [sl, #4]
10006b7c:	4b22      	ldr	r3, [pc, #136]	@ (10006c08 <_malloc_r+0x31c>)
10006b7e:	4654      	mov	r4, sl
10006b80:	6819      	ldr	r1, [r3, #0]
10006b82:	4281      	cmp	r1, r0
10006b84:	bf38      	it	cc
10006b86:	6018      	strcc	r0, [r3, #0]
10006b88:	4b20      	ldr	r3, [pc, #128]	@ (10006c0c <_malloc_r+0x320>)
10006b8a:	6819      	ldr	r1, [r3, #0]
10006b8c:	4281      	cmp	r1, r0
10006b8e:	bf38      	it	cc
10006b90:	6018      	strcc	r0, [r3, #0]
10006b92:	e0a6      	b.n	10006ce2 <_malloc_r+0x3f6>
10006b94:	f8d6 e004 	ldr.w	lr, [r6, #4]
10006b98:	e733      	b.n	10006a02 <_malloc_r+0x116>
10006b9a:	1962      	adds	r2, r4, r5
10006b9c:	f045 0501 	orr.w	r5, r5, #1
10006ba0:	f043 0301 	orr.w	r3, r3, #1
10006ba4:	3408      	adds	r4, #8
10006ba6:	f844 5c04 	str.w	r5, [r4, #-4]
10006baa:	4638      	mov	r0, r7
10006bac:	60b2      	str	r2, [r6, #8]
10006bae:	6053      	str	r3, [r2, #4]
10006bb0:	f000 f95e 	bl	10006e70 <__malloc_unlock>
10006bb4:	4620      	mov	r0, r4
10006bb6:	b003      	add	sp, #12
10006bb8:	e8bd 8ff0 	ldmia.w	sp!, {r4, r5, r6, r7, r8, r9, sl, fp, pc}
10006bbc:	68a2      	ldr	r2, [r4, #8]
10006bbe:	4423      	add	r3, r4
10006bc0:	4638      	mov	r0, r7
10006bc2:	60d1      	str	r1, [r2, #12]
10006bc4:	608a      	str	r2, [r1, #8]
10006bc6:	e6b2      	b.n	1000692e <_malloc_r+0x42>
10006bc8:	68dc      	ldr	r4, [r3, #12]
10006bca:	42a3      	cmp	r3, r4
10006bcc:	f47f aea6 	bne.w	1000691c <_malloc_r+0x30>
10006bd0:	3002      	adds	r0, #2
10006bd2:	e6e7      	b.n	100069a4 <_malloc_r+0xb8>
10006bd4:	f5bc 6f20 	cmp.w	ip, #2560	@ 0xa00
10006bd8:	ea4f 225c 	mov.w	r2, ip, lsr #9
10006bdc:	d376      	bcc.n	10006ccc <_malloc_r+0x3e0>
10006bde:	2a14      	cmp	r2, #20
10006be0:	f200 80cd 	bhi.w	10006d7e <_malloc_r+0x492>
10006be4:	f102 035c 	add.w	r3, r2, #92	@ 0x5c
10006be8:	325b      	adds	r2, #91	@ 0x5b
10006bea:	00db      	lsls	r3, r3, #3
10006bec:	18f1      	adds	r1, r6, r3
10006bee:	58f3      	ldr	r3, [r6, r3]
10006bf0:	3908      	subs	r1, #8
10006bf2:	4299      	cmp	r1, r3
10006bf4:	d111      	bne.n	10006c1a <_malloc_r+0x32e>
10006bf6:	e0a5      	b.n	10006d44 <_malloc_r+0x458>
10006bf8:	20000ed0 	.word	0x20000ed0
10006bfc:	20001750 	.word	0x20001750
10006c00:	20000ec8 	.word	0x20000ec8
10006c04:	20001720 	.word	0x20001720
10006c08:	20001748 	.word	0x20001748
10006c0c:	2000174c 	.word	0x2000174c
10006c10:	20000ed8 	.word	0x20000ed8
10006c14:	689b      	ldr	r3, [r3, #8]
10006c16:	4299      	cmp	r1, r3
10006c18:	d004      	beq.n	10006c24 <_malloc_r+0x338>
10006c1a:	685a      	ldr	r2, [r3, #4]
10006c1c:	f022 0203 	bic.w	r2, r2, #3
10006c20:	4562      	cmp	r2, ip
10006c22:	d8f7      	bhi.n	10006c14 <_malloc_r+0x328>
10006c24:	68d9      	ldr	r1, [r3, #12]
10006c26:	e9c4 3102 	strd	r3, r1, [r4, #8]
10006c2a:	608c      	str	r4, [r1, #8]
10006c2c:	60dc      	str	r4, [r3, #12]
10006c2e:	e6e8      	b.n	10006a02 <_malloc_r+0x116>
10006c30:	2b14      	cmp	r3, #20
10006c32:	d963      	bls.n	10006cfc <_malloc_r+0x410>
10006c34:	2b54      	cmp	r3, #84	@ 0x54
10006c36:	f200 80ab 	bhi.w	10006d90 <_malloc_r+0x4a4>
10006c3a:	0b2b      	lsrs	r3, r5, #12
10006c3c:	f103 006f 	add.w	r0, r3, #111	@ 0x6f
10006c40:	f103 0e6e 	add.w	lr, r3, #110	@ 0x6e
10006c44:	00c3      	lsls	r3, r0, #3
10006c46:	e697      	b.n	10006978 <_malloc_r+0x8c>
10006c48:	f8d4 c008 	ldr.w	ip, [r4, #8]
10006c4c:	4638      	mov	r0, r7
10006c4e:	1967      	adds	r7, r4, r5
10006c50:	f045 0501 	orr.w	r5, r5, #1
10006c54:	6065      	str	r5, [r4, #4]
10006c56:	f8cc 300c 	str.w	r3, [ip, #12]
10006c5a:	f8c3 c008 	str.w	ip, [r3, #8]
10006c5e:	f041 0301 	orr.w	r3, r1, #1
10006c62:	e9c6 7704 	strd	r7, r7, [r6, #16]
10006c66:	e9c7 8802 	strd	r8, r8, [r7, #8]
10006c6a:	607b      	str	r3, [r7, #4]
10006c6c:	50a1      	str	r1, [r4, r2]
10006c6e:	3408      	adds	r4, #8
10006c70:	f000 f8fe 	bl	10006e70 <__malloc_unlock>
10006c74:	e6f7      	b.n	10006a66 <_malloc_r+0x17a>
10006c76:	4422      	add	r2, r4
10006c78:	4638      	mov	r0, r7
10006c7a:	6851      	ldr	r1, [r2, #4]
10006c7c:	f041 0101 	orr.w	r1, r1, #1
10006c80:	6051      	str	r1, [r2, #4]
10006c82:	f854 2f08 	ldr.w	r2, [r4, #8]!
10006c86:	60d3      	str	r3, [r2, #12]
10006c88:	609a      	str	r2, [r3, #8]
10006c8a:	f000 f8f1 	bl	10006e70 <__malloc_unlock>
10006c8e:	e6ea      	b.n	10006a66 <_malloc_r+0x17a>
10006c90:	44a4      	add	ip, r4
10006c92:	4638      	mov	r0, r7
10006c94:	3408      	adds	r4, #8
10006c96:	f8dc 3004 	ldr.w	r3, [ip, #4]
10006c9a:	f043 0301 	orr.w	r3, r3, #1
10006c9e:	f8cc 3004 	str.w	r3, [ip, #4]
10006ca2:	f000 f8e5 	bl	10006e70 <__malloc_unlock>
10006ca6:	e6de      	b.n	10006a66 <_malloc_r+0x17a>
10006ca8:	1962      	adds	r2, r4, r5
10006caa:	f043 0101 	orr.w	r1, r3, #1
10006cae:	f045 0501 	orr.w	r5, r5, #1
10006cb2:	4638      	mov	r0, r7
10006cb4:	6065      	str	r5, [r4, #4]
10006cb6:	e9c6 2204 	strd	r2, r2, [r6, #16]
10006cba:	e9c2 8802 	strd	r8, r8, [r2, #8]
10006cbe:	6051      	str	r1, [r2, #4]
10006cc0:	f844 300c 	str.w	r3, [r4, ip]
10006cc4:	3408      	adds	r4, #8
10006cc6:	f000 f8d3 	bl	10006e70 <__malloc_unlock>
10006cca:	e6cc      	b.n	10006a66 <_malloc_r+0x17a>
10006ccc:	ea4f 129c 	mov.w	r2, ip, lsr #6
10006cd0:	f102 0339 	add.w	r3, r2, #57	@ 0x39
10006cd4:	3238      	adds	r2, #56	@ 0x38
10006cd6:	00db      	lsls	r3, r3, #3
10006cd8:	e788      	b.n	10006bec <_malloc_r+0x300>
10006cda:	42b4      	cmp	r4, r6
10006cdc:	d062      	beq.n	10006da4 <_malloc_r+0x4b8>
10006cde:	68b4      	ldr	r4, [r6, #8]
10006ce0:	6862      	ldr	r2, [r4, #4]
10006ce2:	f022 0803 	bic.w	r8, r2, #3
10006ce6:	45a8      	cmp	r8, r5
10006ce8:	eba8 0305 	sub.w	r3, r8, r5
10006cec:	d302      	bcc.n	10006cf4 <_malloc_r+0x408>
10006cee:	2b0f      	cmp	r3, #15
10006cf0:	f73f af53 	bgt.w	10006b9a <_malloc_r+0x2ae>
10006cf4:	4638      	mov	r0, r7
10006cf6:	f000 f8bb 	bl	10006e70 <__malloc_unlock>
10006cfa:	e6b3      	b.n	10006a64 <_malloc_r+0x178>
10006cfc:	f103 005c 	add.w	r0, r3, #92	@ 0x5c
10006d00:	f103 0e5b 	add.w	lr, r3, #91	@ 0x5b
10006d04:	00c3      	lsls	r3, r0, #3
10006d06:	e637      	b.n	10006978 <_malloc_r+0x8c>
10006d08:	f85a 3908 	ldr.w	r3, [sl], #-8
10006d0c:	4553      	cmp	r3, sl
10006d0e:	f040 80a0 	bne.w	10006e52 <_malloc_r+0x566>
10006d12:	f010 0f03 	tst.w	r0, #3
10006d16:	f100 30ff 	add.w	r0, r0, #4294967295	@ 0xffffffff
10006d1a:	d1f5      	bne.n	10006d08 <_malloc_r+0x41c>
10006d1c:	6873      	ldr	r3, [r6, #4]
10006d1e:	ea23 030c 	bic.w	r3, r3, ip
10006d22:	6073      	str	r3, [r6, #4]
10006d24:	ea4f 0c4c 	mov.w	ip, ip, lsl #1
10006d28:	f10c 32ff 	add.w	r2, ip, #4294967295	@ 0xffffffff
10006d2c:	429a      	cmp	r2, r3
10006d2e:	d304      	bcc.n	10006d3a <_malloc_r+0x44e>
10006d30:	e6a3      	b.n	10006a7a <_malloc_r+0x18e>
10006d32:	ea4f 0c4c 	mov.w	ip, ip, lsl #1
10006d36:	f109 0904 	add.w	r9, r9, #4
10006d3a:	ea1c 0f03 	tst.w	ip, r3
10006d3e:	d0f8      	beq.n	10006d32 <_malloc_r+0x446>
10006d40:	4648      	mov	r0, r9
10006d42:	e670      	b.n	10006a26 <_malloc_r+0x13a>
10006d44:	1092      	asrs	r2, r2, #2
10006d46:	f04f 0c01 	mov.w	ip, #1
10006d4a:	fa0c f202 	lsl.w	r2, ip, r2
10006d4e:	ea4e 0e02 	orr.w	lr, lr, r2
10006d52:	f8c6 e004 	str.w	lr, [r6, #4]
10006d56:	e766      	b.n	10006c26 <_malloc_r+0x33a>
10006d58:	eb0a 0208 	add.w	r2, sl, r8
10006d5c:	4638      	mov	r0, r7
10006d5e:	ea02 020c 	and.w	r2, r2, ip
10006d62:	ebab 0b02 	sub.w	fp, fp, r2
10006d66:	ea0b 0b0c 	and.w	fp, fp, ip
10006d6a:	4659      	mov	r1, fp
10006d6c:	f000 fc38 	bl	100075e0 <_sbrk_r>
10006d70:	1c43      	adds	r3, r0, #1
10006d72:	9b01      	ldr	r3, [sp, #4]
10006d74:	f47f aedb 	bne.w	10006b2e <_malloc_r+0x242>
10006d78:	f8dd b000 	ldr.w	fp, [sp]
10006d7c:	e6db      	b.n	10006b36 <_malloc_r+0x24a>
10006d7e:	2a54      	cmp	r2, #84	@ 0x54
10006d80:	d82a      	bhi.n	10006dd8 <_malloc_r+0x4ec>
10006d82:	ea4f 321c 	mov.w	r2, ip, lsr #12
10006d86:	f102 036f 	add.w	r3, r2, #111	@ 0x6f
10006d8a:	326e      	adds	r2, #110	@ 0x6e
10006d8c:	00db      	lsls	r3, r3, #3
10006d8e:	e72d      	b.n	10006bec <_malloc_r+0x300>
10006d90:	f5b3 7faa 	cmp.w	r3, #340	@ 0x154
10006d94:	d82a      	bhi.n	10006dec <_malloc_r+0x500>
10006d96:	0beb      	lsrs	r3, r5, #15
10006d98:	f103 0078 	add.w	r0, r3, #120	@ 0x78
10006d9c:	f103 0e77 	add.w	lr, r3, #119	@ 0x77
10006da0:	00c3      	lsls	r3, r0, #3
10006da2:	e5e9      	b.n	10006978 <_malloc_r+0x8c>
10006da4:	4b2e      	ldr	r3, [pc, #184]	@ (10006e60 <_malloc_r+0x574>)
10006da6:	f10b 3cff 	add.w	ip, fp, #4294967295	@ 0xffffffff
10006daa:	6818      	ldr	r0, [r3, #0]
10006dac:	4440      	add	r0, r8
10006dae:	6018      	str	r0, [r3, #0]
10006db0:	e69b      	b.n	10006aea <_malloc_r+0x1fe>
10006db2:	ea1a 0f0c 	tst.w	sl, ip
10006db6:	f47f ae98 	bne.w	10006aea <_malloc_r+0x1fe>
10006dba:	44c8      	add	r8, r9
10006dbc:	f8d6 a008 	ldr.w	sl, [r6, #8]
10006dc0:	f048 0201 	orr.w	r2, r8, #1
10006dc4:	f8ca 2004 	str.w	r2, [sl, #4]
10006dc8:	e6d8      	b.n	10006b7c <_malloc_r+0x290>
10006dca:	f8c2 a000 	str.w	sl, [r2]
10006dce:	e696      	b.n	10006afe <_malloc_r+0x212>
10006dd0:	2301      	movs	r3, #1
10006dd2:	f8ca 3004 	str.w	r3, [sl, #4]
10006dd6:	e78d      	b.n	10006cf4 <_malloc_r+0x408>
10006dd8:	f5b2 7faa 	cmp.w	r2, #340	@ 0x154
10006ddc:	d824      	bhi.n	10006e28 <_malloc_r+0x53c>
10006dde:	ea4f 32dc 	mov.w	r2, ip, lsr #15
10006de2:	f102 0378 	add.w	r3, r2, #120	@ 0x78
10006de6:	3277      	adds	r2, #119	@ 0x77
10006de8:	00db      	lsls	r3, r3, #3
10006dea:	e6ff      	b.n	10006bec <_malloc_r+0x300>
10006dec:	f240 5254 	movw	r2, #1364	@ 0x554
10006df0:	4293      	cmp	r3, r2
10006df2:	d824      	bhi.n	10006e3e <_malloc_r+0x552>
10006df4:	0cab      	lsrs	r3, r5, #18
10006df6:	f103 007d 	add.w	r0, r3, #125	@ 0x7d
10006dfa:	f103 0e7c 	add.w	lr, r3, #124	@ 0x7c
10006dfe:	00c3      	lsls	r3, r0, #3
10006e00:	e5ba      	b.n	10006978 <_malloc_r+0x8c>
10006e02:	9a00      	ldr	r2, [sp, #0]
10006e04:	f04f 0b00 	mov.w	fp, #0
10006e08:	3a08      	subs	r2, #8
10006e0a:	4490      	add	r8, r2
10006e0c:	eba8 080a 	sub.w	r8, r8, sl
10006e10:	e691      	b.n	10006b36 <_malloc_r+0x24a>
10006e12:	4638      	mov	r0, r7
10006e14:	f104 0108 	add.w	r1, r4, #8
10006e18:	9300      	str	r3, [sp, #0]
10006e1a:	f000 fde9 	bl	100079f0 <_free_r>
10006e1e:	9b00      	ldr	r3, [sp, #0]
10006e20:	f8d6 a008 	ldr.w	sl, [r6, #8]
10006e24:	6818      	ldr	r0, [r3, #0]
10006e26:	e6a7      	b.n	10006b78 <_malloc_r+0x28c>
10006e28:	f240 5354 	movw	r3, #1364	@ 0x554
10006e2c:	429a      	cmp	r2, r3
10006e2e:	d80c      	bhi.n	10006e4a <_malloc_r+0x55e>
10006e30:	ea4f 429c 	mov.w	r2, ip, lsr #18
10006e34:	f102 037d 	add.w	r3, r2, #125	@ 0x7d
10006e38:	327c      	adds	r2, #124	@ 0x7c
10006e3a:	00db      	lsls	r3, r3, #3
10006e3c:	e6d6      	b.n	10006bec <_malloc_r+0x300>
10006e3e:	f44f 737e 	mov.w	r3, #1016	@ 0x3f8
10006e42:	207f      	movs	r0, #127	@ 0x7f
10006e44:	f04f 0e7e 	mov.w	lr, #126	@ 0x7e
10006e48:	e596      	b.n	10006978 <_malloc_r+0x8c>
10006e4a:	f44f 737e 	mov.w	r3, #1016	@ 0x3f8
10006e4e:	227e      	movs	r2, #126	@ 0x7e
10006e50:	e6cc      	b.n	10006bec <_malloc_r+0x300>
10006e52:	6873      	ldr	r3, [r6, #4]
10006e54:	e766      	b.n	10006d24 <_malloc_r+0x438>
10006e56:	08e8      	lsrs	r0, r5, #3
10006e58:	f105 0308 	add.w	r3, r5, #8
10006e5c:	e556      	b.n	1000690c <_malloc_r+0x20>
10006e5e:	bf00      	nop
10006e60:	20001720 	.word	0x20001720

10006e64 <__malloc_lock>:
10006e64:	4801      	ldr	r0, [pc, #4]	@ (10006e6c <__malloc_lock+0x8>)
10006e66:	f000 bbd3 	b.w	10007610 <__retarget_lock_acquire_recursive>
10006e6a:	bf00      	nop
10006e6c:	2000171c 	.word	0x2000171c

10006e70 <__malloc_unlock>:
10006e70:	4801      	ldr	r0, [pc, #4]	@ (10006e78 <__malloc_unlock+0x8>)
10006e72:	f000 bbcf 	b.w	10007614 <__retarget_lock_release_recursive>
10006e76:	bf00      	nop
10006e78:	2000171c 	.word	0x2000171c

10006e7c <realloc>:
10006e7c:	4b02      	ldr	r3, [pc, #8]	@ (10006e88 <realloc+0xc>)
10006e7e:	460a      	mov	r2, r1
10006e80:	4601      	mov	r1, r0
10006e82:	6818      	ldr	r0, [r3, #0]
10006e84:	f000 b802 	b.w	10006e8c <_realloc_r>
10006e88:	200012d8 	.word	0x200012d8

10006e8c <_realloc_r>:
10006e8c:	e92d 4ff0 	stmdb	sp!, {r4, r5, r6, r7, r8, r9, sl, fp, lr}
10006e90:	4616      	mov	r6, r2
10006e92:	b083      	sub	sp, #12
10006e94:	2900      	cmp	r1, #0
10006e96:	f000 809e 	beq.w	10006fd6 <_realloc_r+0x14a>
10006e9a:	460c      	mov	r4, r1
10006e9c:	f106 050b 	add.w	r5, r6, #11
10006ea0:	4680      	mov	r8, r0
10006ea2:	f7ff ffdf 	bl	10006e64 <__malloc_lock>
10006ea6:	f854 0c04 	ldr.w	r0, [r4, #-4]
10006eaa:	2d16      	cmp	r5, #22
10006eac:	f1a4 0908 	sub.w	r9, r4, #8
10006eb0:	f020 0703 	bic.w	r7, r0, #3
10006eb4:	d862      	bhi.n	10006f7c <_realloc_r+0xf0>
10006eb6:	2210      	movs	r2, #16
10006eb8:	2300      	movs	r3, #0
10006eba:	4615      	mov	r5, r2
10006ebc:	42b5      	cmp	r5, r6
10006ebe:	f0c0 80a2 	bcc.w	10007006 <_realloc_r+0x17a>
10006ec2:	2b00      	cmp	r3, #0
10006ec4:	f040 809f 	bne.w	10007006 <_realloc_r+0x17a>
10006ec8:	4297      	cmp	r7, r2
10006eca:	da61      	bge.n	10006f90 <_realloc_r+0x104>
10006ecc:	f8df b32c 	ldr.w	fp, [pc, #812]	@ 100071fc <_realloc_r+0x370>
10006ed0:	eb09 0107 	add.w	r1, r9, r7
10006ed4:	f8db 3008 	ldr.w	r3, [fp, #8]
10006ed8:	f8d1 c004 	ldr.w	ip, [r1, #4]
10006edc:	428b      	cmp	r3, r1
10006ede:	f000 809a 	beq.w	10007016 <_realloc_r+0x18a>
10006ee2:	f02c 0301 	bic.w	r3, ip, #1
10006ee6:	440b      	add	r3, r1
10006ee8:	685b      	ldr	r3, [r3, #4]
10006eea:	07db      	lsls	r3, r3, #31
10006eec:	d468      	bmi.n	10006fc0 <_realloc_r+0x134>
10006eee:	f02c 0c03 	bic.w	ip, ip, #3
10006ef2:	eb07 030c 	add.w	r3, r7, ip
10006ef6:	4293      	cmp	r3, r2
10006ef8:	da45      	bge.n	10006f86 <_realloc_r+0xfa>
10006efa:	07c3      	lsls	r3, r0, #31
10006efc:	d412      	bmi.n	10006f24 <_realloc_r+0x98>
10006efe:	f854 3c08 	ldr.w	r3, [r4, #-8]
10006f02:	eba9 0a03 	sub.w	sl, r9, r3
10006f06:	f8da 3004 	ldr.w	r3, [sl, #4]
10006f0a:	f023 0003 	bic.w	r0, r3, #3
10006f0e:	4484      	add	ip, r0
10006f10:	eb0c 0b07 	add.w	fp, ip, r7
10006f14:	455a      	cmp	r2, fp
10006f16:	f340 8101 	ble.w	1000711c <_realloc_r+0x290>
10006f1a:	eb07 0b00 	add.w	fp, r7, r0
10006f1e:	455a      	cmp	r2, fp
10006f20:	f340 80d7 	ble.w	100070d2 <_realloc_r+0x246>
10006f24:	4631      	mov	r1, r6
10006f26:	4640      	mov	r0, r8
10006f28:	f7ff fce0 	bl	100068ec <_malloc_r>
10006f2c:	4606      	mov	r6, r0
10006f2e:	2800      	cmp	r0, #0
10006f30:	f000 812c 	beq.w	1000718c <_realloc_r+0x300>
10006f34:	f854 3c04 	ldr.w	r3, [r4, #-4]
10006f38:	f1a0 0208 	sub.w	r2, r0, #8
10006f3c:	f023 0301 	bic.w	r3, r3, #1
10006f40:	444b      	add	r3, r9
10006f42:	4293      	cmp	r3, r2
10006f44:	f000 80b4 	beq.w	100070b0 <_realloc_r+0x224>
10006f48:	1f3a      	subs	r2, r7, #4
10006f4a:	2a24      	cmp	r2, #36	@ 0x24
10006f4c:	f200 80e2 	bhi.w	10007114 <_realloc_r+0x288>
10006f50:	2a13      	cmp	r2, #19
10006f52:	f200 80b3 	bhi.w	100070bc <_realloc_r+0x230>
10006f56:	4603      	mov	r3, r0
10006f58:	4622      	mov	r2, r4
10006f5a:	6811      	ldr	r1, [r2, #0]
10006f5c:	6019      	str	r1, [r3, #0]
10006f5e:	6851      	ldr	r1, [r2, #4]
10006f60:	6059      	str	r1, [r3, #4]
10006f62:	6892      	ldr	r2, [r2, #8]
10006f64:	609a      	str	r2, [r3, #8]
10006f66:	4621      	mov	r1, r4
10006f68:	4640      	mov	r0, r8
10006f6a:	f000 fd41 	bl	100079f0 <_free_r>
10006f6e:	4640      	mov	r0, r8
10006f70:	f7ff ff7e 	bl	10006e70 <__malloc_unlock>
10006f74:	4630      	mov	r0, r6
10006f76:	b003      	add	sp, #12
10006f78:	e8bd 8ff0 	ldmia.w	sp!, {r4, r5, r6, r7, r8, r9, sl, fp, pc}
10006f7c:	f025 0507 	bic.w	r5, r5, #7
10006f80:	462a      	mov	r2, r5
10006f82:	0feb      	lsrs	r3, r5, #31
10006f84:	e79a      	b.n	10006ebc <_realloc_r+0x30>
10006f86:	461f      	mov	r7, r3
10006f88:	e9d1 2302 	ldrd	r2, r3, [r1, #8]
10006f8c:	60d3      	str	r3, [r2, #12]
10006f8e:	609a      	str	r2, [r3, #8]
10006f90:	1b78      	subs	r0, r7, r5
10006f92:	f8d9 3004 	ldr.w	r3, [r9, #4]
10006f96:	eb09 0207 	add.w	r2, r9, r7
10006f9a:	280f      	cmp	r0, #15
10006f9c:	f003 0301 	and.w	r3, r3, #1
10006fa0:	d81f      	bhi.n	10006fe2 <_realloc_r+0x156>
10006fa2:	433b      	orrs	r3, r7
10006fa4:	f8c9 3004 	str.w	r3, [r9, #4]
10006fa8:	6853      	ldr	r3, [r2, #4]
10006faa:	f043 0301 	orr.w	r3, r3, #1
10006fae:	6053      	str	r3, [r2, #4]
10006fb0:	4626      	mov	r6, r4
10006fb2:	4640      	mov	r0, r8
10006fb4:	f7ff ff5c 	bl	10006e70 <__malloc_unlock>
10006fb8:	4630      	mov	r0, r6
10006fba:	b003      	add	sp, #12
10006fbc:	e8bd 8ff0 	ldmia.w	sp!, {r4, r5, r6, r7, r8, r9, sl, fp, pc}
10006fc0:	07c3      	lsls	r3, r0, #31
10006fc2:	d4af      	bmi.n	10006f24 <_realloc_r+0x98>
10006fc4:	f854 3c08 	ldr.w	r3, [r4, #-8]
10006fc8:	eba9 0a03 	sub.w	sl, r9, r3
10006fcc:	f8da 3004 	ldr.w	r3, [sl, #4]
10006fd0:	f023 0003 	bic.w	r0, r3, #3
10006fd4:	e7a1      	b.n	10006f1a <_realloc_r+0x8e>
10006fd6:	4611      	mov	r1, r2
10006fd8:	b003      	add	sp, #12
10006fda:	e8bd 4ff0 	ldmia.w	sp!, {r4, r5, r6, r7, r8, r9, sl, fp, lr}
10006fde:	f7ff bc85 	b.w	100068ec <_malloc_r>
10006fe2:	432b      	orrs	r3, r5
10006fe4:	eb09 0105 	add.w	r1, r9, r5
10006fe8:	f040 0001 	orr.w	r0, r0, #1
10006fec:	f8c9 3004 	str.w	r3, [r9, #4]
10006ff0:	3108      	adds	r1, #8
10006ff2:	f841 0c04 	str.w	r0, [r1, #-4]
10006ff6:	4640      	mov	r0, r8
10006ff8:	6853      	ldr	r3, [r2, #4]
10006ffa:	f043 0301 	orr.w	r3, r3, #1
10006ffe:	6053      	str	r3, [r2, #4]
10007000:	f000 fcf6 	bl	100079f0 <_free_r>
10007004:	e7d4      	b.n	10006fb0 <_realloc_r+0x124>
10007006:	230c      	movs	r3, #12
10007008:	f8c8 3000 	str.w	r3, [r8]
1000700c:	2600      	movs	r6, #0
1000700e:	4630      	mov	r0, r6
10007010:	b003      	add	sp, #12
10007012:	e8bd 8ff0 	ldmia.w	sp!, {r4, r5, r6, r7, r8, r9, sl, fp, pc}
10007016:	f02c 0c03 	bic.w	ip, ip, #3
1000701a:	f105 0110 	add.w	r1, r5, #16
1000701e:	eb0c 0307 	add.w	r3, ip, r7
10007022:	428b      	cmp	r3, r1
10007024:	f280 8092 	bge.w	1000714c <_realloc_r+0x2c0>
10007028:	07c0      	lsls	r0, r0, #31
1000702a:	f53f af7b 	bmi.w	10006f24 <_realloc_r+0x98>
1000702e:	f854 3c08 	ldr.w	r3, [r4, #-8]
10007032:	eba9 0a03 	sub.w	sl, r9, r3
10007036:	f8da 3004 	ldr.w	r3, [sl, #4]
1000703a:	f023 0003 	bic.w	r0, r3, #3
1000703e:	4484      	add	ip, r0
10007040:	eb0c 0307 	add.w	r3, ip, r7
10007044:	4299      	cmp	r1, r3
10007046:	f73f af68 	bgt.w	10006f1a <_realloc_r+0x8e>
1000704a:	1f3a      	subs	r2, r7, #4
1000704c:	4656      	mov	r6, sl
1000704e:	f8da 100c 	ldr.w	r1, [sl, #12]
10007052:	f856 0f08 	ldr.w	r0, [r6, #8]!
10007056:	2a24      	cmp	r2, #36	@ 0x24
10007058:	60c1      	str	r1, [r0, #12]
1000705a:	6088      	str	r0, [r1, #8]
1000705c:	f200 80b0 	bhi.w	100071c0 <_realloc_r+0x334>
10007060:	2a13      	cmp	r2, #19
10007062:	f240 80ab 	bls.w	100071bc <_realloc_r+0x330>
10007066:	6821      	ldr	r1, [r4, #0]
10007068:	2a1b      	cmp	r2, #27
1000706a:	f8ca 1008 	str.w	r1, [sl, #8]
1000706e:	6861      	ldr	r1, [r4, #4]
10007070:	f8ca 100c 	str.w	r1, [sl, #12]
10007074:	f200 80ab 	bhi.w	100071ce <_realloc_r+0x342>
10007078:	3408      	adds	r4, #8
1000707a:	f10a 0210 	add.w	r2, sl, #16
1000707e:	6821      	ldr	r1, [r4, #0]
10007080:	6011      	str	r1, [r2, #0]
10007082:	6861      	ldr	r1, [r4, #4]
10007084:	6051      	str	r1, [r2, #4]
10007086:	68a1      	ldr	r1, [r4, #8]
10007088:	6091      	str	r1, [r2, #8]
1000708a:	1b5b      	subs	r3, r3, r5
1000708c:	eb0a 0205 	add.w	r2, sl, r5
10007090:	4640      	mov	r0, r8
10007092:	f043 0301 	orr.w	r3, r3, #1
10007096:	f8cb 2008 	str.w	r2, [fp, #8]
1000709a:	6053      	str	r3, [r2, #4]
1000709c:	f8da 3004 	ldr.w	r3, [sl, #4]
100070a0:	f003 0301 	and.w	r3, r3, #1
100070a4:	432b      	orrs	r3, r5
100070a6:	f8ca 3004 	str.w	r3, [sl, #4]
100070aa:	f7ff fee1 	bl	10006e70 <__malloc_unlock>
100070ae:	e783      	b.n	10006fb8 <_realloc_r+0x12c>
100070b0:	f850 3c04 	ldr.w	r3, [r0, #-4]
100070b4:	f023 0303 	bic.w	r3, r3, #3
100070b8:	441f      	add	r7, r3
100070ba:	e769      	b.n	10006f90 <_realloc_r+0x104>
100070bc:	6823      	ldr	r3, [r4, #0]
100070be:	2a1b      	cmp	r2, #27
100070c0:	6003      	str	r3, [r0, #0]
100070c2:	6863      	ldr	r3, [r4, #4]
100070c4:	6043      	str	r3, [r0, #4]
100070c6:	d836      	bhi.n	10007136 <_realloc_r+0x2aa>
100070c8:	f104 0208 	add.w	r2, r4, #8
100070cc:	f100 0308 	add.w	r3, r0, #8
100070d0:	e743      	b.n	10006f5a <_realloc_r+0xce>
100070d2:	1f3a      	subs	r2, r7, #4
100070d4:	4656      	mov	r6, sl
100070d6:	f8da 300c 	ldr.w	r3, [sl, #12]
100070da:	2a24      	cmp	r2, #36	@ 0x24
100070dc:	f856 1f08 	ldr.w	r1, [r6, #8]!
100070e0:	60cb      	str	r3, [r1, #12]
100070e2:	6099      	str	r1, [r3, #8]
100070e4:	d822      	bhi.n	1000712c <_realloc_r+0x2a0>
100070e6:	2a13      	cmp	r2, #19
100070e8:	d91e      	bls.n	10007128 <_realloc_r+0x29c>
100070ea:	6823      	ldr	r3, [r4, #0]
100070ec:	2a1b      	cmp	r2, #27
100070ee:	f8ca 3008 	str.w	r3, [sl, #8]
100070f2:	6863      	ldr	r3, [r4, #4]
100070f4:	f8ca 300c 	str.w	r3, [sl, #12]
100070f8:	d83c      	bhi.n	10007174 <_realloc_r+0x2e8>
100070fa:	3408      	adds	r4, #8
100070fc:	f10a 0310 	add.w	r3, sl, #16
10007100:	6822      	ldr	r2, [r4, #0]
10007102:	601a      	str	r2, [r3, #0]
10007104:	6862      	ldr	r2, [r4, #4]
10007106:	605a      	str	r2, [r3, #4]
10007108:	68a2      	ldr	r2, [r4, #8]
1000710a:	609a      	str	r2, [r3, #8]
1000710c:	4634      	mov	r4, r6
1000710e:	465f      	mov	r7, fp
10007110:	46d1      	mov	r9, sl
10007112:	e73d      	b.n	10006f90 <_realloc_r+0x104>
10007114:	4621      	mov	r1, r4
10007116:	f000 f943 	bl	100073a0 <memmove>
1000711a:	e724      	b.n	10006f66 <_realloc_r+0xda>
1000711c:	e9d1 1302 	ldrd	r1, r3, [r1, #8]
10007120:	1f3a      	subs	r2, r7, #4
10007122:	60cb      	str	r3, [r1, #12]
10007124:	6099      	str	r1, [r3, #8]
10007126:	e7d5      	b.n	100070d4 <_realloc_r+0x248>
10007128:	4633      	mov	r3, r6
1000712a:	e7e9      	b.n	10007100 <_realloc_r+0x274>
1000712c:	4621      	mov	r1, r4
1000712e:	4630      	mov	r0, r6
10007130:	f000 f936 	bl	100073a0 <memmove>
10007134:	e7ea      	b.n	1000710c <_realloc_r+0x280>
10007136:	68a3      	ldr	r3, [r4, #8]
10007138:	2a24      	cmp	r2, #36	@ 0x24
1000713a:	6083      	str	r3, [r0, #8]
1000713c:	68e3      	ldr	r3, [r4, #12]
1000713e:	60c3      	str	r3, [r0, #12]
10007140:	d028      	beq.n	10007194 <_realloc_r+0x308>
10007142:	f104 0210 	add.w	r2, r4, #16
10007146:	f100 0310 	add.w	r3, r0, #16
1000714a:	e706      	b.n	10006f5a <_realloc_r+0xce>
1000714c:	1b5b      	subs	r3, r3, r5
1000714e:	eb09 0205 	add.w	r2, r9, r5
10007152:	4640      	mov	r0, r8
10007154:	4626      	mov	r6, r4
10007156:	f043 0301 	orr.w	r3, r3, #1
1000715a:	f8cb 2008 	str.w	r2, [fp, #8]
1000715e:	6053      	str	r3, [r2, #4]
10007160:	f854 3c04 	ldr.w	r3, [r4, #-4]
10007164:	f003 0301 	and.w	r3, r3, #1
10007168:	432b      	orrs	r3, r5
1000716a:	f844 3c04 	str.w	r3, [r4, #-4]
1000716e:	f7ff fe7f 	bl	10006e70 <__malloc_unlock>
10007172:	e721      	b.n	10006fb8 <_realloc_r+0x12c>
10007174:	68a3      	ldr	r3, [r4, #8]
10007176:	2a24      	cmp	r2, #36	@ 0x24
10007178:	f8ca 3010 	str.w	r3, [sl, #16]
1000717c:	68e3      	ldr	r3, [r4, #12]
1000717e:	f8ca 3014 	str.w	r3, [sl, #20]
10007182:	d010      	beq.n	100071a6 <_realloc_r+0x31a>
10007184:	3410      	adds	r4, #16
10007186:	f10a 0318 	add.w	r3, sl, #24
1000718a:	e7b9      	b.n	10007100 <_realloc_r+0x274>
1000718c:	4640      	mov	r0, r8
1000718e:	f7ff fe6f 	bl	10006e70 <__malloc_unlock>
10007192:	e73b      	b.n	1000700c <_realloc_r+0x180>
10007194:	6923      	ldr	r3, [r4, #16]
10007196:	f104 0218 	add.w	r2, r4, #24
1000719a:	6103      	str	r3, [r0, #16]
1000719c:	6963      	ldr	r3, [r4, #20]
1000719e:	6143      	str	r3, [r0, #20]
100071a0:	f100 0318 	add.w	r3, r0, #24
100071a4:	e6d9      	b.n	10006f5a <_realloc_r+0xce>
100071a6:	6923      	ldr	r3, [r4, #16]
100071a8:	3418      	adds	r4, #24
100071aa:	f8ca 3018 	str.w	r3, [sl, #24]
100071ae:	f854 3c04 	ldr.w	r3, [r4, #-4]
100071b2:	f8ca 301c 	str.w	r3, [sl, #28]
100071b6:	f10a 0320 	add.w	r3, sl, #32
100071ba:	e7a1      	b.n	10007100 <_realloc_r+0x274>
100071bc:	4632      	mov	r2, r6
100071be:	e75e      	b.n	1000707e <_realloc_r+0x1f2>
100071c0:	4621      	mov	r1, r4
100071c2:	4630      	mov	r0, r6
100071c4:	9301      	str	r3, [sp, #4]
100071c6:	f000 f8eb 	bl	100073a0 <memmove>
100071ca:	9b01      	ldr	r3, [sp, #4]
100071cc:	e75d      	b.n	1000708a <_realloc_r+0x1fe>
100071ce:	68a1      	ldr	r1, [r4, #8]
100071d0:	2a24      	cmp	r2, #36	@ 0x24
100071d2:	f8ca 1010 	str.w	r1, [sl, #16]
100071d6:	68e1      	ldr	r1, [r4, #12]
100071d8:	f8ca 1014 	str.w	r1, [sl, #20]
100071dc:	d003      	beq.n	100071e6 <_realloc_r+0x35a>
100071de:	3410      	adds	r4, #16
100071e0:	f10a 0218 	add.w	r2, sl, #24
100071e4:	e74b      	b.n	1000707e <_realloc_r+0x1f2>
100071e6:	6922      	ldr	r2, [r4, #16]
100071e8:	3418      	adds	r4, #24
100071ea:	f8ca 2018 	str.w	r2, [sl, #24]
100071ee:	f854 2c04 	ldr.w	r2, [r4, #-4]
100071f2:	f8ca 201c 	str.w	r2, [sl, #28]
100071f6:	f10a 0220 	add.w	r2, sl, #32
100071fa:	e740      	b.n	1000707e <_realloc_r+0x1f2>
100071fc:	20000ed0 	.word	0x20000ed0

10007200 <_strtoul_l.isra.0>:
10007200:	e92d 47f0 	stmdb	sp!, {r4, r5, r6, r7, r8, r9, sl, lr}
10007204:	4607      	mov	r7, r0
10007206:	460e      	mov	r6, r1
10007208:	4845      	ldr	r0, [pc, #276]	@ (10007320 <_strtoul_l.isra.0+0x120>)
1000720a:	4635      	mov	r5, r6
1000720c:	f816 eb01 	ldrb.w	lr, [r6], #1
10007210:	f810 c00e 	ldrb.w	ip, [r0, lr]
10007214:	f01c 0c08 	ands.w	ip, ip, #8
10007218:	d1f7      	bne.n	1000720a <_strtoul_l.isra.0+0xa>
1000721a:	f1be 0f2d 	cmp.w	lr, #45	@ 0x2d
1000721e:	d063      	beq.n	100072e8 <_strtoul_l.isra.0+0xe8>
10007220:	f1be 0f2b 	cmp.w	lr, #43	@ 0x2b
10007224:	d03a      	beq.n	1000729c <_strtoul_l.isra.0+0x9c>
10007226:	4664      	mov	r4, ip
10007228:	f033 0010 	bics.w	r0, r3, #16
1000722c:	d03e      	beq.n	100072ac <_strtoul_l.isra.0+0xac>
1000722e:	f04f 38ff 	mov.w	r8, #4294967295	@ 0xffffffff
10007232:	469a      	mov	sl, r3
10007234:	fbb8 f8f3 	udiv	r8, r8, r3
10007238:	fb03 f908 	mul.w	r9, r3, r8
1000723c:	ea6f 0909 	mvn.w	r9, r9
10007240:	2500      	movs	r5, #0
10007242:	4628      	mov	r0, r5
10007244:	e00e      	b.n	10007264 <_strtoul_l.isra.0+0x64>
10007246:	f1ae 0c37 	sub.w	ip, lr, #55	@ 0x37
1000724a:	4563      	cmp	r3, ip
1000724c:	dd1d      	ble.n	1000728a <_strtoul_l.isra.0+0x8a>
1000724e:	3501      	adds	r5, #1
10007250:	d004      	beq.n	1000725c <_strtoul_l.isra.0+0x5c>
10007252:	4540      	cmp	r0, r8
10007254:	d802      	bhi.n	1000725c <_strtoul_l.isra.0+0x5c>
10007256:	d134      	bne.n	100072c2 <_strtoul_l.isra.0+0xc2>
10007258:	45cc      	cmp	ip, r9
1000725a:	dd32      	ble.n	100072c2 <_strtoul_l.isra.0+0xc2>
1000725c:	f04f 35ff 	mov.w	r5, #4294967295	@ 0xffffffff
10007260:	f816 eb01 	ldrb.w	lr, [r6], #1
10007264:	f1ae 0c30 	sub.w	ip, lr, #48	@ 0x30
10007268:	f1bc 0f09 	cmp.w	ip, #9
1000726c:	d9ed      	bls.n	1000724a <_strtoul_l.isra.0+0x4a>
1000726e:	f1ae 0c41 	sub.w	ip, lr, #65	@ 0x41
10007272:	f1bc 0f19 	cmp.w	ip, #25
10007276:	d9e6      	bls.n	10007246 <_strtoul_l.isra.0+0x46>
10007278:	f1ae 0c61 	sub.w	ip, lr, #97	@ 0x61
1000727c:	f1bc 0f19 	cmp.w	ip, #25
10007280:	d803      	bhi.n	1000728a <_strtoul_l.isra.0+0x8a>
10007282:	f1ae 0c57 	sub.w	ip, lr, #87	@ 0x57
10007286:	4563      	cmp	r3, ip
10007288:	dce1      	bgt.n	1000724e <_strtoul_l.isra.0+0x4e>
1000728a:	1c6b      	adds	r3, r5, #1
1000728c:	d025      	beq.n	100072da <_strtoul_l.isra.0+0xda>
1000728e:	b104      	cbz	r4, 10007292 <_strtoul_l.isra.0+0x92>
10007290:	4240      	negs	r0, r0
10007292:	b10a      	cbz	r2, 10007298 <_strtoul_l.isra.0+0x98>
10007294:	bb35      	cbnz	r5, 100072e4 <_strtoul_l.isra.0+0xe4>
10007296:	6011      	str	r1, [r2, #0]
10007298:	e8bd 87f0 	ldmia.w	sp!, {r4, r5, r6, r7, r8, r9, sl, pc}
1000729c:	f033 0010 	bics.w	r0, r3, #16
100072a0:	f896 e000 	ldrb.w	lr, [r6]
100072a4:	4664      	mov	r4, ip
100072a6:	f105 0602 	add.w	r6, r5, #2
100072aa:	d1c0      	bne.n	1000722e <_strtoul_l.isra.0+0x2e>
100072ac:	f1be 0f30 	cmp.w	lr, #48	@ 0x30
100072b0:	d01f      	beq.n	100072f2 <_strtoul_l.isra.0+0xf2>
100072b2:	b95b      	cbnz	r3, 100072cc <_strtoul_l.isra.0+0xcc>
100072b4:	230a      	movs	r3, #10
100072b6:	f04f 0905 	mov.w	r9, #5
100072ba:	f8df 8068 	ldr.w	r8, [pc, #104]	@ 10007324 <_strtoul_l.isra.0+0x124>
100072be:	469a      	mov	sl, r3
100072c0:	e7be      	b.n	10007240 <_strtoul_l.isra.0+0x40>
100072c2:	fb0a c000 	mla	r0, sl, r0, ip
100072c6:	2501      	movs	r5, #1
100072c8:	e7ca      	b.n	10007260 <_strtoul_l.isra.0+0x60>
100072ca:	b30b      	cbz	r3, 10007310 <_strtoul_l.isra.0+0x110>
100072cc:	2310      	movs	r3, #16
100072ce:	f04f 090f 	mov.w	r9, #15
100072d2:	f06f 4870 	mvn.w	r8, #4026531840	@ 0xf0000000
100072d6:	469a      	mov	sl, r3
100072d8:	e7b2      	b.n	10007240 <_strtoul_l.isra.0+0x40>
100072da:	2322      	movs	r3, #34	@ 0x22
100072dc:	4628      	mov	r0, r5
100072de:	603b      	str	r3, [r7, #0]
100072e0:	2a00      	cmp	r2, #0
100072e2:	d0d9      	beq.n	10007298 <_strtoul_l.isra.0+0x98>
100072e4:	1e71      	subs	r1, r6, #1
100072e6:	e7d6      	b.n	10007296 <_strtoul_l.isra.0+0x96>
100072e8:	f896 e000 	ldrb.w	lr, [r6]
100072ec:	2401      	movs	r4, #1
100072ee:	1cae      	adds	r6, r5, #2
100072f0:	e79a      	b.n	10007228 <_strtoul_l.isra.0+0x28>
100072f2:	7830      	ldrb	r0, [r6, #0]
100072f4:	f000 00df 	and.w	r0, r0, #223	@ 0xdf
100072f8:	2858      	cmp	r0, #88	@ 0x58
100072fa:	d1e6      	bne.n	100072ca <_strtoul_l.isra.0+0xca>
100072fc:	2310      	movs	r3, #16
100072fe:	f896 e001 	ldrb.w	lr, [r6, #1]
10007302:	f04f 090f 	mov.w	r9, #15
10007306:	3602      	adds	r6, #2
10007308:	f06f 4870 	mvn.w	r8, #4026531840	@ 0xf0000000
1000730c:	469a      	mov	sl, r3
1000730e:	e797      	b.n	10007240 <_strtoul_l.isra.0+0x40>
10007310:	2308      	movs	r3, #8
10007312:	f04f 0907 	mov.w	r9, #7
10007316:	f06f 4860 	mvn.w	r8, #3758096384	@ 0xe0000000
1000731a:	469a      	mov	sl, r3
1000731c:	e790      	b.n	10007240 <_strtoul_l.isra.0+0x40>
1000731e:	bf00      	nop
10007320:	1000ccb5 	.word	0x1000ccb5
10007324:	19999999 	.word	0x19999999

10007328 <_strtoul_r>:
10007328:	f7ff bf6a 	b.w	10007200 <_strtoul_l.isra.0>

1000732c <strtoul>:
1000732c:	b410      	push	{r4}
1000732e:	4c04      	ldr	r4, [pc, #16]	@ (10007340 <strtoul+0x14>)
10007330:	4613      	mov	r3, r2
10007332:	460a      	mov	r2, r1
10007334:	4601      	mov	r1, r0
10007336:	6820      	ldr	r0, [r4, #0]
10007338:	f85d 4b04 	ldr.w	r4, [sp], #4
1000733c:	f7ff bf60 	b.w	10007200 <_strtoul_l.isra.0>
10007340:	200012d8 	.word	0x200012d8

10007344 <sscanf>:
10007344:	b40e      	push	{r1, r2, r3}
10007346:	b570      	push	{r4, r5, r6, lr}
10007348:	b09d      	sub	sp, #116	@ 0x74
1000734a:	2500      	movs	r5, #0
1000734c:	f44f 7201 	mov.w	r2, #516	@ 0x204
10007350:	ac21      	add	r4, sp, #132	@ 0x84
10007352:	951b      	str	r5, [sp, #108]	@ 0x6c
10007354:	f8ad 2014 	strh.w	r2, [sp, #20]
10007358:	f854 6b04 	ldr.w	r6, [r4], #4
1000735c:	9002      	str	r0, [sp, #8]
1000735e:	9006      	str	r0, [sp, #24]
10007360:	f000 fabc 	bl	100078dc <strlen>
10007364:	490b      	ldr	r1, [pc, #44]	@ (10007394 <sscanf+0x50>)
10007366:	4603      	mov	r3, r0
10007368:	f64f 70ff 	movw	r0, #65535	@ 0xffff
1000736c:	4632      	mov	r2, r6
1000736e:	910a      	str	r1, [sp, #40]	@ 0x28
10007370:	4909      	ldr	r1, [pc, #36]	@ (10007398 <sscanf+0x54>)
10007372:	f8ad 0016 	strh.w	r0, [sp, #22]
10007376:	9303      	str	r3, [sp, #12]
10007378:	9307      	str	r3, [sp, #28]
1000737a:	4623      	mov	r3, r4
1000737c:	6808      	ldr	r0, [r1, #0]
1000737e:	a902      	add	r1, sp, #8
10007380:	950e      	str	r5, [sp, #56]	@ 0x38
10007382:	9513      	str	r5, [sp, #76]	@ 0x4c
10007384:	9401      	str	r4, [sp, #4]
10007386:	f000 fcd3 	bl	10007d30 <__ssvfscanf_r>
1000738a:	b01d      	add	sp, #116	@ 0x74
1000738c:	e8bd 4070 	ldmia.w	sp!, {r4, r5, r6, lr}
10007390:	b003      	add	sp, #12
10007392:	4770      	bx	lr
10007394:	1000739d 	.word	0x1000739d
10007398:	200012d8 	.word	0x200012d8

1000739c <__seofread>:
1000739c:	2000      	movs	r0, #0
1000739e:	4770      	bx	lr

100073a0 <memmove>:
100073a0:	4288      	cmp	r0, r1
100073a2:	b5f0      	push	{r4, r5, r6, r7, lr}
100073a4:	d914      	bls.n	100073d0 <memmove+0x30>
100073a6:	188b      	adds	r3, r1, r2
100073a8:	4283      	cmp	r3, r0
100073aa:	d911      	bls.n	100073d0 <memmove+0x30>
100073ac:	2a03      	cmp	r2, #3
100073ae:	eb00 0102 	add.w	r1, r0, r2
100073b2:	d866      	bhi.n	10007482 <memmove+0xe2>
100073b4:	f102 3cff 	add.w	ip, r2, #4294967295	@ 0xffffffff
100073b8:	b14a      	cbz	r2, 100073ce <memmove+0x2e>
100073ba:	ea6f 0c0c 	mvn.w	ip, ip
100073be:	460a      	mov	r2, r1
100073c0:	449c      	add	ip, r3
100073c2:	f813 1d01 	ldrb.w	r1, [r3, #-1]!
100073c6:	4563      	cmp	r3, ip
100073c8:	f802 1d01 	strb.w	r1, [r2, #-1]!
100073cc:	d1f9      	bne.n	100073c2 <memmove+0x22>
100073ce:	bdf0      	pop	{r4, r5, r6, r7, pc}
100073d0:	2a03      	cmp	r2, #3
100073d2:	d80f      	bhi.n	100073f4 <memmove+0x54>
100073d4:	4603      	mov	r3, r0
100073d6:	f102 3cff 	add.w	ip, r2, #4294967295	@ 0xffffffff
100073da:	2a00      	cmp	r2, #0
100073dc:	d0f7      	beq.n	100073ce <memmove+0x2e>
100073de:	f10c 0c01 	add.w	ip, ip, #1
100073e2:	3b01      	subs	r3, #1
100073e4:	448c      	add	ip, r1
100073e6:	f811 2b01 	ldrb.w	r2, [r1], #1
100073ea:	4561      	cmp	r1, ip
100073ec:	f803 2f01 	strb.w	r2, [r3, #1]!
100073f0:	d1f9      	bne.n	100073e6 <memmove+0x46>
100073f2:	bdf0      	pop	{r4, r5, r6, r7, pc}
100073f4:	ea41 0300 	orr.w	r3, r1, r0
100073f8:	079b      	lsls	r3, r3, #30
100073fa:	d13e      	bne.n	1000747a <memmove+0xda>
100073fc:	2a0f      	cmp	r2, #15
100073fe:	d964      	bls.n	100074ca <memmove+0x12a>
10007400:	f1a2 0310 	sub.w	r3, r2, #16
10007404:	f101 0410 	add.w	r4, r1, #16
10007408:	3120      	adds	r1, #32
1000740a:	f100 0e10 	add.w	lr, r0, #16
1000740e:	f023 030f 	bic.w	r3, r3, #15
10007412:	46a4      	mov	ip, r4
10007414:	4419      	add	r1, r3
10007416:	f85c 5c10 	ldr.w	r5, [ip, #-16]
1000741a:	f10c 0c10 	add.w	ip, ip, #16
1000741e:	f10e 0e10 	add.w	lr, lr, #16
10007422:	f84e 5c20 	str.w	r5, [lr, #-32]
10007426:	f85c 5c1c 	ldr.w	r5, [ip, #-28]
1000742a:	f84e 5c1c 	str.w	r5, [lr, #-28]
1000742e:	f85c 5c18 	ldr.w	r5, [ip, #-24]
10007432:	f84e 5c18 	str.w	r5, [lr, #-24]
10007436:	f85c 5c14 	ldr.w	r5, [ip, #-20]
1000743a:	458c      	cmp	ip, r1
1000743c:	f84e 5c14 	str.w	r5, [lr, #-20]
10007440:	d1e9      	bne.n	10007416 <memmove+0x76>
10007442:	18e1      	adds	r1, r4, r3
10007444:	f012 0f0c 	tst.w	r2, #12
10007448:	4403      	add	r3, r0
1000744a:	f002 0e0f 	and.w	lr, r2, #15
1000744e:	f103 0310 	add.w	r3, r3, #16
10007452:	d038      	beq.n	100074c6 <memmove+0x126>
10007454:	f02e 0503 	bic.w	r5, lr, #3
10007458:	1f1a      	subs	r2, r3, #4
1000745a:	468c      	mov	ip, r1
1000745c:	3d04      	subs	r5, #4
1000745e:	195e      	adds	r6, r3, r5
10007460:	f85c 4b04 	ldr.w	r4, [ip], #4
10007464:	f842 4f04 	str.w	r4, [r2, #4]!
10007468:	42b2      	cmp	r2, r6
1000746a:	d1f9      	bne.n	10007460 <memmove+0xc0>
1000746c:	3104      	adds	r1, #4
1000746e:	3304      	adds	r3, #4
10007470:	f00e 0203 	and.w	r2, lr, #3
10007474:	4429      	add	r1, r5
10007476:	442b      	add	r3, r5
10007478:	e7ad      	b.n	100073d6 <memmove+0x36>
1000747a:	f102 3cff 	add.w	ip, r2, #4294967295	@ 0xffffffff
1000747e:	4603      	mov	r3, r0
10007480:	e7ad      	b.n	100073de <memmove+0x3e>
10007482:	ea41 0403 	orr.w	r4, r1, r3
10007486:	461f      	mov	r7, r3
10007488:	07a4      	lsls	r4, r4, #30
1000748a:	d002      	beq.n	10007492 <memmove+0xf2>
1000748c:	f102 3cff 	add.w	ip, r2, #4294967295	@ 0xffffffff
10007490:	e793      	b.n	100073ba <memmove+0x1a>
10007492:	f1a2 0e04 	sub.w	lr, r2, #4
10007496:	468c      	mov	ip, r1
10007498:	f02e 0603 	bic.w	r6, lr, #3
1000749c:	ea4f 0e9e 	mov.w	lr, lr, lsr #2
100074a0:	1b8e      	subs	r6, r1, r6
100074a2:	4664      	mov	r4, ip
100074a4:	f853 5d04 	ldr.w	r5, [r3, #-4]!
100074a8:	42b4      	cmp	r4, r6
100074aa:	f84c 5d04 	str.w	r5, [ip, #-4]!
100074ae:	d1f8      	bne.n	100074a2 <memmove+0x102>
100074b0:	ebce 738e 	rsb	r3, lr, lr, lsl #30
100074b4:	f002 0203 	and.w	r2, r2, #3
100074b8:	eb01 0183 	add.w	r1, r1, r3, lsl #2
100074bc:	eb07 0783 	add.w	r7, r7, r3, lsl #2
100074c0:	3904      	subs	r1, #4
100074c2:	1f3b      	subs	r3, r7, #4
100074c4:	e776      	b.n	100073b4 <memmove+0x14>
100074c6:	4672      	mov	r2, lr
100074c8:	e785      	b.n	100073d6 <memmove+0x36>
100074ca:	4603      	mov	r3, r0
100074cc:	4696      	mov	lr, r2
100074ce:	e7c1      	b.n	10007454 <memmove+0xb4>

100074d0 <memset>:
100074d0:	0783      	lsls	r3, r0, #30
100074d2:	b530      	push	{r4, r5, lr}
100074d4:	d046      	beq.n	10007564 <memset+0x94>
100074d6:	1884      	adds	r4, r0, r2
100074d8:	4684      	mov	ip, r0
100074da:	e004      	b.n	100074e6 <memset+0x16>
100074dc:	f803 1b01 	strb.w	r1, [r3], #1
100074e0:	079d      	lsls	r5, r3, #30
100074e2:	d004      	beq.n	100074ee <memset+0x1e>
100074e4:	469c      	mov	ip, r3
100074e6:	45a4      	cmp	ip, r4
100074e8:	4663      	mov	r3, ip
100074ea:	d1f7      	bne.n	100074dc <memset+0xc>
100074ec:	bd30      	pop	{r4, r5, pc}
100074ee:	3a01      	subs	r2, #1
100074f0:	4402      	add	r2, r0
100074f2:	eba2 020c 	sub.w	r2, r2, ip
100074f6:	2a03      	cmp	r2, #3
100074f8:	d929      	bls.n	1000754e <memset+0x7e>
100074fa:	b2cc      	uxtb	r4, r1
100074fc:	2a0f      	cmp	r2, #15
100074fe:	eb04 2404 	add.w	r4, r4, r4, lsl #8
10007502:	eb04 4404 	add.w	r4, r4, r4, lsl #16
10007506:	d92f      	bls.n	10007568 <memset+0x98>
10007508:	f1a2 0c10 	sub.w	ip, r2, #16
1000750c:	f103 0510 	add.w	r5, r3, #16
10007510:	f02c 0c0f 	bic.w	ip, ip, #15
10007514:	44ac      	add	ip, r5
10007516:	e9c3 4400 	strd	r4, r4, [r3]
1000751a:	e9c3 4402 	strd	r4, r4, [r3, #8]
1000751e:	3310      	adds	r3, #16
10007520:	4563      	cmp	r3, ip
10007522:	d1f8      	bne.n	10007516 <memset+0x46>
10007524:	f012 0f0c 	tst.w	r2, #12
10007528:	f002 0e0f 	and.w	lr, r2, #15
1000752c:	d018      	beq.n	10007560 <memset+0x90>
1000752e:	f02e 0c03 	bic.w	ip, lr, #3
10007532:	f1ae 0504 	sub.w	r5, lr, #4
10007536:	461a      	mov	r2, r3
10007538:	449c      	add	ip, r3
1000753a:	f842 4b04 	str.w	r4, [r2], #4
1000753e:	4562      	cmp	r2, ip
10007540:	d1fb      	bne.n	1000753a <memset+0x6a>
10007542:	f025 0403 	bic.w	r4, r5, #3
10007546:	3304      	adds	r3, #4
10007548:	f00e 0203 	and.w	r2, lr, #3
1000754c:	4423      	add	r3, r4
1000754e:	2a00      	cmp	r2, #0
10007550:	d0cc      	beq.n	100074ec <memset+0x1c>
10007552:	b2c9      	uxtb	r1, r1
10007554:	441a      	add	r2, r3
10007556:	f803 1b01 	strb.w	r1, [r3], #1
1000755a:	4293      	cmp	r3, r2
1000755c:	d1fb      	bne.n	10007556 <memset+0x86>
1000755e:	bd30      	pop	{r4, r5, pc}
10007560:	4672      	mov	r2, lr
10007562:	e7f4      	b.n	1000754e <memset+0x7e>
10007564:	4603      	mov	r3, r0
10007566:	e7c6      	b.n	100074f6 <memset+0x26>
10007568:	4696      	mov	lr, r2
1000756a:	e7e0      	b.n	1000752e <memset+0x5e>

1000756c <strncmp>:
1000756c:	b382      	cbz	r2, 100075d0 <strncmp+0x64>
1000756e:	460b      	mov	r3, r1
10007570:	b530      	push	{r4, r5, lr}
10007572:	ea40 0401 	orr.w	r4, r0, r1
10007576:	4686      	mov	lr, r0
10007578:	07a4      	lsls	r4, r4, #30
1000757a:	d117      	bne.n	100075ac <strncmp+0x40>
1000757c:	2a03      	cmp	r2, #3
1000757e:	d807      	bhi.n	10007590 <strncmp+0x24>
10007580:	e014      	b.n	100075ac <strncmp+0x40>
10007582:	3a04      	subs	r2, #4
10007584:	d022      	beq.n	100075cc <strncmp+0x60>
10007586:	f01c 3f80 	tst.w	ip, #2155905152	@ 0x80808080
1000758a:	d11f      	bne.n	100075cc <strncmp+0x60>
1000758c:	2a03      	cmp	r2, #3
1000758e:	d923      	bls.n	100075d8 <strncmp+0x6c>
10007590:	f8de 4000 	ldr.w	r4, [lr]
10007594:	4619      	mov	r1, r3
10007596:	f853 5b04 	ldr.w	r5, [r3], #4
1000759a:	4670      	mov	r0, lr
1000759c:	f1a4 3c01 	sub.w	ip, r4, #16843009	@ 0x1010101
100075a0:	f10e 0e04 	add.w	lr, lr, #4
100075a4:	42ac      	cmp	r4, r5
100075a6:	ea2c 0c04 	bic.w	ip, ip, r4
100075aa:	d0ea      	beq.n	10007582 <strncmp+0x16>
100075ac:	7803      	ldrb	r3, [r0, #0]
100075ae:	3a01      	subs	r2, #1
100075b0:	780c      	ldrb	r4, [r1, #0]
100075b2:	42a3      	cmp	r3, r4
100075b4:	d10e      	bne.n	100075d4 <strncmp+0x68>
100075b6:	4402      	add	r2, r0
100075b8:	e006      	b.n	100075c8 <strncmp+0x5c>
100075ba:	b13b      	cbz	r3, 100075cc <strncmp+0x60>
100075bc:	f810 3f01 	ldrb.w	r3, [r0, #1]!
100075c0:	f811 4f01 	ldrb.w	r4, [r1, #1]!
100075c4:	42a3      	cmp	r3, r4
100075c6:	d105      	bne.n	100075d4 <strncmp+0x68>
100075c8:	4290      	cmp	r0, r2
100075ca:	d1f6      	bne.n	100075ba <strncmp+0x4e>
100075cc:	2000      	movs	r0, #0
100075ce:	bd30      	pop	{r4, r5, pc}
100075d0:	4610      	mov	r0, r2
100075d2:	4770      	bx	lr
100075d4:	1b18      	subs	r0, r3, r4
100075d6:	bd30      	pop	{r4, r5, pc}
100075d8:	4670      	mov	r0, lr
100075da:	4619      	mov	r1, r3
100075dc:	e7e6      	b.n	100075ac <strncmp+0x40>
100075de:	bf00      	nop

100075e0 <_sbrk_r>:
100075e0:	b538      	push	{r3, r4, r5, lr}
100075e2:	2200      	movs	r2, #0
100075e4:	4d06      	ldr	r5, [pc, #24]	@ (10007600 <_sbrk_r+0x20>)
100075e6:	4604      	mov	r4, r0
100075e8:	4608      	mov	r0, r1
100075ea:	602a      	str	r2, [r5, #0]
100075ec:	f7fc fbc8 	bl	10003d80 <_sbrk>
100075f0:	1c43      	adds	r3, r0, #1
100075f2:	d000      	beq.n	100075f6 <_sbrk_r+0x16>
100075f4:	bd38      	pop	{r3, r4, r5, pc}
100075f6:	682b      	ldr	r3, [r5, #0]
100075f8:	2b00      	cmp	r3, #0
100075fa:	d0fb      	beq.n	100075f4 <_sbrk_r+0x14>
100075fc:	6023      	str	r3, [r4, #0]
100075fe:	bd38      	pop	{r3, r4, r5, pc}
10007600:	20001f2c 	.word	0x20001f2c

10007604 <__errno>:
10007604:	4b01      	ldr	r3, [pc, #4]	@ (1000760c <__errno+0x8>)
10007606:	6818      	ldr	r0, [r3, #0]
10007608:	4770      	bx	lr
1000760a:	bf00      	nop
1000760c:	200012d8 	.word	0x200012d8

10007610 <__retarget_lock_acquire_recursive>:
10007610:	4770      	bx	lr
10007612:	bf00      	nop

10007614 <__retarget_lock_release_recursive>:
10007614:	4770      	bx	lr
10007616:	bf00      	nop

10007618 <sysconf>:
10007618:	2808      	cmp	r0, #8
1000761a:	d102      	bne.n	10007622 <sysconf+0xa>
1000761c:	f44f 5080 	mov.w	r0, #4096	@ 0x1000
10007620:	4770      	bx	lr
10007622:	b508      	push	{r3, lr}
10007624:	f7ff ffee 	bl	10007604 <__errno>
10007628:	2216      	movs	r2, #22
1000762a:	4603      	mov	r3, r0
1000762c:	f04f 30ff 	mov.w	r0, #4294967295	@ 0xffffffff
10007630:	601a      	str	r2, [r3, #0]
10007632:	bd08      	pop	{r3, pc}

10007634 <strcmp>:
10007634:	ea80 0c01 	eor.w	ip, r0, r1
10007638:	f01c 0f03 	tst.w	ip, #3
1000763c:	d137      	bne.n	100076ae <strcmp+0x7a>
1000763e:	f010 0c03 	ands.w	ip, r0, #3
10007642:	f020 0003 	bic.w	r0, r0, #3
10007646:	f021 0103 	bic.w	r1, r1, #3
1000764a:	f850 2b04 	ldr.w	r2, [r0], #4
1000764e:	bf08      	it	eq
10007650:	f851 3b04 	ldreq.w	r3, [r1], #4
10007654:	d00e      	beq.n	10007674 <strcmp+0x40>
10007656:	f08c 0c03 	eor.w	ip, ip, #3
1000765a:	f06f 437f 	mvn.w	r3, #4278190080	@ 0xff000000
1000765e:	ea4f 0ccc 	mov.w	ip, ip, lsl #3
10007662:	fa23 fc0c 	lsr.w	ip, r3, ip
10007666:	f851 3b04 	ldr.w	r3, [r1], #4
1000766a:	ea42 020c 	orr.w	r2, r2, ip
1000766e:	ea43 030c 	orr.w	r3, r3, ip
10007672:	bf00      	nop
10007674:	f1a2 3c01 	sub.w	ip, r2, #16843009	@ 0x1010101
10007678:	429a      	cmp	r2, r3
1000767a:	bf01      	itttt	eq
1000767c:	ea2c 0c02 	biceq.w	ip, ip, r2
10007680:	f01c 3f80 	tsteq.w	ip, #2155905152	@ 0x80808080
10007684:	f850 2b04 	ldreq.w	r2, [r0], #4
10007688:	f851 3b04 	ldreq.w	r3, [r1], #4
1000768c:	d0f2      	beq.n	10007674 <strcmp+0x40>
1000768e:	ea4f 6002 	mov.w	r0, r2, lsl #24
10007692:	ea4f 2212 	mov.w	r2, r2, lsr #8
10007696:	2801      	cmp	r0, #1
10007698:	bf28      	it	cs
1000769a:	ebb0 6f03 	cmpcs.w	r0, r3, lsl #24
1000769e:	bf08      	it	eq
100076a0:	0a1b      	lsreq	r3, r3, #8
100076a2:	d0f4      	beq.n	1000768e <strcmp+0x5a>
100076a4:	f003 03ff 	and.w	r3, r3, #255	@ 0xff
100076a8:	0e00      	lsrs	r0, r0, #24
100076aa:	1ac0      	subs	r0, r0, r3
100076ac:	4770      	bx	lr
100076ae:	f010 0f03 	tst.w	r0, #3
100076b2:	d00a      	beq.n	100076ca <strcmp+0x96>
100076b4:	f810 2b01 	ldrb.w	r2, [r0], #1
100076b8:	f811 3b01 	ldrb.w	r3, [r1], #1
100076bc:	2a01      	cmp	r2, #1
100076be:	bf28      	it	cs
100076c0:	429a      	cmpcs	r2, r3
100076c2:	d0f4      	beq.n	100076ae <strcmp+0x7a>
100076c4:	eba2 0003 	sub.w	r0, r2, r3
100076c8:	4770      	bx	lr
100076ca:	b420      	push	{r5}
100076cc:	f850 2b04 	ldr.w	r2, [r0], #4
100076d0:	f001 0503 	and.w	r5, r1, #3
100076d4:	f021 0103 	bic.w	r1, r1, #3
100076d8:	f851 3b04 	ldr.w	r3, [r1], #4
100076dc:	2d02      	cmp	r5, #2
100076de:	d027      	beq.n	10007730 <strcmp+0xfc>
100076e0:	d84e      	bhi.n	10007780 <strcmp+0x14c>
100076e2:	bf00      	nop
100076e4:	f022 457f 	bic.w	r5, r2, #4278190080	@ 0xff000000
100076e8:	ebb5 2f13 	cmp.w	r5, r3, lsr #8
100076ec:	f1a2 3c01 	sub.w	ip, r2, #16843009	@ 0x1010101
100076f0:	ea2c 0c02 	bic.w	ip, ip, r2
100076f4:	d10d      	bne.n	10007712 <strcmp+0xde>
100076f6:	f01c 3c80 	ands.w	ip, ip, #2155905152	@ 0x80808080
100076fa:	bf08      	it	eq
100076fc:	f851 3b04 	ldreq.w	r3, [r1], #4
10007700:	d10a      	bne.n	10007718 <strcmp+0xe4>
10007702:	ea85 0502 	eor.w	r5, r5, r2
10007706:	ebb5 6f03 	cmp.w	r5, r3, lsl #24
1000770a:	d10c      	bne.n	10007726 <strcmp+0xf2>
1000770c:	f850 2b04 	ldr.w	r2, [r0], #4
10007710:	e7e8      	b.n	100076e4 <strcmp+0xb0>
10007712:	ea4f 2313 	mov.w	r3, r3, lsr #8
10007716:	e05b      	b.n	100077d0 <strcmp+0x19c>
10007718:	f03c 4c7f 	bics.w	ip, ip, #4278190080	@ 0xff000000
1000771c:	d154      	bne.n	100077c8 <strcmp+0x194>
1000771e:	780b      	ldrb	r3, [r1, #0]
10007720:	ea4f 6512 	mov.w	r5, r2, lsr #24
10007724:	e054      	b.n	100077d0 <strcmp+0x19c>
10007726:	ea4f 6512 	mov.w	r5, r2, lsr #24
1000772a:	f003 03ff 	and.w	r3, r3, #255	@ 0xff
1000772e:	e04f      	b.n	100077d0 <strcmp+0x19c>
10007730:	ea4f 4502 	mov.w	r5, r2, lsl #16
10007734:	f1a2 3c01 	sub.w	ip, r2, #16843009	@ 0x1010101
10007738:	ea4f 4515 	mov.w	r5, r5, lsr #16
1000773c:	ea2c 0c02 	bic.w	ip, ip, r2
10007740:	ebb5 4f13 	cmp.w	r5, r3, lsr #16
10007744:	d118      	bne.n	10007778 <strcmp+0x144>
10007746:	f01c 3c80 	ands.w	ip, ip, #2155905152	@ 0x80808080
1000774a:	bf08      	it	eq
1000774c:	f851 3b04 	ldreq.w	r3, [r1], #4
10007750:	d107      	bne.n	10007762 <strcmp+0x12e>
10007752:	ea85 0502 	eor.w	r5, r5, r2
10007756:	ebb5 4f03 	cmp.w	r5, r3, lsl #16
1000775a:	d109      	bne.n	10007770 <strcmp+0x13c>
1000775c:	f850 2b04 	ldr.w	r2, [r0], #4
10007760:	e7e6      	b.n	10007730 <strcmp+0xfc>
10007762:	ea5f 4c0c 	movs.w	ip, ip, lsl #16
10007766:	d12f      	bne.n	100077c8 <strcmp+0x194>
10007768:	880b      	ldrh	r3, [r1, #0]
1000776a:	ea4f 4512 	mov.w	r5, r2, lsr #16
1000776e:	e02f      	b.n	100077d0 <strcmp+0x19c>
10007770:	ea4f 4303 	mov.w	r3, r3, lsl #16
10007774:	ea4f 4512 	mov.w	r5, r2, lsr #16
10007778:	ea4f 4313 	mov.w	r3, r3, lsr #16
1000777c:	e028      	b.n	100077d0 <strcmp+0x19c>
1000777e:	bf00      	nop
10007780:	f002 05ff 	and.w	r5, r2, #255	@ 0xff
10007784:	ebb5 6f13 	cmp.w	r5, r3, lsr #24
10007788:	f1a2 3c01 	sub.w	ip, r2, #16843009	@ 0x1010101
1000778c:	ea2c 0c02 	bic.w	ip, ip, r2
10007790:	d10d      	bne.n	100077ae <strcmp+0x17a>
10007792:	f01c 3c80 	ands.w	ip, ip, #2155905152	@ 0x80808080
10007796:	bf08      	it	eq
10007798:	f851 3b04 	ldreq.w	r3, [r1], #4
1000779c:	d10a      	bne.n	100077b4 <strcmp+0x180>
1000779e:	ea85 0502 	eor.w	r5, r5, r2
100077a2:	ebb5 2f03 	cmp.w	r5, r3, lsl #8
100077a6:	d10a      	bne.n	100077be <strcmp+0x18a>
100077a8:	f850 2b04 	ldr.w	r2, [r0], #4
100077ac:	e7e8      	b.n	10007780 <strcmp+0x14c>
100077ae:	ea4f 6313 	mov.w	r3, r3, lsr #24
100077b2:	e00d      	b.n	100077d0 <strcmp+0x19c>
100077b4:	f012 0fff 	tst.w	r2, #255	@ 0xff
100077b8:	d006      	beq.n	100077c8 <strcmp+0x194>
100077ba:	f851 3b04 	ldr.w	r3, [r1], #4
100077be:	ea4f 2512 	mov.w	r5, r2, lsr #8
100077c2:	f023 437f 	bic.w	r3, r3, #4278190080	@ 0xff000000
100077c6:	e003      	b.n	100077d0 <strcmp+0x19c>
100077c8:	f04f 0000 	mov.w	r0, #0
100077cc:	bc20      	pop	{r5}
100077ce:	4770      	bx	lr
100077d0:	f005 02ff 	and.w	r2, r5, #255	@ 0xff
100077d4:	f003 00ff 	and.w	r0, r3, #255	@ 0xff
100077d8:	2801      	cmp	r0, #1
100077da:	bf28      	it	cs
100077dc:	4290      	cmpcs	r0, r2
100077de:	bf04      	itt	eq
100077e0:	0a2d      	lsreq	r5, r5, #8
100077e2:	0a1b      	lsreq	r3, r3, #8
100077e4:	d0f4      	beq.n	100077d0 <strcmp+0x19c>
100077e6:	eba2 0000 	sub.w	r0, r2, r0
100077ea:	bc20      	pop	{r5}
100077ec:	4770      	bx	lr
100077ee:	bf00      	nop

100077f0 <memcpy>:
100077f0:	4684      	mov	ip, r0
100077f2:	ea41 0300 	orr.w	r3, r1, r0
100077f6:	f013 0303 	ands.w	r3, r3, #3
100077fa:	d149      	bne.n	10007890 <memcpy+0xa0>
100077fc:	3a40      	subs	r2, #64	@ 0x40
100077fe:	d323      	bcc.n	10007848 <memcpy+0x58>
10007800:	680b      	ldr	r3, [r1, #0]
10007802:	6003      	str	r3, [r0, #0]
10007804:	684b      	ldr	r3, [r1, #4]
10007806:	6043      	str	r3, [r0, #4]
10007808:	688b      	ldr	r3, [r1, #8]
1000780a:	6083      	str	r3, [r0, #8]
1000780c:	68cb      	ldr	r3, [r1, #12]
1000780e:	60c3      	str	r3, [r0, #12]
10007810:	690b      	ldr	r3, [r1, #16]
10007812:	6103      	str	r3, [r0, #16]
10007814:	694b      	ldr	r3, [r1, #20]
10007816:	6143      	str	r3, [r0, #20]
10007818:	698b      	ldr	r3, [r1, #24]
1000781a:	6183      	str	r3, [r0, #24]
1000781c:	69cb      	ldr	r3, [r1, #28]
1000781e:	61c3      	str	r3, [r0, #28]
10007820:	6a0b      	ldr	r3, [r1, #32]
10007822:	6203      	str	r3, [r0, #32]
10007824:	6a4b      	ldr	r3, [r1, #36]	@ 0x24
10007826:	6243      	str	r3, [r0, #36]	@ 0x24
10007828:	6a8b      	ldr	r3, [r1, #40]	@ 0x28
1000782a:	6283      	str	r3, [r0, #40]	@ 0x28
1000782c:	6acb      	ldr	r3, [r1, #44]	@ 0x2c
1000782e:	62c3      	str	r3, [r0, #44]	@ 0x2c
10007830:	6b0b      	ldr	r3, [r1, #48]	@ 0x30
10007832:	6303      	str	r3, [r0, #48]	@ 0x30
10007834:	6b4b      	ldr	r3, [r1, #52]	@ 0x34
10007836:	6343      	str	r3, [r0, #52]	@ 0x34
10007838:	6b8b      	ldr	r3, [r1, #56]	@ 0x38
1000783a:	6383      	str	r3, [r0, #56]	@ 0x38
1000783c:	6bcb      	ldr	r3, [r1, #60]	@ 0x3c
1000783e:	63c3      	str	r3, [r0, #60]	@ 0x3c
10007840:	3040      	adds	r0, #64	@ 0x40
10007842:	3140      	adds	r1, #64	@ 0x40
10007844:	3a40      	subs	r2, #64	@ 0x40
10007846:	d2db      	bcs.n	10007800 <memcpy+0x10>
10007848:	3230      	adds	r2, #48	@ 0x30
1000784a:	d30b      	bcc.n	10007864 <memcpy+0x74>
1000784c:	680b      	ldr	r3, [r1, #0]
1000784e:	6003      	str	r3, [r0, #0]
10007850:	684b      	ldr	r3, [r1, #4]
10007852:	6043      	str	r3, [r0, #4]
10007854:	688b      	ldr	r3, [r1, #8]
10007856:	6083      	str	r3, [r0, #8]
10007858:	68cb      	ldr	r3, [r1, #12]
1000785a:	60c3      	str	r3, [r0, #12]
1000785c:	3010      	adds	r0, #16
1000785e:	3110      	adds	r1, #16
10007860:	3a10      	subs	r2, #16
10007862:	d2f3      	bcs.n	1000784c <memcpy+0x5c>
10007864:	320c      	adds	r2, #12
10007866:	d305      	bcc.n	10007874 <memcpy+0x84>
10007868:	f851 3b04 	ldr.w	r3, [r1], #4
1000786c:	f840 3b04 	str.w	r3, [r0], #4
10007870:	3a04      	subs	r2, #4
10007872:	d2f9      	bcs.n	10007868 <memcpy+0x78>
10007874:	3204      	adds	r2, #4
10007876:	d008      	beq.n	1000788a <memcpy+0x9a>
10007878:	07d2      	lsls	r2, r2, #31
1000787a:	bf1c      	itt	ne
1000787c:	f811 3b01 	ldrbne.w	r3, [r1], #1
10007880:	f800 3b01 	strbne.w	r3, [r0], #1
10007884:	d301      	bcc.n	1000788a <memcpy+0x9a>
10007886:	880b      	ldrh	r3, [r1, #0]
10007888:	8003      	strh	r3, [r0, #0]
1000788a:	4660      	mov	r0, ip
1000788c:	4770      	bx	lr
1000788e:	bf00      	nop
10007890:	2a08      	cmp	r2, #8
10007892:	d313      	bcc.n	100078bc <memcpy+0xcc>
10007894:	078b      	lsls	r3, r1, #30
10007896:	d0b1      	beq.n	100077fc <memcpy+0xc>
10007898:	f010 0303 	ands.w	r3, r0, #3
1000789c:	d0ae      	beq.n	100077fc <memcpy+0xc>
1000789e:	f1c3 0304 	rsb	r3, r3, #4
100078a2:	1ad2      	subs	r2, r2, r3
100078a4:	07db      	lsls	r3, r3, #31
100078a6:	bf1c      	itt	ne
100078a8:	f811 3b01 	ldrbne.w	r3, [r1], #1
100078ac:	f800 3b01 	strbne.w	r3, [r0], #1
100078b0:	d3a4      	bcc.n	100077fc <memcpy+0xc>
100078b2:	f831 3b02 	ldrh.w	r3, [r1], #2
100078b6:	f820 3b02 	strh.w	r3, [r0], #2
100078ba:	e79f      	b.n	100077fc <memcpy+0xc>
100078bc:	3a04      	subs	r2, #4
100078be:	d3d9      	bcc.n	10007874 <memcpy+0x84>
100078c0:	3a01      	subs	r2, #1
100078c2:	f811 3b01 	ldrb.w	r3, [r1], #1
100078c6:	f800 3b01 	strb.w	r3, [r0], #1
100078ca:	d2f9      	bcs.n	100078c0 <memcpy+0xd0>
100078cc:	780b      	ldrb	r3, [r1, #0]
100078ce:	7003      	strb	r3, [r0, #0]
100078d0:	784b      	ldrb	r3, [r1, #1]
100078d2:	7043      	strb	r3, [r0, #1]
100078d4:	788b      	ldrb	r3, [r1, #2]
100078d6:	7083      	strb	r3, [r0, #2]
100078d8:	4660      	mov	r0, ip
100078da:	4770      	bx	lr

100078dc <strlen>:
100078dc:	f020 0103 	bic.w	r1, r0, #3
100078e0:	f010 0003 	ands.w	r0, r0, #3
100078e4:	f1c0 0000 	rsb	r0, r0, #0
100078e8:	f851 3b04 	ldr.w	r3, [r1], #4
100078ec:	f100 0c04 	add.w	ip, r0, #4
100078f0:	ea4f 0ccc 	mov.w	ip, ip, lsl #3
100078f4:	f06f 0200 	mvn.w	r2, #0
100078f8:	bf1c      	itt	ne
100078fa:	fa22 f20c 	lsrne.w	r2, r2, ip
100078fe:	4313      	orrne	r3, r2
10007900:	f04f 0c01 	mov.w	ip, #1
10007904:	ea4c 2c0c 	orr.w	ip, ip, ip, lsl #8
10007908:	ea4c 4c0c 	orr.w	ip, ip, ip, lsl #16
1000790c:	eba3 020c 	sub.w	r2, r3, ip
10007910:	ea22 0203 	bic.w	r2, r2, r3
10007914:	ea12 12cc 	ands.w	r2, r2, ip, lsl #7
10007918:	bf04      	itt	eq
1000791a:	f851 3b04 	ldreq.w	r3, [r1], #4
1000791e:	3004      	addeq	r0, #4
10007920:	d0f4      	beq.n	1000790c <strlen+0x30>
10007922:	f1c2 0100 	rsb	r1, r2, #0
10007926:	ea02 0201 	and.w	r2, r2, r1
1000792a:	fab2 f282 	clz	r2, r2
1000792e:	f1c2 021f 	rsb	r2, r2, #31
10007932:	eb00 00d2 	add.w	r0, r0, r2, lsr #3
10007936:	4770      	bx	lr

10007938 <_malloc_trim_r>:
10007938:	e92d 43f8 	stmdb	sp!, {r3, r4, r5, r6, r7, r8, r9, lr}
1000793c:	4606      	mov	r6, r0
1000793e:	f8df 80ac 	ldr.w	r8, [pc, #172]	@ 100079ec <_malloc_trim_r+0xb4>
10007942:	2008      	movs	r0, #8
10007944:	4689      	mov	r9, r1
10007946:	f7ff fe67 	bl	10007618 <sysconf>
1000794a:	4605      	mov	r5, r0
1000794c:	4630      	mov	r0, r6
1000794e:	f7ff fa89 	bl	10006e64 <__malloc_lock>
10007952:	f8d8 3008 	ldr.w	r3, [r8, #8]
10007956:	685f      	ldr	r7, [r3, #4]
10007958:	f027 0703 	bic.w	r7, r7, #3
1000795c:	f1a7 0411 	sub.w	r4, r7, #17
10007960:	eba4 0409 	sub.w	r4, r4, r9
10007964:	442c      	add	r4, r5
10007966:	fbb4 f4f5 	udiv	r4, r4, r5
1000796a:	3c01      	subs	r4, #1
1000796c:	fb05 f404 	mul.w	r4, r5, r4
10007970:	42a5      	cmp	r5, r4
10007972:	dc08      	bgt.n	10007986 <_malloc_trim_r+0x4e>
10007974:	2100      	movs	r1, #0
10007976:	4630      	mov	r0, r6
10007978:	f7ff fe32 	bl	100075e0 <_sbrk_r>
1000797c:	f8d8 3008 	ldr.w	r3, [r8, #8]
10007980:	443b      	add	r3, r7
10007982:	4298      	cmp	r0, r3
10007984:	d005      	beq.n	10007992 <_malloc_trim_r+0x5a>
10007986:	4630      	mov	r0, r6
10007988:	f7ff fa72 	bl	10006e70 <__malloc_unlock>
1000798c:	2000      	movs	r0, #0
1000798e:	e8bd 83f8 	ldmia.w	sp!, {r3, r4, r5, r6, r7, r8, r9, pc}
10007992:	4261      	negs	r1, r4
10007994:	4630      	mov	r0, r6
10007996:	f7ff fe23 	bl	100075e0 <_sbrk_r>
1000799a:	3001      	adds	r0, #1
1000799c:	d00f      	beq.n	100079be <_malloc_trim_r+0x86>
1000799e:	1b3f      	subs	r7, r7, r4
100079a0:	4a10      	ldr	r2, [pc, #64]	@ (100079e4 <_malloc_trim_r+0xac>)
100079a2:	f8d8 3008 	ldr.w	r3, [r8, #8]
100079a6:	4630      	mov	r0, r6
100079a8:	f047 0701 	orr.w	r7, r7, #1
100079ac:	605f      	str	r7, [r3, #4]
100079ae:	6813      	ldr	r3, [r2, #0]
100079b0:	1b1b      	subs	r3, r3, r4
100079b2:	6013      	str	r3, [r2, #0]
100079b4:	f7ff fa5c 	bl	10006e70 <__malloc_unlock>
100079b8:	2001      	movs	r0, #1
100079ba:	e8bd 83f8 	ldmia.w	sp!, {r3, r4, r5, r6, r7, r8, r9, pc}
100079be:	2100      	movs	r1, #0
100079c0:	4630      	mov	r0, r6
100079c2:	f7ff fe0d 	bl	100075e0 <_sbrk_r>
100079c6:	f8d8 2008 	ldr.w	r2, [r8, #8]
100079ca:	1a83      	subs	r3, r0, r2
100079cc:	2b0f      	cmp	r3, #15
100079ce:	ddda      	ble.n	10007986 <_malloc_trim_r+0x4e>
100079d0:	f043 0301 	orr.w	r3, r3, #1
100079d4:	4903      	ldr	r1, [pc, #12]	@ (100079e4 <_malloc_trim_r+0xac>)
100079d6:	6053      	str	r3, [r2, #4]
100079d8:	4b03      	ldr	r3, [pc, #12]	@ (100079e8 <_malloc_trim_r+0xb0>)
100079da:	681b      	ldr	r3, [r3, #0]
100079dc:	1ac0      	subs	r0, r0, r3
100079de:	6008      	str	r0, [r1, #0]
100079e0:	e7d1      	b.n	10007986 <_malloc_trim_r+0x4e>
100079e2:	bf00      	nop
100079e4:	20001720 	.word	0x20001720
100079e8:	20000ec8 	.word	0x20000ec8
100079ec:	20000ed0 	.word	0x20000ed0

100079f0 <_free_r>:
100079f0:	2900      	cmp	r1, #0
100079f2:	d05a      	beq.n	10007aaa <_free_r+0xba>
100079f4:	b5f8      	push	{r3, r4, r5, r6, r7, lr}
100079f6:	460c      	mov	r4, r1
100079f8:	4607      	mov	r7, r0
100079fa:	f7ff fa33 	bl	10006e64 <__malloc_lock>
100079fe:	4d73      	ldr	r5, [pc, #460]	@ (10007bcc <_free_r+0x1dc>)
10007a00:	f854 cc04 	ldr.w	ip, [r4, #-4]
10007a04:	f1a4 0208 	sub.w	r2, r4, #8
10007a08:	68a8      	ldr	r0, [r5, #8]
10007a0a:	f02c 0301 	bic.w	r3, ip, #1
10007a0e:	f00c 0e01 	and.w	lr, ip, #1
10007a12:	18d1      	adds	r1, r2, r3
10007a14:	684e      	ldr	r6, [r1, #4]
10007a16:	4288      	cmp	r0, r1
10007a18:	f026 0603 	bic.w	r6, r6, #3
10007a1c:	d07c      	beq.n	10007b18 <_free_r+0x128>
10007a1e:	1988      	adds	r0, r1, r6
10007a20:	604e      	str	r6, [r1, #4]
10007a22:	6840      	ldr	r0, [r0, #4]
10007a24:	f000 0001 	and.w	r0, r0, #1
10007a28:	f1be 0f00 	cmp.w	lr, #0
10007a2c:	d12e      	bne.n	10007a8c <_free_r+0x9c>
10007a2e:	f854 4c08 	ldr.w	r4, [r4, #-8]
10007a32:	f105 0c08 	add.w	ip, r5, #8
10007a36:	1b12      	subs	r2, r2, r4
10007a38:	4423      	add	r3, r4
10007a3a:	6894      	ldr	r4, [r2, #8]
10007a3c:	4564      	cmp	r4, ip
10007a3e:	d060      	beq.n	10007b02 <_free_r+0x112>
10007a40:	f8d2 e00c 	ldr.w	lr, [r2, #12]
10007a44:	f8c4 e00c 	str.w	lr, [r4, #12]
10007a48:	f8ce 4008 	str.w	r4, [lr, #8]
10007a4c:	2800      	cmp	r0, #0
10007a4e:	d07d      	beq.n	10007b4c <_free_r+0x15c>
10007a50:	f043 0001 	orr.w	r0, r3, #1
10007a54:	6050      	str	r0, [r2, #4]
10007a56:	600b      	str	r3, [r1, #0]
10007a58:	f5b3 7f00 	cmp.w	r3, #512	@ 0x200
10007a5c:	d22e      	bcs.n	10007abc <_free_r+0xcc>
10007a5e:	0958      	lsrs	r0, r3, #5
10007a60:	08d9      	lsrs	r1, r3, #3
10007a62:	2301      	movs	r3, #1
10007a64:	4083      	lsls	r3, r0
10007a66:	6868      	ldr	r0, [r5, #4]
10007a68:	3101      	adds	r1, #1
10007a6a:	4303      	orrs	r3, r0
10007a6c:	f855 0031 	ldr.w	r0, [r5, r1, lsl #3]
10007a70:	606b      	str	r3, [r5, #4]
10007a72:	eb05 03c1 	add.w	r3, r5, r1, lsl #3
10007a76:	3b08      	subs	r3, #8
10007a78:	e9c2 0302 	strd	r0, r3, [r2, #8]
10007a7c:	f845 2031 	str.w	r2, [r5, r1, lsl #3]
10007a80:	60c2      	str	r2, [r0, #12]
10007a82:	4638      	mov	r0, r7
10007a84:	e8bd 40f8 	ldmia.w	sp!, {r3, r4, r5, r6, r7, lr}
10007a88:	f7ff b9f2 	b.w	10006e70 <__malloc_unlock>
10007a8c:	b970      	cbnz	r0, 10007aac <_free_r+0xbc>
10007a8e:	4433      	add	r3, r6
10007a90:	f105 0c08 	add.w	ip, r5, #8
10007a94:	6888      	ldr	r0, [r1, #8]
10007a96:	f043 0401 	orr.w	r4, r3, #1
10007a9a:	4560      	cmp	r0, ip
10007a9c:	d06e      	beq.n	10007b7c <_free_r+0x18c>
10007a9e:	68c9      	ldr	r1, [r1, #12]
10007aa0:	60c1      	str	r1, [r0, #12]
10007aa2:	6088      	str	r0, [r1, #8]
10007aa4:	6054      	str	r4, [r2, #4]
10007aa6:	50d3      	str	r3, [r2, r3]
10007aa8:	e7d6      	b.n	10007a58 <_free_r+0x68>
10007aaa:	4770      	bx	lr
10007aac:	f04c 0101 	orr.w	r1, ip, #1
10007ab0:	f5b3 7f00 	cmp.w	r3, #512	@ 0x200
10007ab4:	f844 1c04 	str.w	r1, [r4, #-4]
10007ab8:	50d3      	str	r3, [r2, r3]
10007aba:	d3d0      	bcc.n	10007a5e <_free_r+0x6e>
10007abc:	f5b3 6f20 	cmp.w	r3, #2560	@ 0xa00
10007ac0:	ea4f 2153 	mov.w	r1, r3, lsr #9
10007ac4:	d244      	bcs.n	10007b50 <_free_r+0x160>
10007ac6:	0999      	lsrs	r1, r3, #6
10007ac8:	f101 0039 	add.w	r0, r1, #57	@ 0x39
10007acc:	f101 0438 	add.w	r4, r1, #56	@ 0x38
10007ad0:	00c1      	lsls	r1, r0, #3
10007ad2:	1868      	adds	r0, r5, r1
10007ad4:	5869      	ldr	r1, [r5, r1]
10007ad6:	3808      	subs	r0, #8
10007ad8:	4288      	cmp	r0, r1
10007ada:	d103      	bne.n	10007ae4 <_free_r+0xf4>
10007adc:	e055      	b.n	10007b8a <_free_r+0x19a>
10007ade:	6889      	ldr	r1, [r1, #8]
10007ae0:	4288      	cmp	r0, r1
10007ae2:	d004      	beq.n	10007aee <_free_r+0xfe>
10007ae4:	684c      	ldr	r4, [r1, #4]
10007ae6:	f024 0403 	bic.w	r4, r4, #3
10007aea:	429c      	cmp	r4, r3
10007aec:	d8f7      	bhi.n	10007ade <_free_r+0xee>
10007aee:	68c8      	ldr	r0, [r1, #12]
10007af0:	e9c2 1002 	strd	r1, r0, [r2, #8]
10007af4:	6082      	str	r2, [r0, #8]
10007af6:	4638      	mov	r0, r7
10007af8:	60ca      	str	r2, [r1, #12]
10007afa:	e8bd 40f8 	ldmia.w	sp!, {r3, r4, r5, r6, r7, lr}
10007afe:	f7ff b9b7 	b.w	10006e70 <__malloc_unlock>
10007b02:	bb80      	cbnz	r0, 10007b66 <_free_r+0x176>
10007b04:	441e      	add	r6, r3
10007b06:	e9d1 1302 	ldrd	r1, r3, [r1, #8]
10007b0a:	60cb      	str	r3, [r1, #12]
10007b0c:	6099      	str	r1, [r3, #8]
10007b0e:	f046 0301 	orr.w	r3, r6, #1
10007b12:	6053      	str	r3, [r2, #4]
10007b14:	5196      	str	r6, [r2, r6]
10007b16:	e7b4      	b.n	10007a82 <_free_r+0x92>
10007b18:	441e      	add	r6, r3
10007b1a:	f1be 0f00 	cmp.w	lr, #0
10007b1e:	d107      	bne.n	10007b30 <_free_r+0x140>
10007b20:	f854 3c08 	ldr.w	r3, [r4, #-8]
10007b24:	1ad2      	subs	r2, r2, r3
10007b26:	441e      	add	r6, r3
10007b28:	e9d2 1302 	ldrd	r1, r3, [r2, #8]
10007b2c:	60cb      	str	r3, [r1, #12]
10007b2e:	6099      	str	r1, [r3, #8]
10007b30:	f046 0301 	orr.w	r3, r6, #1
10007b34:	6053      	str	r3, [r2, #4]
10007b36:	4b26      	ldr	r3, [pc, #152]	@ (10007bd0 <_free_r+0x1e0>)
10007b38:	60aa      	str	r2, [r5, #8]
10007b3a:	681b      	ldr	r3, [r3, #0]
10007b3c:	42b3      	cmp	r3, r6
10007b3e:	d8a0      	bhi.n	10007a82 <_free_r+0x92>
10007b40:	4b24      	ldr	r3, [pc, #144]	@ (10007bd4 <_free_r+0x1e4>)
10007b42:	4638      	mov	r0, r7
10007b44:	6819      	ldr	r1, [r3, #0]
10007b46:	f7ff fef7 	bl	10007938 <_malloc_trim_r>
10007b4a:	e79a      	b.n	10007a82 <_free_r+0x92>
10007b4c:	4433      	add	r3, r6
10007b4e:	e7a1      	b.n	10007a94 <_free_r+0xa4>
10007b50:	2914      	cmp	r1, #20
10007b52:	d90d      	bls.n	10007b70 <_free_r+0x180>
10007b54:	2954      	cmp	r1, #84	@ 0x54
10007b56:	d81f      	bhi.n	10007b98 <_free_r+0x1a8>
10007b58:	0b19      	lsrs	r1, r3, #12
10007b5a:	f101 006f 	add.w	r0, r1, #111	@ 0x6f
10007b5e:	f101 046e 	add.w	r4, r1, #110	@ 0x6e
10007b62:	00c1      	lsls	r1, r0, #3
10007b64:	e7b5      	b.n	10007ad2 <_free_r+0xe2>
10007b66:	f043 0001 	orr.w	r0, r3, #1
10007b6a:	6050      	str	r0, [r2, #4]
10007b6c:	600b      	str	r3, [r1, #0]
10007b6e:	e788      	b.n	10007a82 <_free_r+0x92>
10007b70:	f101 005c 	add.w	r0, r1, #92	@ 0x5c
10007b74:	f101 045b 	add.w	r4, r1, #91	@ 0x5b
10007b78:	00c1      	lsls	r1, r0, #3
10007b7a:	e7aa      	b.n	10007ad2 <_free_r+0xe2>
10007b7c:	e9c5 2204 	strd	r2, r2, [r5, #16]
10007b80:	e9c2 cc02 	strd	ip, ip, [r2, #8]
10007b84:	6054      	str	r4, [r2, #4]
10007b86:	50d3      	str	r3, [r2, r3]
10007b88:	e77b      	b.n	10007a82 <_free_r+0x92>
10007b8a:	10a4      	asrs	r4, r4, #2
10007b8c:	2301      	movs	r3, #1
10007b8e:	40a3      	lsls	r3, r4
10007b90:	686c      	ldr	r4, [r5, #4]
10007b92:	4323      	orrs	r3, r4
10007b94:	606b      	str	r3, [r5, #4]
10007b96:	e7ab      	b.n	10007af0 <_free_r+0x100>
10007b98:	f5b1 7faa 	cmp.w	r1, #340	@ 0x154
10007b9c:	d806      	bhi.n	10007bac <_free_r+0x1bc>
10007b9e:	0bd9      	lsrs	r1, r3, #15
10007ba0:	f101 0078 	add.w	r0, r1, #120	@ 0x78
10007ba4:	f101 0477 	add.w	r4, r1, #119	@ 0x77
10007ba8:	00c1      	lsls	r1, r0, #3
10007baa:	e792      	b.n	10007ad2 <_free_r+0xe2>
10007bac:	f240 5054 	movw	r0, #1364	@ 0x554
10007bb0:	4281      	cmp	r1, r0
10007bb2:	d806      	bhi.n	10007bc2 <_free_r+0x1d2>
10007bb4:	0c99      	lsrs	r1, r3, #18
10007bb6:	f101 007d 	add.w	r0, r1, #125	@ 0x7d
10007bba:	f101 047c 	add.w	r4, r1, #124	@ 0x7c
10007bbe:	00c1      	lsls	r1, r0, #3
10007bc0:	e787      	b.n	10007ad2 <_free_r+0xe2>
10007bc2:	f44f 717e 	mov.w	r1, #1016	@ 0x3f8
10007bc6:	247e      	movs	r4, #126	@ 0x7e
10007bc8:	e783      	b.n	10007ad2 <_free_r+0xe2>
10007bca:	bf00      	nop
10007bcc:	20000ed0 	.word	0x20000ed0
10007bd0:	20000ecc 	.word	0x20000ecc
10007bd4:	20001750 	.word	0x20001750

10007bd8 <_sungetc_r>:
10007bd8:	b538      	push	{r3, r4, r5, lr}
10007bda:	1c4b      	adds	r3, r1, #1
10007bdc:	d01a      	beq.n	10007c14 <_sungetc_r+0x3c>
10007bde:	8993      	ldrh	r3, [r2, #12]
10007be0:	4614      	mov	r4, r2
10007be2:	6852      	ldr	r2, [r2, #4]
10007be4:	b2cd      	uxtb	r5, r1
10007be6:	f023 0320 	bic.w	r3, r3, #32
10007bea:	81a3      	strh	r3, [r4, #12]
10007bec:	6b23      	ldr	r3, [r4, #48]	@ 0x30
10007bee:	b1a3      	cbz	r3, 10007c1a <_sungetc_r+0x42>
10007bf0:	6b63      	ldr	r3, [r4, #52]	@ 0x34
10007bf2:	4293      	cmp	r3, r2
10007bf4:	dd09      	ble.n	10007c0a <_sungetc_r+0x32>
10007bf6:	6823      	ldr	r3, [r4, #0]
10007bf8:	1e5a      	subs	r2, r3, #1
10007bfa:	6022      	str	r2, [r4, #0]
10007bfc:	f803 5c01 	strb.w	r5, [r3, #-1]
10007c00:	6863      	ldr	r3, [r4, #4]
10007c02:	3301      	adds	r3, #1
10007c04:	6063      	str	r3, [r4, #4]
10007c06:	4628      	mov	r0, r5
10007c08:	bd38      	pop	{r3, r4, r5, pc}
10007c0a:	4621      	mov	r1, r4
10007c0c:	f001 fce6 	bl	100095dc <__submore>
10007c10:	2800      	cmp	r0, #0
10007c12:	d0f0      	beq.n	10007bf6 <_sungetc_r+0x1e>
10007c14:	f04f 35ff 	mov.w	r5, #4294967295	@ 0xffffffff
10007c18:	e7f5      	b.n	10007c06 <_sungetc_r+0x2e>
10007c1a:	6923      	ldr	r3, [r4, #16]
10007c1c:	6821      	ldr	r1, [r4, #0]
10007c1e:	b12b      	cbz	r3, 10007c2c <_sungetc_r+0x54>
10007c20:	428b      	cmp	r3, r1
10007c22:	d203      	bcs.n	10007c2c <_sungetc_r+0x54>
10007c24:	f811 3c01 	ldrb.w	r3, [r1, #-1]
10007c28:	42ab      	cmp	r3, r5
10007c2a:	d00e      	beq.n	10007c4a <_sungetc_r+0x72>
10007c2c:	4623      	mov	r3, r4
10007c2e:	f104 0040 	add.w	r0, r4, #64	@ 0x40
10007c32:	e9c4 120e 	strd	r1, r2, [r4, #56]	@ 0x38
10007c36:	2103      	movs	r1, #3
10007c38:	2201      	movs	r2, #1
10007c3a:	6320      	str	r0, [r4, #48]	@ 0x30
10007c3c:	4628      	mov	r0, r5
10007c3e:	6361      	str	r1, [r4, #52]	@ 0x34
10007c40:	f803 5f42 	strb.w	r5, [r3, #66]!
10007c44:	e9c4 3200 	strd	r3, r2, [r4]
10007c48:	bd38      	pop	{r3, r4, r5, pc}
10007c4a:	3901      	subs	r1, #1
10007c4c:	3201      	adds	r2, #1
10007c4e:	e9c4 1200 	strd	r1, r2, [r4]
10007c52:	e7d8      	b.n	10007c06 <_sungetc_r+0x2e>

10007c54 <__ssrefill_r>:
10007c54:	b510      	push	{r4, lr}
10007c56:	460c      	mov	r4, r1
10007c58:	6b09      	ldr	r1, [r1, #48]	@ 0x30
10007c5a:	b169      	cbz	r1, 10007c78 <__ssrefill_r+0x24>
10007c5c:	f104 0340 	add.w	r3, r4, #64	@ 0x40
10007c60:	4299      	cmp	r1, r3
10007c62:	d001      	beq.n	10007c68 <__ssrefill_r+0x14>
10007c64:	f7ff fec4 	bl	100079f0 <_free_r>
10007c68:	2000      	movs	r0, #0
10007c6a:	6be3      	ldr	r3, [r4, #60]	@ 0x3c
10007c6c:	6320      	str	r0, [r4, #48]	@ 0x30
10007c6e:	6063      	str	r3, [r4, #4]
10007c70:	b113      	cbz	r3, 10007c78 <__ssrefill_r+0x24>
10007c72:	6ba3      	ldr	r3, [r4, #56]	@ 0x38
10007c74:	6023      	str	r3, [r4, #0]
10007c76:	bd10      	pop	{r4, pc}
10007c78:	89a2      	ldrh	r2, [r4, #12]
10007c7a:	2100      	movs	r1, #0
10007c7c:	6923      	ldr	r3, [r4, #16]
10007c7e:	f04f 30ff 	mov.w	r0, #4294967295	@ 0xffffffff
10007c82:	f042 0220 	orr.w	r2, r2, #32
10007c86:	6061      	str	r1, [r4, #4]
10007c88:	81a2      	strh	r2, [r4, #12]
10007c8a:	e7f3      	b.n	10007c74 <__ssrefill_r+0x20>

10007c8c <_sfread_r>:
10007c8c:	e92d 4ff0 	stmdb	sp!, {r4, r5, r6, r7, r8, r9, sl, fp, lr}
10007c90:	4683      	mov	fp, r0
10007c92:	b085      	sub	sp, #20
10007c94:	fb02 f003 	mul.w	r0, r2, r3
10007c98:	9c0e      	ldr	r4, [sp, #56]	@ 0x38
10007c9a:	9301      	str	r3, [sp, #4]
10007c9c:	b3a0      	cbz	r0, 10007d08 <_sfread_r+0x7c>
10007c9e:	4688      	mov	r8, r1
10007ca0:	4606      	mov	r6, r0
10007ca2:	e9d4 1500 	ldrd	r1, r5, [r4]
10007ca6:	42a8      	cmp	r0, r5
10007ca8:	d923      	bls.n	10007cf2 <_sfread_r+0x66>
10007caa:	f04f 0900 	mov.w	r9, #0
10007cae:	f104 0a40 	add.w	sl, r4, #64	@ 0x40
10007cb2:	e9cd 0202 	strd	r0, r2, [sp, #8]
10007cb6:	4640      	mov	r0, r8
10007cb8:	462a      	mov	r2, r5
10007cba:	f7ff fd99 	bl	100077f0 <memcpy>
10007cbe:	6821      	ldr	r1, [r4, #0]
10007cc0:	6b23      	ldr	r3, [r4, #48]	@ 0x30
10007cc2:	4658      	mov	r0, fp
10007cc4:	194f      	adds	r7, r1, r5
10007cc6:	44a8      	add	r8, r5
10007cc8:	4619      	mov	r1, r3
10007cca:	f8c4 9004 	str.w	r9, [r4, #4]
10007cce:	6027      	str	r7, [r4, #0]
10007cd0:	4637      	mov	r7, r6
10007cd2:	1b76      	subs	r6, r6, r5
10007cd4:	b1db      	cbz	r3, 10007d0e <_sfread_r+0x82>
10007cd6:	4553      	cmp	r3, sl
10007cd8:	d001      	beq.n	10007cde <_sfread_r+0x52>
10007cda:	f7ff fe89 	bl	100079f0 <_free_r>
10007cde:	6be0      	ldr	r0, [r4, #60]	@ 0x3c
10007ce0:	f8c4 9030 	str.w	r9, [r4, #48]	@ 0x30
10007ce4:	6060      	str	r0, [r4, #4]
10007ce6:	b190      	cbz	r0, 10007d0e <_sfread_r+0x82>
10007ce8:	6ba1      	ldr	r1, [r4, #56]	@ 0x38
10007cea:	42b0      	cmp	r0, r6
10007cec:	4605      	mov	r5, r0
10007cee:	6021      	str	r1, [r4, #0]
10007cf0:	d3e1      	bcc.n	10007cb6 <_sfread_r+0x2a>
10007cf2:	4632      	mov	r2, r6
10007cf4:	4640      	mov	r0, r8
10007cf6:	f7ff fd7b 	bl	100077f0 <memcpy>
10007cfa:	9801      	ldr	r0, [sp, #4]
10007cfc:	e9d4 3200 	ldrd	r3, r2, [r4]
10007d00:	1b92      	subs	r2, r2, r6
10007d02:	4433      	add	r3, r6
10007d04:	e9c4 3200 	strd	r3, r2, [r4]
10007d08:	b005      	add	sp, #20
10007d0a:	e8bd 8ff0 	ldmia.w	sp!, {r4, r5, r6, r7, r8, r9, sl, fp, pc}
10007d0e:	e9dd 0202 	ldrd	r0, r2, [sp, #8]
10007d12:	89a3      	ldrh	r3, [r4, #12]
10007d14:	4428      	add	r0, r5
10007d16:	f043 0320 	orr.w	r3, r3, #32
10007d1a:	1bc0      	subs	r0, r0, r7
10007d1c:	81a3      	strh	r3, [r4, #12]
10007d1e:	2300      	movs	r3, #0
10007d20:	fbb0 f0f2 	udiv	r0, r0, r2
10007d24:	6922      	ldr	r2, [r4, #16]
10007d26:	e9c4 2300 	strd	r2, r3, [r4]
10007d2a:	b005      	add	sp, #20
10007d2c:	e8bd 8ff0 	ldmia.w	sp!, {r4, r5, r6, r7, r8, r9, sl, fp, pc}

10007d30 <__ssvfscanf_r>:
10007d30:	e92d 4ff0 	stmdb	sp!, {r4, r5, r6, r7, r8, r9, sl, fp, lr}
10007d34:	f5ad 7d33 	sub.w	sp, sp, #716	@ 0x2cc
10007d38:	460c      	mov	r4, r1
10007d3a:	af02      	add	r7, sp, #8
10007d3c:	62fb      	str	r3, [r7, #44]	@ 0x2c
10007d3e:	f9b1 300c 	ldrsh.w	r3, [r1, #12]
10007d42:	6478      	str	r0, [r7, #68]	@ 0x44
10007d44:	049e      	lsls	r6, r3, #18
10007d46:	6e49      	ldr	r1, [r1, #100]	@ 0x64
10007d48:	f100 80ec 	bmi.w	10007f24 <__ssvfscanf_r+0x1f4>
10007d4c:	f443 5300 	orr.w	r3, r3, #8192	@ 0x2000
10007d50:	f421 5100 	bic.w	r1, r1, #8192	@ 0x2000
10007d54:	81a3      	strh	r3, [r4, #12]
10007d56:	6661      	str	r1, [r4, #100]	@ 0x64
10007d58:	4691      	mov	r9, r2
10007d5a:	f819 3b01 	ldrb.w	r3, [r9], #1
10007d5e:	64fb      	str	r3, [r7, #76]	@ 0x4c
10007d60:	2b00      	cmp	r3, #0
10007d62:	f001 816f 	beq.w	10009044 <__ssvfscanf_r+0x1314>
10007d66:	f04f 0c00 	mov.w	ip, #0
10007d6a:	f8df b474 	ldr.w	fp, [pc, #1140]	@ 100081e0 <__ssvfscanf_r+0x4b0>
10007d6e:	46e2      	mov	sl, ip
10007d70:	f8c7 c034 	str.w	ip, [r7, #52]	@ 0x34
10007d74:	f8c7 c01c 	str.w	ip, [r7, #28]
10007d78:	f8c7 c030 	str.w	ip, [r7, #48]	@ 0x30
10007d7c:	f8c7 c038 	str.w	ip, [r7, #56]	@ 0x38
10007d80:	f8c7 c020 	str.w	ip, [r7, #32]
10007d84:	f81b 6003 	ldrb.w	r6, [fp, r3]
10007d88:	f016 0608 	ands.w	r6, r6, #8
10007d8c:	d17d      	bne.n	10007e8a <__ssvfscanf_r+0x15a>
10007d8e:	2b25      	cmp	r3, #37	@ 0x25
10007d90:	d162      	bne.n	10007e58 <__ssvfscanf_r+0x128>
10007d92:	f899 1000 	ldrb.w	r1, [r9]
10007d96:	4635      	mov	r5, r6
10007d98:	4632      	mov	r2, r6
10007d9a:	f1a1 0325 	sub.w	r3, r1, #37	@ 0x25
10007d9e:	f109 0001 	add.w	r0, r9, #1
10007da2:	2b55      	cmp	r3, #85	@ 0x55
10007da4:	d861      	bhi.n	10007e6a <__ssvfscanf_r+0x13a>
10007da6:	e8df f013 	tbh	[pc, r3, lsl #1]
10007daa:	0056      	.short	0x0056
10007dac:	00600060 	.word	0x00600060
10007db0:	00600060 	.word	0x00600060
10007db4:	006002f3 	.word	0x006002f3
10007db8:	00600060 	.word	0x00600060
10007dbc:	00600060 	.word	0x00600060
10007dc0:	00cb00cb 	.word	0x00cb00cb
10007dc4:	00cb00cb 	.word	0x00cb00cb
10007dc8:	00cb00cb 	.word	0x00cb00cb
10007dcc:	00cb00cb 	.word	0x00cb00cb
10007dd0:	00cb00cb 	.word	0x00cb00cb
10007dd4:	00600060 	.word	0x00600060
10007dd8:	00600060 	.word	0x00600060
10007ddc:	00600060 	.word	0x00600060
10007de0:	00d70060 	.word	0x00d70060
10007de4:	01740060 	.word	0x01740060
10007de8:	00d702fb 	.word	0x00d702fb
10007dec:	00d700d7 	.word	0x00d700d7
10007df0:	00600060 	.word	0x00600060
10007df4:	00600060 	.word	0x00600060
10007df8:	0060011f 	.word	0x0060011f
10007dfc:	03150060 	.word	0x03150060
10007e00:	00600060 	.word	0x00600060
10007e04:	03230060 	.word	0x03230060
10007e08:	00600060 	.word	0x00600060
10007e0c:	00600060 	.word	0x00600060
10007e10:	00600128 	.word	0x00600128
10007e14:	021d0060 	.word	0x021d0060
10007e18:	00600060 	.word	0x00600060
10007e1c:	00600060 	.word	0x00600060
10007e20:	00d70060 	.word	0x00d70060
10007e24:	03490060 	.word	0x03490060
10007e28:	00d70205 	.word	0x00d70205
10007e2c:	00d700d7 	.word	0x00d700d7
10007e30:	020a02e7 	.word	0x020a02e7
10007e34:	0060011f 	.word	0x0060011f
10007e38:	032d0309 	.word	0x032d0309
10007e3c:	0135033b 	.word	0x0135033b
10007e40:	00600149 	.word	0x00600149
10007e44:	016c0060 	.word	0x016c0060
10007e48:	015f0118 	.word	0x015f0118
10007e4c:	00600060 	.word	0x00600060
10007e50:	00600128 	.word	0x00600128
10007e54:	0118      	.short	0x0118
10007e56:	4681      	mov	r9, r0
10007e58:	6863      	ldr	r3, [r4, #4]
10007e5a:	2b00      	cmp	r3, #0
10007e5c:	dd69      	ble.n	10007f32 <__ssvfscanf_r+0x202>
10007e5e:	6823      	ldr	r3, [r4, #0]
10007e60:	f819 2c01 	ldrb.w	r2, [r9, #-1]
10007e64:	7819      	ldrb	r1, [r3, #0]
10007e66:	4291      	cmp	r1, r2
10007e68:	d02a      	beq.n	10007ec0 <__ssvfscanf_r+0x190>
10007e6a:	6b7b      	ldr	r3, [r7, #52]	@ 0x34
10007e6c:	b13b      	cbz	r3, 10007e7e <__ssvfscanf_r+0x14e>
10007e6e:	6bbb      	ldr	r3, [r7, #56]	@ 0x38
10007e70:	3301      	adds	r3, #1
10007e72:	d03f      	beq.n	10007ef4 <__ssvfscanf_r+0x1c4>
10007e74:	6b7b      	ldr	r3, [r7, #52]	@ 0x34
10007e76:	6818      	ldr	r0, [r3, #0]
10007e78:	b108      	cbz	r0, 10007e7e <__ssvfscanf_r+0x14e>
10007e7a:	f7fa fd3d 	bl	100028f8 <__wrap_free>
10007e7e:	6bb8      	ldr	r0, [r7, #56]	@ 0x38
10007e80:	f507 7731 	add.w	r7, r7, #708	@ 0x2c4
10007e84:	46bd      	mov	sp, r7
10007e86:	e8bd 8ff0 	ldmia.w	sp!, {r4, r5, r6, r7, r8, r9, sl, fp, pc}
10007e8a:	6862      	ldr	r2, [r4, #4]
10007e8c:	6c7d      	ldr	r5, [r7, #68]	@ 0x44
10007e8e:	e00c      	b.n	10007eaa <__ssvfscanf_r+0x17a>
10007e90:	6823      	ldr	r3, [r4, #0]
10007e92:	781a      	ldrb	r2, [r3, #0]
10007e94:	3301      	adds	r3, #1
10007e96:	f81b 2002 	ldrb.w	r2, [fp, r2]
10007e9a:	0710      	lsls	r0, r2, #28
10007e9c:	d50d      	bpl.n	10007eba <__ssvfscanf_r+0x18a>
10007e9e:	6862      	ldr	r2, [r4, #4]
10007ea0:	f10a 0a01 	add.w	sl, sl, #1
10007ea4:	6023      	str	r3, [r4, #0]
10007ea6:	3a01      	subs	r2, #1
10007ea8:	6062      	str	r2, [r4, #4]
10007eaa:	2a00      	cmp	r2, #0
10007eac:	dcf0      	bgt.n	10007e90 <__ssvfscanf_r+0x160>
10007eae:	4621      	mov	r1, r4
10007eb0:	4628      	mov	r0, r5
10007eb2:	f7ff fecf 	bl	10007c54 <__ssrefill_r>
10007eb6:	2800      	cmp	r0, #0
10007eb8:	d0ea      	beq.n	10007e90 <__ssvfscanf_r+0x160>
10007eba:	f8c7 9040 	str.w	r9, [r7, #64]	@ 0x40
10007ebe:	e008      	b.n	10007ed2 <__ssvfscanf_r+0x1a2>
10007ec0:	3301      	adds	r3, #1
10007ec2:	f10a 0a01 	add.w	sl, sl, #1
10007ec6:	f8c7 9040 	str.w	r9, [r7, #64]	@ 0x40
10007eca:	6023      	str	r3, [r4, #0]
10007ecc:	6863      	ldr	r3, [r4, #4]
10007ece:	3b01      	subs	r3, #1
10007ed0:	6063      	str	r3, [r4, #4]
10007ed2:	f8d7 9040 	ldr.w	r9, [r7, #64]	@ 0x40
10007ed6:	f819 3b01 	ldrb.w	r3, [r9], #1
10007eda:	64fb      	str	r3, [r7, #76]	@ 0x4c
10007edc:	2b00      	cmp	r3, #0
10007ede:	f47f af51 	bne.w	10007d84 <__ssvfscanf_r+0x54>
10007ee2:	e7c2      	b.n	10007e6a <__ssvfscanf_r+0x13a>
10007ee4:	464c      	mov	r4, r9
10007ee6:	6bbb      	ldr	r3, [r7, #56]	@ 0x38
10007ee8:	b113      	cbz	r3, 10007ef0 <__ssvfscanf_r+0x1c0>
10007eea:	89a3      	ldrh	r3, [r4, #12]
10007eec:	065a      	lsls	r2, r3, #25
10007eee:	d5bc      	bpl.n	10007e6a <__ssvfscanf_r+0x13a>
10007ef0:	6b7b      	ldr	r3, [r7, #52]	@ 0x34
10007ef2:	b1d3      	cbz	r3, 10007f2a <__ssvfscanf_r+0x1fa>
10007ef4:	6b7b      	ldr	r3, [r7, #52]	@ 0x34
10007ef6:	88de      	ldrh	r6, [r3, #6]
10007ef8:	6818      	ldr	r0, [r3, #0]
10007efa:	b17e      	cbz	r6, 10007f1c <__ssvfscanf_r+0x1ec>
10007efc:	2400      	movs	r4, #0
10007efe:	1f05      	subs	r5, r0, #4
10007f00:	4681      	mov	r9, r0
10007f02:	46a0      	mov	r8, r4
10007f04:	f855 3f04 	ldr.w	r3, [r5, #4]!
10007f08:	3401      	adds	r4, #1
10007f0a:	6818      	ldr	r0, [r3, #0]
10007f0c:	f7fa fcf4 	bl	100028f8 <__wrap_free>
10007f10:	682b      	ldr	r3, [r5, #0]
10007f12:	42b4      	cmp	r4, r6
10007f14:	f8c3 8000 	str.w	r8, [r3]
10007f18:	d1f4      	bne.n	10007f04 <__ssvfscanf_r+0x1d4>
10007f1a:	4648      	mov	r0, r9
10007f1c:	f04f 33ff 	mov.w	r3, #4294967295	@ 0xffffffff
10007f20:	63bb      	str	r3, [r7, #56]	@ 0x38
10007f22:	e7a9      	b.n	10007e78 <__ssvfscanf_r+0x148>
10007f24:	048d      	lsls	r5, r1, #18
10007f26:	f57f af17 	bpl.w	10007d58 <__ssvfscanf_r+0x28>
10007f2a:	f04f 33ff 	mov.w	r3, #4294967295	@ 0xffffffff
10007f2e:	63bb      	str	r3, [r7, #56]	@ 0x38
10007f30:	e7a5      	b.n	10007e7e <__ssvfscanf_r+0x14e>
10007f32:	4621      	mov	r1, r4
10007f34:	6c78      	ldr	r0, [r7, #68]	@ 0x44
10007f36:	f7ff fe8d 	bl	10007c54 <__ssrefill_r>
10007f3a:	2800      	cmp	r0, #0
10007f3c:	d08f      	beq.n	10007e5e <__ssvfscanf_r+0x12e>
10007f3e:	e7d2      	b.n	10007ee6 <__ssvfscanf_r+0x1b6>
10007f40:	f015 0f8f 	tst.w	r5, #143	@ 0x8f
10007f44:	d191      	bne.n	10007e6a <__ssvfscanf_r+0x13a>
10007f46:	eb02 0282 	add.w	r2, r2, r2, lsl #2
10007f4a:	eb01 0242 	add.w	r2, r1, r2, lsl #1
10007f4e:	f899 1001 	ldrb.w	r1, [r9, #1]
10007f52:	4681      	mov	r9, r0
10007f54:	3a30      	subs	r2, #48	@ 0x30
10007f56:	e720      	b.n	10007d9a <__ssvfscanf_r+0x6a>
10007f58:	6863      	ldr	r3, [r4, #4]
10007f5a:	f04f 0804 	mov.w	r8, #4
10007f5e:	6438      	str	r0, [r7, #64]	@ 0x40
10007f60:	2b00      	cmp	r3, #0
10007f62:	dd62      	ble.n	1000802a <__ssvfscanf_r+0x2fa>
10007f64:	6821      	ldr	r1, [r4, #0]
10007f66:	780b      	ldrb	r3, [r1, #0]
10007f68:	f81b 3003 	ldrb.w	r3, [fp, r3]
10007f6c:	0718      	lsls	r0, r3, #28
10007f6e:	d52a      	bpl.n	10007fc6 <__ssvfscanf_r+0x296>
10007f70:	46a1      	mov	r9, r4
10007f72:	4654      	mov	r4, sl
10007f74:	46c2      	mov	sl, r8
10007f76:	46b0      	mov	r8, r6
10007f78:	462e      	mov	r6, r5
10007f7a:	4615      	mov	r5, r2
10007f7c:	460a      	mov	r2, r1
10007f7e:	e006      	b.n	10007f8e <__ssvfscanf_r+0x25e>
10007f80:	f8c9 2000 	str.w	r2, [r9]
10007f84:	7813      	ldrb	r3, [r2, #0]
10007f86:	f81b 3003 	ldrb.w	r3, [fp, r3]
10007f8a:	071b      	lsls	r3, r3, #28
10007f8c:	d515      	bpl.n	10007fba <__ssvfscanf_r+0x28a>
10007f8e:	f8d9 3004 	ldr.w	r3, [r9, #4]
10007f92:	3401      	adds	r4, #1
10007f94:	3201      	adds	r2, #1
10007f96:	3b01      	subs	r3, #1
10007f98:	2b00      	cmp	r3, #0
10007f9a:	f8c9 3004 	str.w	r3, [r9, #4]
10007f9e:	dcef      	bgt.n	10007f80 <__ssvfscanf_r+0x250>
10007fa0:	4649      	mov	r1, r9
10007fa2:	6c78      	ldr	r0, [r7, #68]	@ 0x44
10007fa4:	f7ff fe56 	bl	10007c54 <__ssrefill_r>
10007fa8:	2800      	cmp	r0, #0
10007faa:	d19b      	bne.n	10007ee4 <__ssvfscanf_r+0x1b4>
10007fac:	f8d9 2000 	ldr.w	r2, [r9]
10007fb0:	7813      	ldrb	r3, [r2, #0]
10007fb2:	f81b 3003 	ldrb.w	r3, [fp, r3]
10007fb6:	071b      	lsls	r3, r3, #28
10007fb8:	d4e9      	bmi.n	10007f8e <__ssvfscanf_r+0x25e>
10007fba:	462a      	mov	r2, r5
10007fbc:	4635      	mov	r5, r6
10007fbe:	4646      	mov	r6, r8
10007fc0:	46d0      	mov	r8, sl
10007fc2:	46a2      	mov	sl, r4
10007fc4:	464c      	mov	r4, r9
10007fc6:	f1a8 0803 	sub.w	r8, r8, #3
10007fca:	f1b8 0f01 	cmp.w	r8, #1
10007fce:	f201 80b7 	bhi.w	10009140 <__ssvfscanf_r+0x1410>
10007fd2:	e8df f018 	tbh	[pc, r8, lsl #1]
10007fd6:	0281      	.short	0x0281
10007fd8:	0333      	.short	0x0333
10007fda:	072b      	lsls	r3, r5, #28
10007fdc:	f47f af45 	bne.w	10007e6a <__ssvfscanf_r+0x13a>
10007fe0:	f899 1001 	ldrb.w	r1, [r9, #1]
10007fe4:	4681      	mov	r9, r0
10007fe6:	e6d8      	b.n	10007d9a <__ssvfscanf_r+0x6a>
10007fe8:	0729      	lsls	r1, r5, #28
10007fea:	f47f af3e 	bne.w	10007e6a <__ssvfscanf_r+0x13a>
10007fee:	f899 1001 	ldrb.w	r1, [r9, #1]
10007ff2:	f045 0502 	orr.w	r5, r5, #2
10007ff6:	4681      	mov	r9, r0
10007ff8:	e6cf      	b.n	10007d9a <__ssvfscanf_r+0x6a>
10007ffa:	6863      	ldr	r3, [r4, #4]
10007ffc:	f445 7500 	orr.w	r5, r5, #512	@ 0x200
10008000:	6438      	str	r0, [r7, #64]	@ 0x40
10008002:	2b00      	cmp	r3, #0
10008004:	dd20      	ble.n	10008048 <__ssvfscanf_r+0x318>
10008006:	4b74      	ldr	r3, [pc, #464]	@ (100081d8 <__ssvfscanf_r+0x4a8>)
10008008:	f04f 0803 	mov.w	r8, #3
1000800c:	623b      	str	r3, [r7, #32]
1000800e:	2310      	movs	r3, #16
10008010:	633b      	str	r3, [r7, #48]	@ 0x30
10008012:	e7a7      	b.n	10007f64 <__ssvfscanf_r+0x234>
10008014:	6863      	ldr	r3, [r4, #4]
10008016:	f04f 0803 	mov.w	r8, #3
1000801a:	6438      	str	r0, [r7, #64]	@ 0x40
1000801c:	2b00      	cmp	r3, #0
1000801e:	4b6e      	ldr	r3, [pc, #440]	@ (100081d8 <__ssvfscanf_r+0x4a8>)
10008020:	623b      	str	r3, [r7, #32]
10008022:	f04f 0308 	mov.w	r3, #8
10008026:	633b      	str	r3, [r7, #48]	@ 0x30
10008028:	dc9c      	bgt.n	10007f64 <__ssvfscanf_r+0x234>
1000802a:	4621      	mov	r1, r4
1000802c:	6c78      	ldr	r0, [r7, #68]	@ 0x44
1000802e:	63fa      	str	r2, [r7, #60]	@ 0x3c
10008030:	f7ff fe10 	bl	10007c54 <__ssrefill_r>
10008034:	6bfa      	ldr	r2, [r7, #60]	@ 0x3c
10008036:	2800      	cmp	r0, #0
10008038:	d094      	beq.n	10007f64 <__ssvfscanf_r+0x234>
1000803a:	e754      	b.n	10007ee6 <__ssvfscanf_r+0x1b6>
1000803c:	6863      	ldr	r3, [r4, #4]
1000803e:	f445 7508 	orr.w	r5, r5, #544	@ 0x220
10008042:	6438      	str	r0, [r7, #64]	@ 0x40
10008044:	2b00      	cmp	r3, #0
10008046:	dcde      	bgt.n	10008006 <__ssvfscanf_r+0x2d6>
10008048:	4621      	mov	r1, r4
1000804a:	6c78      	ldr	r0, [r7, #68]	@ 0x44
1000804c:	63fa      	str	r2, [r7, #60]	@ 0x3c
1000804e:	f7ff fe01 	bl	10007c54 <__ssrefill_r>
10008052:	2800      	cmp	r0, #0
10008054:	f47f af47 	bne.w	10007ee6 <__ssvfscanf_r+0x1b6>
10008058:	4b5f      	ldr	r3, [pc, #380]	@ (100081d8 <__ssvfscanf_r+0x4a8>)
1000805a:	f04f 0803 	mov.w	r8, #3
1000805e:	6bfa      	ldr	r2, [r7, #60]	@ 0x3c
10008060:	623b      	str	r3, [r7, #32]
10008062:	2310      	movs	r3, #16
10008064:	633b      	str	r3, [r7, #48]	@ 0x30
10008066:	e77d      	b.n	10007f64 <__ssvfscanf_r+0x234>
10008068:	6863      	ldr	r3, [r4, #4]
1000806a:	6438      	str	r0, [r7, #64]	@ 0x40
1000806c:	2b00      	cmp	r3, #0
1000806e:	4b5a      	ldr	r3, [pc, #360]	@ (100081d8 <__ssvfscanf_r+0x4a8>)
10008070:	623b      	str	r3, [r7, #32]
10008072:	f04f 030a 	mov.w	r3, #10
10008076:	f04f 0803 	mov.w	r8, #3
1000807a:	633b      	str	r3, [r7, #48]	@ 0x30
1000807c:	f73f af72 	bgt.w	10007f64 <__ssvfscanf_r+0x234>
10008080:	e7d3      	b.n	1000802a <__ssvfscanf_r+0x2fa>
10008082:	6863      	ldr	r3, [r4, #4]
10008084:	f04f 0802 	mov.w	r8, #2
10008088:	6438      	str	r0, [r7, #64]	@ 0x40
1000808a:	2b00      	cmp	r3, #0
1000808c:	f73f af6a 	bgt.w	10007f64 <__ssvfscanf_r+0x234>
10008090:	e7cb      	b.n	1000802a <__ssvfscanf_r+0x2fa>
10008092:	6863      	ldr	r3, [r4, #4]
10008094:	f045 0541 	orr.w	r5, r5, #65	@ 0x41
10008098:	6438      	str	r0, [r7, #64]	@ 0x40
1000809a:	2b00      	cmp	r3, #0
1000809c:	f340 877a 	ble.w	10008f94 <__ssvfscanf_r+0x1264>
100080a0:	2a01      	cmp	r2, #1
100080a2:	bf38      	it	cc
100080a4:	2201      	movcc	r2, #1
100080a6:	4691      	mov	r9, r2
100080a8:	f015 0310 	ands.w	r3, r5, #16
100080ac:	62bb      	str	r3, [r7, #40]	@ 0x28
100080ae:	f040 86b1 	bne.w	10008e14 <__ssvfscanf_r+0x10e4>
100080b2:	6afb      	ldr	r3, [r7, #44]	@ 0x2c
100080b4:	062d      	lsls	r5, r5, #24
100080b6:	f853 2b04 	ldr.w	r2, [r3], #4
100080ba:	613a      	str	r2, [r7, #16]
100080bc:	62fb      	str	r3, [r7, #44]	@ 0x2c
100080be:	f140 8760 	bpl.w	10008f82 <__ssvfscanf_r+0x1252>
100080c2:	2a00      	cmp	r2, #0
100080c4:	f43f aed1 	beq.w	10007e6a <__ssvfscanf_r+0x13a>
100080c8:	2080      	movs	r0, #128	@ 0x80
100080ca:	f7fa fbf1 	bl	100028b0 <__wrap_malloc>
100080ce:	4680      	mov	r8, r0
100080d0:	2800      	cmp	r0, #0
100080d2:	f43f af0d 	beq.w	10007ef0 <__ssvfscanf_r+0x1c0>
100080d6:	693b      	ldr	r3, [r7, #16]
100080d8:	6018      	str	r0, [r3, #0]
100080da:	6b7b      	ldr	r3, [r7, #52]	@ 0x34
100080dc:	88dd      	ldrh	r5, [r3, #6]
100080de:	889e      	ldrh	r6, [r3, #4]
100080e0:	42b5      	cmp	r5, r6
100080e2:	f080 85a6 	bcs.w	10008c32 <__ssvfscanf_r+0xf02>
100080e6:	6818      	ldr	r0, [r3, #0]
100080e8:	693b      	ldr	r3, [r7, #16]
100080ea:	6b7a      	ldr	r2, [r7, #52]	@ 0x34
100080ec:	f840 3025 	str.w	r3, [r0, r5, lsl #2]
100080f0:	1c6b      	adds	r3, r5, #1
100080f2:	2001      	movs	r0, #1
100080f4:	f8c7 8024 	str.w	r8, [r7, #36]	@ 0x24
100080f8:	80d3      	strh	r3, [r2, #6]
100080fa:	2320      	movs	r3, #32
100080fc:	e9c7 0305 	strd	r0, r3, [r7, #20]
10008100:	2500      	movs	r5, #0
10008102:	69fb      	ldr	r3, [r7, #28]
10008104:	63fb      	str	r3, [r7, #60]	@ 0x3c
10008106:	f001 faa3 	bl	10009650 <__locale_mb_cur_max>
1000810a:	42a8      	cmp	r0, r5
1000810c:	f43f aeeb 	beq.w	10007ee6 <__ssvfscanf_r+0x1b6>
10008110:	f507 73b0 	add.w	r3, r7, #352	@ 0x160
10008114:	f107 0658 	add.w	r6, r7, #88	@ 0x58
10008118:	e9d4 2100 	ldrd	r2, r1, [r4]
1000811c:	f812 0b01 	ldrb.w	r0, [r2], #1
10008120:	3901      	subs	r1, #1
10008122:	5558      	strb	r0, [r3, r5]
10008124:	3501      	adds	r5, #1
10008126:	6bfb      	ldr	r3, [r7, #60]	@ 0x3c
10008128:	6061      	str	r1, [r4, #4]
1000812a:	2b03      	cmp	r3, #3
1000812c:	6022      	str	r2, [r4, #0]
1000812e:	d102      	bne.n	10008136 <__ssvfscanf_r+0x406>
10008130:	6833      	ldr	r3, [r6, #0]
10008132:	2b04      	cmp	r3, #4
10008134:	d004      	beq.n	10008140 <__ssvfscanf_r+0x410>
10008136:	2208      	movs	r2, #8
10008138:	2100      	movs	r1, #0
1000813a:	4630      	mov	r0, r6
1000813c:	f7ff f9c8 	bl	100074d0 <memset>
10008140:	9600      	str	r6, [sp, #0]
10008142:	462b      	mov	r3, r5
10008144:	4641      	mov	r1, r8
10008146:	f507 72b0 	add.w	r2, r7, #352	@ 0x160
1000814a:	6c78      	ldr	r0, [r7, #68]	@ 0x44
1000814c:	f002 fe18 	bl	1000ad80 <_mbrtowc_r>
10008150:	1c41      	adds	r1, r0, #1
10008152:	4603      	mov	r3, r0
10008154:	f43f aec7 	beq.w	10007ee6 <__ssvfscanf_r+0x1b6>
10008158:	2800      	cmp	r0, #0
1000815a:	f040 85a2 	bne.w	10008ca2 <__ssvfscanf_r+0xf72>
1000815e:	6aba      	ldr	r2, [r7, #40]	@ 0x28
10008160:	44aa      	add	sl, r5
10008162:	f109 39ff 	add.w	r9, r9, #4294967295	@ 0xffffffff
10008166:	b9da      	cbnz	r2, 100081a0 <__ssvfscanf_r+0x470>
10008168:	f8c8 2000 	str.w	r2, [r8]
1000816c:	6a78      	ldr	r0, [r7, #36]	@ 0x24
1000816e:	69be      	ldr	r6, [r7, #24]
10008170:	eba8 0500 	sub.w	r5, r8, r0
10008174:	ebb6 0fa5 	cmp.w	r6, r5, asr #2
10008178:	d810      	bhi.n	1000819c <__ssvfscanf_r+0x46c>
1000817a:	697a      	ldr	r2, [r7, #20]
1000817c:	b172      	cbz	r2, 1000819c <__ssvfscanf_r+0x46c>
1000817e:	00f1      	lsls	r1, r6, #3
10008180:	63fb      	str	r3, [r7, #60]	@ 0x3c
10008182:	f7fa fba7 	bl	100028d4 <__wrap_realloc>
10008186:	6278      	str	r0, [r7, #36]	@ 0x24
10008188:	2800      	cmp	r0, #0
1000818a:	f43f aeb1 	beq.w	10007ef0 <__ssvfscanf_r+0x1c0>
1000818e:	0072      	lsls	r2, r6, #1
10008190:	eb00 0805 	add.w	r8, r0, r5
10008194:	6bfb      	ldr	r3, [r7, #60]	@ 0x3c
10008196:	61ba      	str	r2, [r7, #24]
10008198:	693a      	ldr	r2, [r7, #16]
1000819a:	6010      	str	r0, [r2, #0]
1000819c:	f108 0804 	add.w	r8, r8, #4
100081a0:	6862      	ldr	r2, [r4, #4]
100081a2:	2a00      	cmp	r2, #0
100081a4:	f340 8527 	ble.w	10008bf6 <__ssvfscanf_r+0xec6>
100081a8:	f1b9 0f00 	cmp.w	r9, #0
100081ac:	f000 852c 	beq.w	10008c08 <__ssvfscanf_r+0xed8>
100081b0:	2500      	movs	r5, #0
100081b2:	e7a7      	b.n	10008104 <__ssvfscanf_r+0x3d4>
100081b4:	6863      	ldr	r3, [r4, #4]
100081b6:	6438      	str	r0, [r7, #64]	@ 0x40
100081b8:	2b00      	cmp	r3, #0
100081ba:	4b08      	ldr	r3, [pc, #32]	@ (100081dc <__ssvfscanf_r+0x4ac>)
100081bc:	e758      	b.n	10008070 <__ssvfscanf_r+0x340>
100081be:	6863      	ldr	r3, [r4, #4]
100081c0:	f04f 0803 	mov.w	r8, #3
100081c4:	6438      	str	r0, [r7, #64]	@ 0x40
100081c6:	2b00      	cmp	r3, #0
100081c8:	4b04      	ldr	r3, [pc, #16]	@ (100081dc <__ssvfscanf_r+0x4ac>)
100081ca:	623b      	str	r3, [r7, #32]
100081cc:	f04f 0300 	mov.w	r3, #0
100081d0:	633b      	str	r3, [r7, #48]	@ 0x30
100081d2:	f73f aec7 	bgt.w	10007f64 <__ssvfscanf_r+0x234>
100081d6:	e728      	b.n	1000802a <__ssvfscanf_r+0x2fa>
100081d8:	10007329 	.word	0x10007329
100081dc:	1000a901 	.word	0x1000a901
100081e0:	1000ccb5 	.word	0x1000ccb5
100081e4:	4601      	mov	r1, r0
100081e6:	f107 0060 	add.w	r0, r7, #96	@ 0x60
100081ea:	63fa      	str	r2, [r7, #60]	@ 0x3c
100081ec:	f001 f9a6 	bl	1000953c <__sccl>
100081f0:	6863      	ldr	r3, [r4, #4]
100081f2:	6bfa      	ldr	r2, [r7, #60]	@ 0x3c
100081f4:	2b00      	cmp	r3, #0
100081f6:	6438      	str	r0, [r7, #64]	@ 0x40
100081f8:	f340 86b8 	ble.w	10008f6c <__ssvfscanf_r+0x123c>
100081fc:	2a00      	cmp	r2, #0
100081fe:	f005 0310 	and.w	r3, r5, #16
10008202:	bf08      	it	eq
10008204:	f04f 32ff 	moveq.w	r2, #4294967295	@ 0xffffffff
10008208:	f015 0601 	ands.w	r6, r5, #1
1000820c:	627b      	str	r3, [r7, #36]	@ 0x24
1000820e:	f000 8429 	beq.w	10008a64 <__ssvfscanf_r+0xd34>
10008212:	2b00      	cmp	r3, #0
10008214:	f040 862d 	bne.w	10008e72 <__ssvfscanf_r+0x1142>
10008218:	6afb      	ldr	r3, [r7, #44]	@ 0x2c
1000821a:	0628      	lsls	r0, r5, #24
1000821c:	f853 1b04 	ldr.w	r1, [r3], #4
10008220:	60f9      	str	r1, [r7, #12]
10008222:	62fb      	str	r3, [r7, #44]	@ 0x2c
10008224:	f140 86cc 	bpl.w	10008fc0 <__ssvfscanf_r+0x1290>
10008228:	63fa      	str	r2, [r7, #60]	@ 0x3c
1000822a:	2900      	cmp	r1, #0
1000822c:	f43f ae1d 	beq.w	10007e6a <__ssvfscanf_r+0x13a>
10008230:	2080      	movs	r0, #128	@ 0x80
10008232:	f7fa fb3d 	bl	100028b0 <__wrap_malloc>
10008236:	6bfa      	ldr	r2, [r7, #60]	@ 0x3c
10008238:	4680      	mov	r8, r0
1000823a:	2800      	cmp	r0, #0
1000823c:	f43f ae58 	beq.w	10007ef0 <__ssvfscanf_r+0x1c0>
10008240:	68fb      	ldr	r3, [r7, #12]
10008242:	6018      	str	r0, [r3, #0]
10008244:	6b7b      	ldr	r3, [r7, #52]	@ 0x34
10008246:	88dd      	ldrh	r5, [r3, #6]
10008248:	889e      	ldrh	r6, [r3, #4]
1000824a:	42b5      	cmp	r5, r6
1000824c:	f080 84b6 	bcs.w	10008bbc <__ssvfscanf_r+0xe8c>
10008250:	6818      	ldr	r0, [r3, #0]
10008252:	68fb      	ldr	r3, [r7, #12]
10008254:	f8c7 8014 	str.w	r8, [r7, #20]
10008258:	f840 3025 	str.w	r3, [r0, r5, lsl #2]
1000825c:	3501      	adds	r5, #1
1000825e:	6b7b      	ldr	r3, [r7, #52]	@ 0x34
10008260:	80dd      	strh	r5, [r3, #6]
10008262:	2301      	movs	r3, #1
10008264:	613b      	str	r3, [r7, #16]
10008266:	2320      	movs	r3, #32
10008268:	61bb      	str	r3, [r7, #24]
1000826a:	f04f 0900 	mov.w	r9, #0
1000826e:	69fd      	ldr	r5, [r7, #28]
10008270:	63fa      	str	r2, [r7, #60]	@ 0x3c
10008272:	f8c7 a028 	str.w	sl, [r7, #40]	@ 0x28
10008276:	f001 f9eb 	bl	10009650 <__locale_mb_cur_max>
1000827a:	4548      	cmp	r0, r9
1000827c:	f43f ae33 	beq.w	10007ee6 <__ssvfscanf_r+0x1b6>
10008280:	2d03      	cmp	r5, #3
10008282:	f107 0a50 	add.w	sl, r7, #80	@ 0x50
10008286:	e9d4 3200 	ldrd	r3, r2, [r4]
1000828a:	f102 32ff 	add.w	r2, r2, #4294967295	@ 0xffffffff
1000828e:	f813 1b01 	ldrb.w	r1, [r3], #1
10008292:	6062      	str	r2, [r4, #4]
10008294:	f507 72b0 	add.w	r2, r7, #352	@ 0x160
10008298:	6023      	str	r3, [r4, #0]
1000829a:	f802 1009 	strb.w	r1, [r2, r9]
1000829e:	f109 0901 	add.w	r9, r9, #1
100082a2:	d103      	bne.n	100082ac <__ssvfscanf_r+0x57c>
100082a4:	f8da 3000 	ldr.w	r3, [sl]
100082a8:	2b04      	cmp	r3, #4
100082aa:	d004      	beq.n	100082b6 <__ssvfscanf_r+0x586>
100082ac:	2208      	movs	r2, #8
100082ae:	2100      	movs	r1, #0
100082b0:	4650      	mov	r0, sl
100082b2:	f7ff f90d 	bl	100074d0 <memset>
100082b6:	f8cd a000 	str.w	sl, [sp]
100082ba:	464b      	mov	r3, r9
100082bc:	f507 72b0 	add.w	r2, r7, #352	@ 0x160
100082c0:	4641      	mov	r1, r8
100082c2:	6c78      	ldr	r0, [r7, #68]	@ 0x44
100082c4:	f002 fd5c 	bl	1000ad80 <_mbrtowc_r>
100082c8:	1c43      	adds	r3, r0, #1
100082ca:	4605      	mov	r5, r0
100082cc:	f43f ae0b 	beq.w	10007ee6 <__ssvfscanf_r+0x1b6>
100082d0:	2800      	cmp	r0, #0
100082d2:	f040 84f6 	bne.w	10008cc2 <__ssvfscanf_r+0xf92>
100082d6:	4606      	mov	r6, r0
100082d8:	f8c8 0000 	str.w	r0, [r8]
100082dc:	2208      	movs	r2, #8
100082de:	2100      	movs	r1, #0
100082e0:	f107 0058 	add.w	r0, r7, #88	@ 0x58
100082e4:	f7ff f8f4 	bl	100074d0 <memset>
100082e8:	4b78      	ldr	r3, [pc, #480]	@ (100084cc <__ssvfscanf_r+0x79c>)
100082ea:	4632      	mov	r2, r6
100082ec:	f107 0148 	add.w	r1, r7, #72	@ 0x48
100082f0:	f8d3 60e0 	ldr.w	r6, [r3, #224]	@ 0xe0
100082f4:	f107 0358 	add.w	r3, r7, #88	@ 0x58
100082f8:	6c78      	ldr	r0, [r7, #68]	@ 0x44
100082fa:	47b0      	blx	r6
100082fc:	2801      	cmp	r0, #1
100082fe:	bf0c      	ite	eq
10008300:	f897 6048 	ldrbeq.w	r6, [r7, #72]	@ 0x48
10008304:	2600      	movne	r6, #0
10008306:	f107 0360 	add.w	r3, r7, #96	@ 0x60
1000830a:	5d9b      	ldrb	r3, [r3, r6]
1000830c:	2b00      	cmp	r3, #0
1000830e:	f000 8665 	beq.w	10008fdc <__ssvfscanf_r+0x12ac>
10008312:	6abb      	ldr	r3, [r7, #40]	@ 0x28
10008314:	2d03      	cmp	r5, #3
10008316:	444b      	add	r3, r9
10008318:	62bb      	str	r3, [r7, #40]	@ 0x28
1000831a:	f000 84db 	beq.w	10008cd4 <__ssvfscanf_r+0xfa4>
1000831e:	6bfb      	ldr	r3, [r7, #60]	@ 0x3c
10008320:	3b01      	subs	r3, #1
10008322:	63fb      	str	r3, [r7, #60]	@ 0x3c
10008324:	6a7b      	ldr	r3, [r7, #36]	@ 0x24
10008326:	b9c3      	cbnz	r3, 1000835a <__ssvfscanf_r+0x62a>
10008328:	f108 0804 	add.w	r8, r8, #4
1000832c:	6978      	ldr	r0, [r7, #20]
1000832e:	69bb      	ldr	r3, [r7, #24]
10008330:	eba8 0600 	sub.w	r6, r8, r0
10008334:	ebb3 0fa6 	cmp.w	r3, r6, asr #2
10008338:	d80f      	bhi.n	1000835a <__ssvfscanf_r+0x62a>
1000833a:	693a      	ldr	r2, [r7, #16]
1000833c:	b16a      	cbz	r2, 1000835a <__ssvfscanf_r+0x62a>
1000833e:	00d9      	lsls	r1, r3, #3
10008340:	f7fa fac8 	bl	100028d4 <__wrap_realloc>
10008344:	6178      	str	r0, [r7, #20]
10008346:	2800      	cmp	r0, #0
10008348:	f43f add2 	beq.w	10007ef0 <__ssvfscanf_r+0x1c0>
1000834c:	69bb      	ldr	r3, [r7, #24]
1000834e:	eb00 0806 	add.w	r8, r0, r6
10008352:	005b      	lsls	r3, r3, #1
10008354:	61bb      	str	r3, [r7, #24]
10008356:	68fb      	ldr	r3, [r7, #12]
10008358:	6018      	str	r0, [r3, #0]
1000835a:	6863      	ldr	r3, [r4, #4]
1000835c:	2b00      	cmp	r3, #0
1000835e:	f340 84c6 	ble.w	10008cee <__ssvfscanf_r+0xfbe>
10008362:	6bfb      	ldr	r3, [r7, #60]	@ 0x3c
10008364:	2b00      	cmp	r3, #0
10008366:	f000 84c9 	beq.w	10008cfc <__ssvfscanf_r+0xfcc>
1000836a:	f04f 0900 	mov.w	r9, #0
1000836e:	f001 f96f 	bl	10009650 <__locale_mb_cur_max>
10008372:	4548      	cmp	r0, r9
10008374:	d184      	bne.n	10008280 <__ssvfscanf_r+0x550>
10008376:	e5b6      	b.n	10007ee6 <__ssvfscanf_r+0x1b6>
10008378:	072b      	lsls	r3, r5, #28
1000837a:	f47f ad76 	bne.w	10007e6a <__ssvfscanf_r+0x13a>
1000837e:	f899 1001 	ldrb.w	r1, [r9, #1]
10008382:	2968      	cmp	r1, #104	@ 0x68
10008384:	f000 85aa 	beq.w	10008edc <__ssvfscanf_r+0x11ac>
10008388:	f045 0504 	orr.w	r5, r5, #4
1000838c:	4681      	mov	r9, r0
1000838e:	e504      	b.n	10007d9a <__ssvfscanf_r+0x6a>
10008390:	432a      	orrs	r2, r5
10008392:	f47f ad6a 	bne.w	10007e6a <__ssvfscanf_r+0x13a>
10008396:	f899 1001 	ldrb.w	r1, [r9, #1]
1000839a:	2510      	movs	r5, #16
1000839c:	4681      	mov	r9, r0
1000839e:	e4fc      	b.n	10007d9a <__ssvfscanf_r+0x6a>
100083a0:	6863      	ldr	r3, [r4, #4]
100083a2:	f045 0501 	orr.w	r5, r5, #1
100083a6:	6438      	str	r0, [r7, #64]	@ 0x40
100083a8:	2b00      	cmp	r3, #0
100083aa:	f340 85bd 	ble.w	10008f28 <__ssvfscanf_r+0x11f8>
100083ae:	4b48      	ldr	r3, [pc, #288]	@ (100084d0 <__ssvfscanf_r+0x7a0>)
100083b0:	f04f 0803 	mov.w	r8, #3
100083b4:	623b      	str	r3, [r7, #32]
100083b6:	230a      	movs	r3, #10
100083b8:	633b      	str	r3, [r7, #48]	@ 0x30
100083ba:	e5d3      	b.n	10007f64 <__ssvfscanf_r+0x234>
100083bc:	0729      	lsls	r1, r5, #28
100083be:	f47f ad54 	bne.w	10007e6a <__ssvfscanf_r+0x13a>
100083c2:	f899 1001 	ldrb.w	r1, [r9, #1]
100083c6:	296c      	cmp	r1, #108	@ 0x6c
100083c8:	f000 8590 	beq.w	10008eec <__ssvfscanf_r+0x11bc>
100083cc:	f045 0501 	orr.w	r5, r5, #1
100083d0:	4681      	mov	r9, r0
100083d2:	e4e2      	b.n	10007d9a <__ssvfscanf_r+0x6a>
100083d4:	6863      	ldr	r3, [r4, #4]
100083d6:	f045 0501 	orr.w	r5, r5, #1
100083da:	6438      	str	r0, [r7, #64]	@ 0x40
100083dc:	2b00      	cmp	r3, #0
100083de:	f340 85b4 	ble.w	10008f4a <__ssvfscanf_r+0x121a>
100083e2:	4b3c      	ldr	r3, [pc, #240]	@ (100084d4 <__ssvfscanf_r+0x7a4>)
100083e4:	f04f 0803 	mov.w	r8, #3
100083e8:	623b      	str	r3, [r7, #32]
100083ea:	2308      	movs	r3, #8
100083ec:	633b      	str	r3, [r7, #48]	@ 0x30
100083ee:	e5b9      	b.n	10007f64 <__ssvfscanf_r+0x234>
100083f0:	6863      	ldr	r3, [r4, #4]
100083f2:	6438      	str	r0, [r7, #64]	@ 0x40
100083f4:	2b00      	cmp	r3, #0
100083f6:	f340 858c 	ble.w	10008f12 <__ssvfscanf_r+0x11e2>
100083fa:	f045 0501 	orr.w	r5, r5, #1
100083fe:	f04f 0802 	mov.w	r8, #2
10008402:	e5af      	b.n	10007f64 <__ssvfscanf_r+0x234>
10008404:	f015 038f 	ands.w	r3, r5, #143	@ 0x8f
10008408:	f47f ad2f 	bne.w	10007e6a <__ssvfscanf_r+0x13a>
1000840c:	6b79      	ldr	r1, [r7, #52]	@ 0x34
1000840e:	2900      	cmp	r1, #0
10008410:	f000 8578 	beq.w	10008f04 <__ssvfscanf_r+0x11d4>
10008414:	f899 1001 	ldrb.w	r1, [r9, #1]
10008418:	f045 0580 	orr.w	r5, r5, #128	@ 0x80
1000841c:	4681      	mov	r9, r0
1000841e:	e4bc      	b.n	10007d9a <__ssvfscanf_r+0x6a>
10008420:	6438      	str	r0, [r7, #64]	@ 0x40
10008422:	06e8      	lsls	r0, r5, #27
10008424:	f53f ad55 	bmi.w	10007ed2 <__ssvfscanf_r+0x1a2>
10008428:	6afa      	ldr	r2, [r7, #44]	@ 0x2c
1000842a:	0729      	lsls	r1, r5, #28
1000842c:	f852 3b04 	ldr.w	r3, [r2], #4
10008430:	62fa      	str	r2, [r7, #44]	@ 0x2c
10008432:	f140 85eb 	bpl.w	1000900c <__ssvfscanf_r+0x12dc>
10008436:	f883 a000 	strb.w	sl, [r3]
1000843a:	e54a      	b.n	10007ed2 <__ssvfscanf_r+0x1a2>
1000843c:	6863      	ldr	r3, [r4, #4]
1000843e:	6438      	str	r0, [r7, #64]	@ 0x40
10008440:	2b00      	cmp	r3, #0
10008442:	f340 85b2 	ble.w	10008faa <__ssvfscanf_r+0x127a>
10008446:	2a01      	cmp	r2, #1
10008448:	bf38      	it	cc
1000844a:	2201      	movcc	r2, #1
1000844c:	f015 0301 	ands.w	r3, r5, #1
10008450:	4691      	mov	r9, r2
10008452:	f040 8553 	bne.w	10008efc <__ssvfscanf_r+0x11cc>
10008456:	06ee      	lsls	r6, r5, #27
10008458:	f100 84bf 	bmi.w	10008dda <__ssvfscanf_r+0x10aa>
1000845c:	6afb      	ldr	r3, [r7, #44]	@ 0x2c
1000845e:	062d      	lsls	r5, r5, #24
10008460:	f853 6b04 	ldr.w	r6, [r3], #4
10008464:	62fb      	str	r3, [r7, #44]	@ 0x2c
10008466:	f140 8398 	bpl.w	10008b9a <__ssvfscanf_r+0xe6a>
1000846a:	2e00      	cmp	r6, #0
1000846c:	f43f acfd 	beq.w	10007e6a <__ssvfscanf_r+0x13a>
10008470:	4610      	mov	r0, r2
10008472:	f7fa fa1d 	bl	100028b0 <__wrap_malloc>
10008476:	4605      	mov	r5, r0
10008478:	2800      	cmp	r0, #0
1000847a:	f43f ad39 	beq.w	10007ef0 <__ssvfscanf_r+0x1c0>
1000847e:	6b7b      	ldr	r3, [r7, #52]	@ 0x34
10008480:	6030      	str	r0, [r6, #0]
10008482:	f8b3 8006 	ldrh.w	r8, [r3, #6]
10008486:	889a      	ldrh	r2, [r3, #4]
10008488:	4590      	cmp	r8, r2
1000848a:	f080 85c5 	bcs.w	10009018 <__ssvfscanf_r+0x12e8>
1000848e:	6818      	ldr	r0, [r3, #0]
10008490:	6b7b      	ldr	r3, [r7, #52]	@ 0x34
10008492:	4629      	mov	r1, r5
10008494:	f840 6028 	str.w	r6, [r0, r8, lsl #2]
10008498:	f108 0801 	add.w	r8, r8, #1
1000849c:	2201      	movs	r2, #1
1000849e:	f8a3 8006 	strh.w	r8, [r3, #6]
100084a2:	464b      	mov	r3, r9
100084a4:	9400      	str	r4, [sp, #0]
100084a6:	6c78      	ldr	r0, [r7, #68]	@ 0x44
100084a8:	f7ff fbf0 	bl	10007c8c <_sfread_r>
100084ac:	4605      	mov	r5, r0
100084ae:	2800      	cmp	r0, #0
100084b0:	f000 8635 	beq.w	1000911e <__ssvfscanf_r+0x13ee>
100084b4:	4581      	cmp	r9, r0
100084b6:	f240 837b 	bls.w	10008bb0 <__ssvfscanf_r+0xe80>
100084ba:	4601      	mov	r1, r0
100084bc:	6830      	ldr	r0, [r6, #0]
100084be:	f7fa fa09 	bl	100028d4 <__wrap_realloc>
100084c2:	2800      	cmp	r0, #0
100084c4:	f000 8374 	beq.w	10008bb0 <__ssvfscanf_r+0xe80>
100084c8:	6030      	str	r0, [r6, #0]
100084ca:	e371      	b.n	10008bb0 <__ssvfscanf_r+0xe80>
100084cc:	20001400 	.word	0x20001400
100084d0:	1000a901 	.word	0x1000a901
100084d4:	10007329 	.word	0x10007329
100084d8:	1e53      	subs	r3, r2, #1
100084da:	f5b3 7fae 	cmp.w	r3, #348	@ 0x15c
100084de:	f240 82b9 	bls.w	10008a54 <__ssvfscanf_r+0xd24>
100084e2:	f46f 71ae 	mvn.w	r1, #348	@ 0x15c
100084e6:	eb02 0901 	add.w	r9, r2, r1
100084ea:	f240 125d 	movw	r2, #349	@ 0x15d
100084ee:	f507 73b0 	add.w	r3, r7, #352	@ 0x160
100084f2:	f04f 0800 	mov.w	r8, #0
100084f6:	4621      	mov	r1, r4
100084f8:	f8c7 9028 	str.w	r9, [r7, #40]	@ 0x28
100084fc:	461e      	mov	r6, r3
100084fe:	61bb      	str	r3, [r7, #24]
10008500:	4643      	mov	r3, r8
10008502:	f445 6558 	orr.w	r5, r5, #3456	@ 0xd80
10008506:	46d0      	mov	r8, sl
10008508:	4691      	mov	r9, r2
1000850a:	6b3c      	ldr	r4, [r7, #48]	@ 0x30
1000850c:	469a      	mov	sl, r3
1000850e:	6808      	ldr	r0, [r1, #0]
10008510:	f890 c000 	ldrb.w	ip, [r0]
10008514:	f1ac 032b 	sub.w	r3, ip, #43	@ 0x2b
10008518:	2b4d      	cmp	r3, #77	@ 0x4d
1000851a:	d860      	bhi.n	100085de <__ssvfscanf_r+0x8ae>
1000851c:	e8df f013 	tbh	[pc, r3, lsl #1]
10008520:	005f0255 	.word	0x005f0255
10008524:	005f0255 	.word	0x005f0255
10008528:	025b005f 	.word	0x025b005f
1000852c:	017a017a 	.word	0x017a017a
10008530:	017a017a 	.word	0x017a017a
10008534:	017a017a 	.word	0x017a017a
10008538:	024e017a 	.word	0x024e017a
1000853c:	005f024e 	.word	0x005f024e
10008540:	005f005f 	.word	0x005f005f
10008544:	005f005f 	.word	0x005f005f
10008548:	005f005f 	.word	0x005f005f
1000854c:	004e004e 	.word	0x004e004e
10008550:	004e004e 	.word	0x004e004e
10008554:	004e004e 	.word	0x004e004e
10008558:	005f005f 	.word	0x005f005f
1000855c:	005f005f 	.word	0x005f005f
10008560:	005f005f 	.word	0x005f005f
10008564:	005f005f 	.word	0x005f005f
10008568:	005f005f 	.word	0x005f005f
1000856c:	005f005f 	.word	0x005f005f
10008570:	005f005f 	.word	0x005f005f
10008574:	005f005f 	.word	0x005f005f
10008578:	0242005f 	.word	0x0242005f
1000857c:	005f005f 	.word	0x005f005f
10008580:	005f005f 	.word	0x005f005f
10008584:	005f005f 	.word	0x005f005f
10008588:	005f005f 	.word	0x005f005f
1000858c:	004e004e 	.word	0x004e004e
10008590:	004e004e 	.word	0x004e004e
10008594:	004e004e 	.word	0x004e004e
10008598:	005f005f 	.word	0x005f005f
1000859c:	005f005f 	.word	0x005f005f
100085a0:	005f005f 	.word	0x005f005f
100085a4:	005f005f 	.word	0x005f005f
100085a8:	005f005f 	.word	0x005f005f
100085ac:	005f005f 	.word	0x005f005f
100085b0:	005f005f 	.word	0x005f005f
100085b4:	005f005f 	.word	0x005f005f
100085b8:	0242005f 	.word	0x0242005f
100085bc:	2c0a      	cmp	r4, #10
100085be:	dd0e      	ble.n	100085de <__ssvfscanf_r+0x8ae>
100085c0:	f425 6538 	bic.w	r5, r5, #2944	@ 0xb80
100085c4:	f806 cb01 	strb.w	ip, [r6], #1
100085c8:	684b      	ldr	r3, [r1, #4]
100085ca:	3b01      	subs	r3, #1
100085cc:	2b00      	cmp	r3, #0
100085ce:	604b      	str	r3, [r1, #4]
100085d0:	f340 821c 	ble.w	10008a0c <__ssvfscanf_r+0xcdc>
100085d4:	3001      	adds	r0, #1
100085d6:	6008      	str	r0, [r1, #0]
100085d8:	f1b9 0901 	subs.w	r9, r9, #1
100085dc:	d197      	bne.n	1000850e <__ssvfscanf_r+0x7de>
100085de:	4653      	mov	r3, sl
100085e0:	63fd      	str	r5, [r7, #60]	@ 0x3c
100085e2:	46c2      	mov	sl, r8
100085e4:	633c      	str	r4, [r7, #48]	@ 0x30
100085e6:	4698      	mov	r8, r3
100085e8:	6bfb      	ldr	r3, [r7, #60]	@ 0x3c
100085ea:	460c      	mov	r4, r1
100085ec:	05db      	lsls	r3, r3, #23
100085ee:	d507      	bpl.n	10008600 <__ssvfscanf_r+0x8d0>
100085f0:	69bb      	ldr	r3, [r7, #24]
100085f2:	429e      	cmp	r6, r3
100085f4:	f200 83d2 	bhi.w	10008d9c <__ssvfscanf_r+0x106c>
100085f8:	69bb      	ldr	r3, [r7, #24]
100085fa:	429e      	cmp	r6, r3
100085fc:	f43f ac35 	beq.w	10007e6a <__ssvfscanf_r+0x13a>
10008600:	6bfa      	ldr	r2, [r7, #60]	@ 0x3c
10008602:	f012 0210 	ands.w	r2, r2, #16
10008606:	f040 8212 	bne.w	10008a2e <__ssvfscanf_r+0xcfe>
1000860a:	6b3b      	ldr	r3, [r7, #48]	@ 0x30
1000860c:	6a3d      	ldr	r5, [r7, #32]
1000860e:	7032      	strb	r2, [r6, #0]
10008610:	69b9      	ldr	r1, [r7, #24]
10008612:	6c78      	ldr	r0, [r7, #68]	@ 0x44
10008614:	47a8      	blx	r5
10008616:	6bfa      	ldr	r2, [r7, #60]	@ 0x3c
10008618:	6afb      	ldr	r3, [r7, #44]	@ 0x2c
1000861a:	0695      	lsls	r5, r2, #26
1000861c:	f103 0904 	add.w	r9, r3, #4
10008620:	f100 81fe 	bmi.w	10008a20 <__ssvfscanf_r+0xcf0>
10008624:	6bfb      	ldr	r3, [r7, #60]	@ 0x3c
10008626:	0719      	lsls	r1, r3, #28
10008628:	f100 832a 	bmi.w	10008c80 <__ssvfscanf_r+0xf50>
1000862c:	6bfb      	ldr	r3, [r7, #60]	@ 0x3c
1000862e:	075a      	lsls	r2, r3, #29
10008630:	f140 8511 	bpl.w	10009056 <__ssvfscanf_r+0x1326>
10008634:	6afb      	ldr	r3, [r7, #44]	@ 0x2c
10008636:	681b      	ldr	r3, [r3, #0]
10008638:	8018      	strh	r0, [r3, #0]
1000863a:	e1f3      	b.n	10008a24 <__ssvfscanf_r+0xcf4>
1000863c:	6c78      	ldr	r0, [r7, #68]	@ 0x44
1000863e:	63fa      	str	r2, [r7, #60]	@ 0x3c
10008640:	f001 f80c 	bl	1000965c <_localeconv_r>
10008644:	6bfa      	ldr	r2, [r7, #60]	@ 0x3c
10008646:	6803      	ldr	r3, [r0, #0]
10008648:	60bb      	str	r3, [r7, #8]
1000864a:	1e53      	subs	r3, r2, #1
1000864c:	f5b3 7fae 	cmp.w	r3, #348	@ 0x15c
10008650:	f240 8295 	bls.w	10008b7e <__ssvfscanf_r+0xe4e>
10008654:	f46f 7cae 	mvn.w	ip, #348	@ 0x15c
10008658:	eb02 030c 	add.w	r3, r2, ip
1000865c:	f240 125d 	movw	r2, #349	@ 0x15d
10008660:	607b      	str	r3, [r7, #4]
10008662:	f507 73b0 	add.w	r3, r7, #352	@ 0x160
10008666:	f04f 0800 	mov.w	r8, #0
1000866a:	603e      	str	r6, [r7, #0]
1000866c:	f445 65f0 	orr.w	r5, r5, #1920	@ 0x780
10008670:	4619      	mov	r1, r3
10008672:	61bb      	str	r3, [r7, #24]
10008674:	4616      	mov	r6, r2
10008676:	4643      	mov	r3, r8
10008678:	4689      	mov	r9, r1
1000867a:	4621      	mov	r1, r4
1000867c:	f8c7 8014 	str.w	r8, [r7, #20]
10008680:	f8c7 803c 	str.w	r8, [r7, #60]	@ 0x3c
10008684:	e9c7 8803 	strd	r8, r8, [r7, #12]
10008688:	680a      	ldr	r2, [r1, #0]
1000868a:	7810      	ldrb	r0, [r2, #0]
1000868c:	f1a0 0c2b 	sub.w	ip, r0, #43	@ 0x2b
10008690:	f1bc 0f4e 	cmp.w	ip, #78	@ 0x4e
10008694:	d850      	bhi.n	10008738 <__ssvfscanf_r+0xa08>
10008696:	e8df f01c 	tbh	[pc, ip, lsl #1]
1000869a:	013d      	.short	0x013d
1000869c:	013d004f 	.word	0x013d004f
100086a0:	004f004f 	.word	0x004f004f
100086a4:	00b30177 	.word	0x00b30177
100086a8:	00b300b3 	.word	0x00b300b3
100086ac:	00b300b3 	.word	0x00b300b3
100086b0:	00b300b3 	.word	0x00b300b3
100086b4:	00b300b3 	.word	0x00b300b3
100086b8:	004f004f 	.word	0x004f004f
100086bc:	004f004f 	.word	0x004f004f
100086c0:	004f004f 	.word	0x004f004f
100086c4:	0130004f 	.word	0x0130004f
100086c8:	00b100b1 	.word	0x00b100b1
100086cc:	011000b1 	.word	0x011000b1
100086d0:	004f0103 	.word	0x004f0103
100086d4:	00c3004f 	.word	0x00c3004f
100086d8:	004f004f 	.word	0x004f004f
100086dc:	004f004f 	.word	0x004f004f
100086e0:	004f0160 	.word	0x004f0160
100086e4:	004f015d 	.word	0x004f015d
100086e8:	004f004f 	.word	0x004f004f
100086ec:	004f0156 	.word	0x004f0156
100086f0:	004f004f 	.word	0x004f004f
100086f4:	01290143 	.word	0x01290143
100086f8:	004f004f 	.word	0x004f004f
100086fc:	004f004f 	.word	0x004f004f
10008700:	004f004f 	.word	0x004f004f
10008704:	0130004f 	.word	0x0130004f
10008708:	00b100b1 	.word	0x00b100b1
1000870c:	011000b1 	.word	0x011000b1
10008710:	004f0103 	.word	0x004f0103
10008714:	00c3004f 	.word	0x00c3004f
10008718:	004f004f 	.word	0x004f004f
1000871c:	004f004f 	.word	0x004f004f
10008720:	004f0160 	.word	0x004f0160
10008724:	004f015d 	.word	0x004f015d
10008728:	004f004f 	.word	0x004f004f
1000872c:	004f0156 	.word	0x004f0156
10008730:	004f004f 	.word	0x004f004f
10008734:	01290143 	.word	0x01290143
10008738:	68bc      	ldr	r4, [r7, #8]
1000873a:	f894 c000 	ldrb.w	ip, [r4]
1000873e:	4584      	cmp	ip, r0
10008740:	d113      	bne.n	1000876a <__ssvfscanf_r+0xa3a>
10008742:	05ac      	lsls	r4, r5, #22
10008744:	d511      	bpl.n	1000876a <__ssvfscanf_r+0xa3a>
10008746:	f425 7520 	bic.w	r5, r5, #640	@ 0x280
1000874a:	617b      	str	r3, [r7, #20]
1000874c:	f809 0b01 	strb.w	r0, [r9], #1
10008750:	3e01      	subs	r6, #1
10008752:	6848      	ldr	r0, [r1, #4]
10008754:	f10a 0a01 	add.w	sl, sl, #1
10008758:	3801      	subs	r0, #1
1000875a:	2800      	cmp	r0, #0
1000875c:	6048      	str	r0, [r1, #4]
1000875e:	f340 8147 	ble.w	100089f0 <__ssvfscanf_r+0xcc0>
10008762:	3201      	adds	r2, #1
10008764:	600a      	str	r2, [r1, #0]
10008766:	2e00      	cmp	r6, #0
10008768:	d18e      	bne.n	10008688 <__ssvfscanf_r+0x958>
1000876a:	62bb      	str	r3, [r7, #40]	@ 0x28
1000876c:	460c      	mov	r4, r1
1000876e:	6bfb      	ldr	r3, [r7, #60]	@ 0x3c
10008770:	6aba      	ldr	r2, [r7, #40]	@ 0x28
10008772:	3b01      	subs	r3, #1
10008774:	2a00      	cmp	r2, #0
10008776:	f000 84e0 	beq.w	1000913a <__ssvfscanf_r+0x140a>
1000877a:	2b01      	cmp	r3, #1
1000877c:	f425 7580 	bic.w	r5, r5, #256	@ 0x100
10008780:	f240 849a 	bls.w	100090b8 <__ssvfscanf_r+0x1388>
10008784:	f108 33ff 	add.w	r3, r8, #4294967295	@ 0xffffffff
10008788:	2b06      	cmp	r3, #6
1000878a:	f240 839d 	bls.w	10008ec8 <__ssvfscanf_r+0x1198>
1000878e:	f015 0310 	ands.w	r3, r5, #16
10008792:	f47f ab9e 	bne.w	10007ed2 <__ssvfscanf_r+0x1a2>
10008796:	f889 3000 	strb.w	r3, [r9]
1000879a:	f405 63c0 	and.w	r3, r5, #1536	@ 0x600
1000879e:	f5b3 6f80 	cmp.w	r3, #1024	@ 0x400
100087a2:	d170      	bne.n	10008886 <__ssvfscanf_r+0xb56>
100087a4:	6abb      	ldr	r3, [r7, #40]	@ 0x28
100087a6:	697a      	ldr	r2, [r7, #20]
100087a8:	4293      	cmp	r3, r2
100087aa:	d010      	beq.n	100087ce <__ssvfscanf_r+0xa9e>
100087ac:	4613      	mov	r3, r2
100087ae:	6aba      	ldr	r2, [r7, #40]	@ 0x28
100087b0:	f8c7 900c 	str.w	r9, [r7, #12]
100087b4:	1a9a      	subs	r2, r3, r2
100087b6:	f207 23b3 	addw	r3, r7, #691	@ 0x2b3
100087ba:	68f9      	ldr	r1, [r7, #12]
100087bc:	4299      	cmp	r1, r3
100087be:	d302      	bcc.n	100087c6 <__ssvfscanf_r+0xa96>
100087c0:	f207 23b2 	addw	r3, r7, #690	@ 0x2b2
100087c4:	60fb      	str	r3, [r7, #12]
100087c6:	68f8      	ldr	r0, [r7, #12]
100087c8:	49a4      	ldr	r1, [pc, #656]	@ (10008a5c <__ssvfscanf_r+0xd2c>)
100087ca:	f7fb fa71 	bl	10003cb0 <__wrap_sprintf>
100087ce:	69b9      	ldr	r1, [r7, #24]
100087d0:	2200      	movs	r2, #0
100087d2:	6c78      	ldr	r0, [r7, #68]	@ 0x44
100087d4:	f001 ffaa 	bl	1000a72c <_strtod_r>
100087d8:	6afb      	ldr	r3, [r7, #44]	@ 0x2c
100087da:	4680      	mov	r8, r0
100087dc:	4689      	mov	r9, r1
100087de:	f853 6b04 	ldr.w	r6, [r3], #4
100087e2:	62fb      	str	r3, [r7, #44]	@ 0x2c
100087e4:	07eb      	lsls	r3, r5, #31
100087e6:	d402      	bmi.n	100087ee <__ssvfscanf_r+0xabe>
100087e8:	07ad      	lsls	r5, r5, #30
100087ea:	f140 824d 	bpl.w	10008c88 <__ssvfscanf_r+0xf58>
100087ee:	e9c6 8900 	strd	r8, r9, [r6]
100087f2:	6bbb      	ldr	r3, [r7, #56]	@ 0x38
100087f4:	3301      	adds	r3, #1
100087f6:	63bb      	str	r3, [r7, #56]	@ 0x38
100087f8:	f7ff bb6b 	b.w	10007ed2 <__ssvfscanf_r+0x1a2>
100087fc:	052c      	lsls	r4, r5, #20
100087fe:	d5b4      	bpl.n	1000876a <__ssvfscanf_r+0xa3a>
10008800:	6bfc      	ldr	r4, [r7, #60]	@ 0x3c
10008802:	eb14 0c08 	adds.w	ip, r4, r8
10008806:	d1b0      	bne.n	1000876a <__ssvfscanf_r+0xa3a>
10008808:	46e0      	mov	r8, ip
1000880a:	f425 75c0 	bic.w	r5, r5, #384	@ 0x180
1000880e:	f8c7 c03c 	str.w	ip, [r7, #60]	@ 0x3c
10008812:	e79b      	b.n	1000874c <__ssvfscanf_r+0xa1c>
10008814:	4b92      	ldr	r3, [pc, #584]	@ (10008a60 <__ssvfscanf_r+0xd30>)
10008816:	f425 6538 	bic.w	r5, r5, #2944	@ 0xb80
1000881a:	f933 4014 	ldrsh.w	r4, [r3, r4, lsl #1]
1000881e:	e6d1      	b.n	100085c4 <__ssvfscanf_r+0x894>
10008820:	f1b8 0f00 	cmp.w	r8, #0
10008824:	f040 8109 	bne.w	10008a3a <__ssvfscanf_r+0xd0a>
10008828:	2b00      	cmp	r3, #0
1000882a:	f040 8106 	bne.w	10008a3a <__ssvfscanf_r+0xd0a>
1000882e:	f405 63e0 	and.w	r3, r5, #1792	@ 0x700
10008832:	f5b3 6fe0 	cmp.w	r3, #1792	@ 0x700
10008836:	f000 82ca 	beq.w	10008dce <__ssvfscanf_r+0x109e>
1000883a:	6bfb      	ldr	r3, [r7, #60]	@ 0x3c
1000883c:	460c      	mov	r4, r1
1000883e:	683e      	ldr	r6, [r7, #0]
10008840:	3b01      	subs	r3, #1
10008842:	2b01      	cmp	r3, #1
10008844:	f240 8438 	bls.w	100090b8 <__ssvfscanf_r+0x1388>
10008848:	1e73      	subs	r3, r6, #1
1000884a:	2b06      	cmp	r3, #6
1000884c:	f240 831b 	bls.w	10008e86 <__ssvfscanf_r+0x1156>
10008850:	2300      	movs	r3, #0
10008852:	62bb      	str	r3, [r7, #40]	@ 0x28
10008854:	05e9      	lsls	r1, r5, #23
10008856:	d59a      	bpl.n	1000878e <__ssvfscanf_r+0xa5e>
10008858:	056a      	lsls	r2, r5, #21
1000885a:	f100 843d 	bmi.w	100090d8 <__ssvfscanf_r+0x13a8>
1000885e:	f819 1c01 	ldrb.w	r1, [r9, #-1]
10008862:	f001 03df 	and.w	r3, r1, #223	@ 0xdf
10008866:	2b45      	cmp	r3, #69	@ 0x45
10008868:	f040 82a0 	bne.w	10008dac <__ssvfscanf_r+0x107c>
1000886c:	f109 36ff 	add.w	r6, r9, #4294967295	@ 0xffffffff
10008870:	f10a 3aff 	add.w	sl, sl, #4294967295	@ 0xffffffff
10008874:	4622      	mov	r2, r4
10008876:	6c78      	ldr	r0, [r7, #68]	@ 0x44
10008878:	f7ff f9ae 	bl	10007bd8 <_sungetc_r>
1000887c:	f015 0310 	ands.w	r3, r5, #16
10008880:	f47f ab27 	bne.w	10007ed2 <__ssvfscanf_r+0x1a2>
10008884:	7033      	strb	r3, [r6, #0]
10008886:	693b      	ldr	r3, [r7, #16]
10008888:	2b00      	cmp	r3, #0
1000888a:	d0a0      	beq.n	100087ce <__ssvfscanf_r+0xa9e>
1000888c:	68f9      	ldr	r1, [r7, #12]
1000888e:	230a      	movs	r3, #10
10008890:	2200      	movs	r2, #0
10008892:	6c78      	ldr	r0, [r7, #68]	@ 0x44
10008894:	3101      	adds	r1, #1
10008896:	f002 f833 	bl	1000a900 <_strtol_r>
1000889a:	693b      	ldr	r3, [r7, #16]
1000889c:	1ac2      	subs	r2, r0, r3
1000889e:	e78a      	b.n	100087b6 <__ssvfscanf_r+0xa86>
100088a0:	052c      	lsls	r4, r5, #20
100088a2:	d503      	bpl.n	100088ac <__ssvfscanf_r+0xb7c>
100088a4:	6bfc      	ldr	r4, [r7, #60]	@ 0x3c
100088a6:	eb14 0c08 	adds.w	ip, r4, r8
100088aa:	d0ad      	beq.n	10008808 <__ssvfscanf_r+0xad8>
100088ac:	f1b8 0f02 	cmp.w	r8, #2
100088b0:	f47f af5b 	bne.w	1000876a <__ssvfscanf_r+0xa3a>
100088b4:	f04f 0803 	mov.w	r8, #3
100088b8:	e748      	b.n	1000874c <__ssvfscanf_r+0xa1c>
100088ba:	052c      	lsls	r4, r5, #20
100088bc:	d4a0      	bmi.n	10008800 <__ssvfscanf_r+0xad0>
100088be:	f405 6ca0 	and.w	ip, r5, #1280	@ 0x500
100088c2:	f5bc 6f80 	cmp.w	ip, #1024	@ 0x400
100088c6:	d005      	beq.n	100088d4 <__ssvfscanf_r+0xba4>
100088c8:	056c      	lsls	r4, r5, #21
100088ca:	f57f af4e 	bpl.w	1000876a <__ssvfscanf_r+0xa3a>
100088ce:	2b00      	cmp	r3, #0
100088d0:	f000 83e8 	beq.w	100090a4 <__ssvfscanf_r+0x1374>
100088d4:	05ac      	lsls	r4, r5, #22
100088d6:	d403      	bmi.n	100088e0 <__ssvfscanf_r+0xbb0>
100088d8:	697c      	ldr	r4, [r7, #20]
100088da:	1b1b      	subs	r3, r3, r4
100088dc:	e9c7 9303 	strd	r9, r3, [r7, #12]
100088e0:	f425 6578 	bic.w	r5, r5, #3968	@ 0xf80
100088e4:	2300      	movs	r3, #0
100088e6:	f445 75c0 	orr.w	r5, r5, #384	@ 0x180
100088ea:	e72f      	b.n	1000874c <__ssvfscanf_r+0xa1c>
100088ec:	f1b8 0f07 	cmp.w	r8, #7
100088f0:	f47f af3b 	bne.w	1000876a <__ssvfscanf_r+0xa3a>
100088f4:	f04f 0808 	mov.w	r8, #8
100088f8:	e728      	b.n	1000874c <__ssvfscanf_r+0xa1c>
100088fa:	052c      	lsls	r4, r5, #20
100088fc:	d503      	bpl.n	10008906 <__ssvfscanf_r+0xbd6>
100088fe:	6bfc      	ldr	r4, [r7, #60]	@ 0x3c
10008900:	eb14 0c08 	adds.w	ip, r4, r8
10008904:	d080      	beq.n	10008808 <__ssvfscanf_r+0xad8>
10008906:	6bfc      	ldr	r4, [r7, #60]	@ 0x3c
10008908:	2c01      	cmp	r4, #1
1000890a:	f040 83d0 	bne.w	100090ae <__ssvfscanf_r+0x137e>
1000890e:	2402      	movs	r4, #2
10008910:	63fc      	str	r4, [r7, #60]	@ 0x3c
10008912:	e71b      	b.n	1000874c <__ssvfscanf_r+0xa1c>
10008914:	062c      	lsls	r4, r5, #24
10008916:	f57f af28 	bpl.w	1000876a <__ssvfscanf_r+0xa3a>
1000891a:	f025 0580 	bic.w	r5, r5, #128	@ 0x80
1000891e:	e715      	b.n	1000874c <__ssvfscanf_r+0xa1c>
10008920:	f405 6c18 	and.w	ip, r5, #2432	@ 0x980
10008924:	f5bc 7f80 	cmp.w	ip, #256	@ 0x100
10008928:	f47f af1f 	bne.w	1000876a <__ssvfscanf_r+0xa3a>
1000892c:	2b01      	cmp	r3, #1
1000892e:	f47f af1c 	bne.w	1000876a <__ssvfscanf_r+0xa3a>
10008932:	2330      	movs	r3, #48	@ 0x30
10008934:	f425 7580 	bic.w	r5, r5, #256	@ 0x100
10008938:	3e01      	subs	r6, #1
1000893a:	f809 3b01 	strb.w	r3, [r9], #1
1000893e:	f445 6500 	orr.w	r5, r5, #2048	@ 0x800
10008942:	2300      	movs	r3, #0
10008944:	e702      	b.n	1000874c <__ssvfscanf_r+0xa1c>
10008946:	f1b8 0f06 	cmp.w	r8, #6
1000894a:	f47f af0e 	bne.w	1000876a <__ssvfscanf_r+0xa3a>
1000894e:	f04f 0807 	mov.w	r8, #7
10008952:	e6fb      	b.n	1000874c <__ssvfscanf_r+0xa1c>
10008954:	052c      	lsls	r4, r5, #20
10008956:	d4b2      	bmi.n	100088be <__ssvfscanf_r+0xb8e>
10008958:	e707      	b.n	1000876a <__ssvfscanf_r+0xa3a>
1000895a:	6bfc      	ldr	r4, [r7, #60]	@ 0x3c
1000895c:	2c00      	cmp	r4, #0
1000895e:	d173      	bne.n	10008a48 <__ssvfscanf_r+0xd18>
10008960:	2b00      	cmp	r3, #0
10008962:	d171      	bne.n	10008a48 <__ssvfscanf_r+0xd18>
10008964:	f405 6ce0 	and.w	ip, r5, #1792	@ 0x700
10008968:	f5bc 6fe0 	cmp.w	ip, #1792	@ 0x700
1000896c:	f000 8229 	beq.w	10008dc2 <__ssvfscanf_r+0x1092>
10008970:	f1b8 0f01 	cmp.w	r8, #1
10008974:	d003      	beq.n	1000897e <__ssvfscanf_r+0xc4e>
10008976:	f1b8 0f04 	cmp.w	r8, #4
1000897a:	f47f aef6 	bne.w	1000876a <__ssvfscanf_r+0xa3a>
1000897e:	f108 0801 	add.w	r8, r8, #1
10008982:	fa5f f888 	uxtb.w	r8, r8
10008986:	e6e1      	b.n	1000874c <__ssvfscanf_r+0xa1c>
10008988:	05ec      	lsls	r4, r5, #23
1000898a:	f57f af39 	bpl.w	10008800 <__ssvfscanf_r+0xad0>
1000898e:	6878      	ldr	r0, [r7, #4]
10008990:	f025 0580 	bic.w	r5, r5, #128	@ 0x80
10008994:	3301      	adds	r3, #1
10008996:	2800      	cmp	r0, #0
10008998:	f43f aeda 	beq.w	10008750 <__ssvfscanf_r+0xa20>
1000899c:	6878      	ldr	r0, [r7, #4]
1000899e:	3801      	subs	r0, #1
100089a0:	6078      	str	r0, [r7, #4]
100089a2:	e6d6      	b.n	10008752 <__ssvfscanf_r+0xa22>
100089a4:	f405 63c0 	and.w	r3, r5, #1536	@ 0x600
100089a8:	f5b3 7f00 	cmp.w	r3, #512	@ 0x200
100089ac:	f47f ae17 	bne.w	100085de <__ssvfscanf_r+0x8ae>
100089b0:	f425 7500 	bic.w	r5, r5, #512	@ 0x200
100089b4:	2410      	movs	r4, #16
100089b6:	f445 65a0 	orr.w	r5, r5, #1280	@ 0x500
100089ba:	e603      	b.n	100085c4 <__ssvfscanf_r+0x894>
100089bc:	4b28      	ldr	r3, [pc, #160]	@ (10008a60 <__ssvfscanf_r+0xd30>)
100089be:	f933 4014 	ldrsh.w	r4, [r3, r4, lsl #1]
100089c2:	2c08      	cmp	r4, #8
100089c4:	f73f adfc 	bgt.w	100085c0 <__ssvfscanf_r+0x890>
100089c8:	e609      	b.n	100085de <__ssvfscanf_r+0x8ae>
100089ca:	062a      	lsls	r2, r5, #24
100089cc:	f57f ae07 	bpl.w	100085de <__ssvfscanf_r+0x8ae>
100089d0:	f025 0580 	bic.w	r5, r5, #128	@ 0x80
100089d4:	e5f6      	b.n	100085c4 <__ssvfscanf_r+0x894>
100089d6:	052a      	lsls	r2, r5, #20
100089d8:	f57f adf4 	bpl.w	100085c4 <__ssvfscanf_r+0x894>
100089dc:	b914      	cbnz	r4, 100089e4 <__ssvfscanf_r+0xcb4>
100089de:	f445 7500 	orr.w	r5, r5, #512	@ 0x200
100089e2:	2408      	movs	r4, #8
100089e4:	056b      	lsls	r3, r5, #21
100089e6:	f140 80cd 	bpl.w	10008b84 <__ssvfscanf_r+0xe54>
100089ea:	f425 65b0 	bic.w	r5, r5, #1408	@ 0x580
100089ee:	e5e9      	b.n	100085c4 <__ssvfscanf_r+0x894>
100089f0:	6c78      	ldr	r0, [r7, #68]	@ 0x44
100089f2:	e9c7 3109 	strd	r3, r1, [r7, #36]	@ 0x24
100089f6:	f7ff f92d 	bl	10007c54 <__ssrefill_r>
100089fa:	e9d7 3109 	ldrd	r3, r1, [r7, #36]	@ 0x24
100089fe:	2800      	cmp	r0, #0
10008a00:	f47f aeb3 	bne.w	1000876a <__ssvfscanf_r+0xa3a>
10008a04:	2e00      	cmp	r6, #0
10008a06:	f47f ae3f 	bne.w	10008688 <__ssvfscanf_r+0x958>
10008a0a:	e6ae      	b.n	1000876a <__ssvfscanf_r+0xa3a>
10008a0c:	6c78      	ldr	r0, [r7, #68]	@ 0x44
10008a0e:	63f9      	str	r1, [r7, #60]	@ 0x3c
10008a10:	f7ff f920 	bl	10007c54 <__ssrefill_r>
10008a14:	6bf9      	ldr	r1, [r7, #60]	@ 0x3c
10008a16:	2800      	cmp	r0, #0
10008a18:	f43f adde 	beq.w	100085d8 <__ssvfscanf_r+0x8a8>
10008a1c:	e5df      	b.n	100085de <__ssvfscanf_r+0x8ae>
10008a1e:	6afb      	ldr	r3, [r7, #44]	@ 0x2c
10008a20:	681b      	ldr	r3, [r3, #0]
10008a22:	6018      	str	r0, [r3, #0]
10008a24:	6bbb      	ldr	r3, [r7, #56]	@ 0x38
10008a26:	f8c7 902c 	str.w	r9, [r7, #44]	@ 0x2c
10008a2a:	3301      	adds	r3, #1
10008a2c:	63bb      	str	r3, [r7, #56]	@ 0x38
10008a2e:	69bb      	ldr	r3, [r7, #24]
10008a30:	1af6      	subs	r6, r6, r3
10008a32:	4446      	add	r6, r8
10008a34:	44b2      	add	sl, r6
10008a36:	f7ff ba4c 	b.w	10007ed2 <__ssvfscanf_r+0x1a2>
10008a3a:	f1b8 0f03 	cmp.w	r8, #3
10008a3e:	d09e      	beq.n	1000897e <__ssvfscanf_r+0xc4e>
10008a40:	f1b8 0f05 	cmp.w	r8, #5
10008a44:	d09b      	beq.n	1000897e <__ssvfscanf_r+0xc4e>
10008a46:	e690      	b.n	1000876a <__ssvfscanf_r+0xa3a>
10008a48:	6bfc      	ldr	r4, [r7, #60]	@ 0x3c
10008a4a:	2c02      	cmp	r4, #2
10008a4c:	d190      	bne.n	10008970 <__ssvfscanf_r+0xc40>
10008a4e:	2403      	movs	r4, #3
10008a50:	63fc      	str	r4, [r7, #60]	@ 0x3c
10008a52:	e67b      	b.n	1000874c <__ssvfscanf_r+0xa1c>
10008a54:	f04f 0900 	mov.w	r9, #0
10008a58:	e549      	b.n	100084ee <__ssvfscanf_r+0x7be>
10008a5a:	bf00      	nop
10008a5c:	1000c928 	.word	0x1000c928
10008a60:	1000cdb8 	.word	0x1000cdb8
10008a64:	6a7b      	ldr	r3, [r7, #36]	@ 0x24
10008a66:	2b00      	cmp	r3, #0
10008a68:	f040 81dc 	bne.w	10008e24 <__ssvfscanf_r+0x10f4>
10008a6c:	6af9      	ldr	r1, [r7, #44]	@ 0x2c
10008a6e:	f015 0580 	ands.w	r5, r5, #128	@ 0x80
10008a72:	f851 3b04 	ldr.w	r3, [r1], #4
10008a76:	e9c7 310a 	strd	r3, r1, [r7, #40]	@ 0x28
10008a7a:	f000 82aa 	beq.w	10008fd2 <__ssvfscanf_r+0x12a2>
10008a7e:	461d      	mov	r5, r3
10008a80:	63fa      	str	r2, [r7, #60]	@ 0x3c
10008a82:	2b00      	cmp	r3, #0
10008a84:	f43f a9f1 	beq.w	10007e6a <__ssvfscanf_r+0x13a>
10008a88:	2020      	movs	r0, #32
10008a8a:	f7f9 ff11 	bl	100028b0 <__wrap_malloc>
10008a8e:	4681      	mov	r9, r0
10008a90:	2800      	cmp	r0, #0
10008a92:	f43f aa2d 	beq.w	10007ef0 <__ssvfscanf_r+0x1c0>
10008a96:	6b7b      	ldr	r3, [r7, #52]	@ 0x34
10008a98:	6028      	str	r0, [r5, #0]
10008a9a:	889e      	ldrh	r6, [r3, #4]
10008a9c:	88dd      	ldrh	r5, [r3, #6]
10008a9e:	6bfa      	ldr	r2, [r7, #60]	@ 0x3c
10008aa0:	42b5      	cmp	r5, r6
10008aa2:	f080 80d9 	bcs.w	10008c58 <__ssvfscanf_r+0xf28>
10008aa6:	6818      	ldr	r0, [r3, #0]
10008aa8:	6abb      	ldr	r3, [r7, #40]	@ 0x28
10008aaa:	f04f 0820 	mov.w	r8, #32
10008aae:	f840 3025 	str.w	r3, [r0, r5, lsl #2]
10008ab2:	3501      	adds	r5, #1
10008ab4:	6b7b      	ldr	r3, [r7, #52]	@ 0x34
10008ab6:	80dd      	strh	r5, [r3, #6]
10008ab8:	6820      	ldr	r0, [r4, #0]
10008aba:	f107 0360 	add.w	r3, r7, #96	@ 0x60
10008abe:	7801      	ldrb	r1, [r0, #0]
10008ac0:	5c59      	ldrb	r1, [r3, r1]
10008ac2:	2900      	cmp	r1, #0
10008ac4:	f43f a9d1 	beq.w	10007e6a <__ssvfscanf_r+0x13a>
10008ac8:	6abb      	ldr	r3, [r7, #40]	@ 0x28
10008aca:	464e      	mov	r6, r9
10008acc:	f8c7 a024 	str.w	sl, [r7, #36]	@ 0x24
10008ad0:	46ca      	mov	sl, r9
10008ad2:	3b00      	subs	r3, #0
10008ad4:	46c1      	mov	r9, r8
10008ad6:	4690      	mov	r8, r2
10008ad8:	bf18      	it	ne
10008ada:	2301      	movne	r3, #1
10008adc:	63fb      	str	r3, [r7, #60]	@ 0x3c
10008ade:	e007      	b.n	10008af0 <__ssvfscanf_r+0xdc0>
10008ae0:	6820      	ldr	r0, [r4, #0]
10008ae2:	f107 0360 	add.w	r3, r7, #96	@ 0x60
10008ae6:	7801      	ldrb	r1, [r0, #0]
10008ae8:	5c59      	ldrb	r1, [r3, r1]
10008aea:	2900      	cmp	r1, #0
10008aec:	f000 814c 	beq.w	10008d88 <__ssvfscanf_r+0x1058>
10008af0:	6861      	ldr	r1, [r4, #4]
10008af2:	1c43      	adds	r3, r0, #1
10008af4:	4655      	mov	r5, sl
10008af6:	3901      	subs	r1, #1
10008af8:	6023      	str	r3, [r4, #0]
10008afa:	6061      	str	r1, [r4, #4]
10008afc:	7803      	ldrb	r3, [r0, #0]
10008afe:	f805 3b01 	strb.w	r3, [r5], #1
10008b02:	46aa      	mov	sl, r5
10008b04:	1bad      	subs	r5, r5, r6
10008b06:	454d      	cmp	r5, r9
10008b08:	d30f      	bcc.n	10008b2a <__ssvfscanf_r+0xdfa>
10008b0a:	6bfb      	ldr	r3, [r7, #60]	@ 0x3c
10008b0c:	4630      	mov	r0, r6
10008b0e:	b163      	cbz	r3, 10008b2a <__ssvfscanf_r+0xdfa>
10008b10:	ea4f 0949 	mov.w	r9, r9, lsl #1
10008b14:	4649      	mov	r1, r9
10008b16:	f7f9 fedd 	bl	100028d4 <__wrap_realloc>
10008b1a:	4606      	mov	r6, r0
10008b1c:	2800      	cmp	r0, #0
10008b1e:	f43f a9e7 	beq.w	10007ef0 <__ssvfscanf_r+0x1c0>
10008b22:	6abb      	ldr	r3, [r7, #40]	@ 0x28
10008b24:	eb00 0a05 	add.w	sl, r0, r5
10008b28:	6018      	str	r0, [r3, #0]
10008b2a:	f1b8 0801 	subs.w	r8, r8, #1
10008b2e:	f000 812b 	beq.w	10008d88 <__ssvfscanf_r+0x1058>
10008b32:	6861      	ldr	r1, [r4, #4]
10008b34:	2900      	cmp	r1, #0
10008b36:	dcd3      	bgt.n	10008ae0 <__ssvfscanf_r+0xdb0>
10008b38:	4621      	mov	r1, r4
10008b3a:	6c78      	ldr	r0, [r7, #68]	@ 0x44
10008b3c:	f7ff f88a 	bl	10007c54 <__ssrefill_r>
10008b40:	2800      	cmp	r0, #0
10008b42:	d0cd      	beq.n	10008ae0 <__ssvfscanf_r+0xdb0>
10008b44:	46c8      	mov	r8, r9
10008b46:	46d1      	mov	r9, sl
10008b48:	f8d7 a024 	ldr.w	sl, [r7, #36]	@ 0x24
10008b4c:	45b1      	cmp	r9, r6
10008b4e:	f43f a9ca 	beq.w	10007ee6 <__ssvfscanf_r+0x1b6>
10008b52:	eba9 0606 	sub.w	r6, r9, r6
10008b56:	1c71      	adds	r1, r6, #1
10008b58:	2200      	movs	r2, #0
10008b5a:	4588      	cmp	r8, r1
10008b5c:	f889 2000 	strb.w	r2, [r9]
10008b60:	d907      	bls.n	10008b72 <__ssvfscanf_r+0xe42>
10008b62:	6bfb      	ldr	r3, [r7, #60]	@ 0x3c
10008b64:	b12b      	cbz	r3, 10008b72 <__ssvfscanf_r+0xe42>
10008b66:	6abd      	ldr	r5, [r7, #40]	@ 0x28
10008b68:	6828      	ldr	r0, [r5, #0]
10008b6a:	f7f9 feb3 	bl	100028d4 <__wrap_realloc>
10008b6e:	b100      	cbz	r0, 10008b72 <__ssvfscanf_r+0xe42>
10008b70:	6028      	str	r0, [r5, #0]
10008b72:	6bbb      	ldr	r3, [r7, #56]	@ 0x38
10008b74:	44b2      	add	sl, r6
10008b76:	3301      	adds	r3, #1
10008b78:	63bb      	str	r3, [r7, #56]	@ 0x38
10008b7a:	f7ff b9aa 	b.w	10007ed2 <__ssvfscanf_r+0x1a2>
10008b7e:	2300      	movs	r3, #0
10008b80:	607b      	str	r3, [r7, #4]
10008b82:	e56e      	b.n	10008662 <__ssvfscanf_r+0x932>
10008b84:	6abb      	ldr	r3, [r7, #40]	@ 0x28
10008b86:	f425 7560 	bic.w	r5, r5, #896	@ 0x380
10008b8a:	b11b      	cbz	r3, 10008b94 <__ssvfscanf_r+0xe64>
10008b8c:	3b01      	subs	r3, #1
10008b8e:	f109 0901 	add.w	r9, r9, #1
10008b92:	62bb      	str	r3, [r7, #40]	@ 0x28
10008b94:	f10a 0a01 	add.w	sl, sl, #1
10008b98:	e516      	b.n	100085c8 <__ssvfscanf_r+0x898>
10008b9a:	9400      	str	r4, [sp, #0]
10008b9c:	4613      	mov	r3, r2
10008b9e:	4631      	mov	r1, r6
10008ba0:	2201      	movs	r2, #1
10008ba2:	6c78      	ldr	r0, [r7, #68]	@ 0x44
10008ba4:	f7ff f872 	bl	10007c8c <_sfread_r>
10008ba8:	4605      	mov	r5, r0
10008baa:	2800      	cmp	r0, #0
10008bac:	f43f a99b 	beq.w	10007ee6 <__ssvfscanf_r+0x1b6>
10008bb0:	6bbb      	ldr	r3, [r7, #56]	@ 0x38
10008bb2:	44aa      	add	sl, r5
10008bb4:	3301      	adds	r3, #1
10008bb6:	63bb      	str	r3, [r7, #56]	@ 0x38
10008bb8:	f7ff b98b 	b.w	10007ed2 <__ssvfscanf_r+0x1a2>
10008bbc:	f64f 73f6 	movw	r3, #65526	@ 0xfff6
10008bc0:	63fa      	str	r2, [r7, #60]	@ 0x3c
10008bc2:	429e      	cmp	r6, r3
10008bc4:	f63f a994 	bhi.w	10007ef0 <__ssvfscanf_r+0x1c0>
10008bc8:	3608      	adds	r6, #8
10008bca:	6b7b      	ldr	r3, [r7, #52]	@ 0x34
10008bcc:	00b1      	lsls	r1, r6, #2
10008bce:	6818      	ldr	r0, [r3, #0]
10008bd0:	f7f9 fe80 	bl	100028d4 <__wrap_realloc>
10008bd4:	2800      	cmp	r0, #0
10008bd6:	f43f a98b 	beq.w	10007ef0 <__ssvfscanf_r+0x1c0>
10008bda:	6b7b      	ldr	r3, [r7, #52]	@ 0x34
10008bdc:	6bfa      	ldr	r2, [r7, #60]	@ 0x3c
10008bde:	809e      	strh	r6, [r3, #4]
10008be0:	6018      	str	r0, [r3, #0]
10008be2:	f7ff bb36 	b.w	10008252 <__ssvfscanf_r+0x522>
10008be6:	6aba      	ldr	r2, [r7, #40]	@ 0x28
10008be8:	2a00      	cmp	r2, #0
10008bea:	f43f aabf 	beq.w	1000816c <__ssvfscanf_r+0x43c>
10008bee:	6862      	ldr	r2, [r4, #4]
10008bf0:	2a00      	cmp	r2, #0
10008bf2:	f73f aadd 	bgt.w	100081b0 <__ssvfscanf_r+0x480>
10008bf6:	4621      	mov	r1, r4
10008bf8:	6c78      	ldr	r0, [r7, #68]	@ 0x44
10008bfa:	63fb      	str	r3, [r7, #60]	@ 0x3c
10008bfc:	f7ff f82a 	bl	10007c54 <__ssrefill_r>
10008c00:	6bfb      	ldr	r3, [r7, #60]	@ 0x3c
10008c02:	2800      	cmp	r0, #0
10008c04:	f43f aad0 	beq.w	100081a8 <__ssvfscanf_r+0x478>
10008c08:	61fb      	str	r3, [r7, #28]
10008c0a:	6a7b      	ldr	r3, [r7, #36]	@ 0x24
10008c0c:	eba8 0103 	sub.w	r1, r8, r3
10008c10:	69bb      	ldr	r3, [r7, #24]
10008c12:	ebb3 0fa1 	cmp.w	r3, r1, asr #2
10008c16:	d907      	bls.n	10008c28 <__ssvfscanf_r+0xef8>
10008c18:	697b      	ldr	r3, [r7, #20]
10008c1a:	b12b      	cbz	r3, 10008c28 <__ssvfscanf_r+0xef8>
10008c1c:	693d      	ldr	r5, [r7, #16]
10008c1e:	6828      	ldr	r0, [r5, #0]
10008c20:	f7f9 fe58 	bl	100028d4 <__wrap_realloc>
10008c24:	b100      	cbz	r0, 10008c28 <__ssvfscanf_r+0xef8>
10008c26:	6028      	str	r0, [r5, #0]
10008c28:	6abb      	ldr	r3, [r7, #40]	@ 0x28
10008c2a:	2b00      	cmp	r3, #0
10008c2c:	f47f a951 	bne.w	10007ed2 <__ssvfscanf_r+0x1a2>
10008c30:	e5df      	b.n	100087f2 <__ssvfscanf_r+0xac2>
10008c32:	f64f 73f6 	movw	r3, #65526	@ 0xfff6
10008c36:	429e      	cmp	r6, r3
10008c38:	f63f a95a 	bhi.w	10007ef0 <__ssvfscanf_r+0x1c0>
10008c3c:	3608      	adds	r6, #8
10008c3e:	6b7b      	ldr	r3, [r7, #52]	@ 0x34
10008c40:	00b1      	lsls	r1, r6, #2
10008c42:	6818      	ldr	r0, [r3, #0]
10008c44:	f7f9 fe46 	bl	100028d4 <__wrap_realloc>
10008c48:	2800      	cmp	r0, #0
10008c4a:	f43f a951 	beq.w	10007ef0 <__ssvfscanf_r+0x1c0>
10008c4e:	6b7b      	ldr	r3, [r7, #52]	@ 0x34
10008c50:	809e      	strh	r6, [r3, #4]
10008c52:	6018      	str	r0, [r3, #0]
10008c54:	f7ff ba48 	b.w	100080e8 <__ssvfscanf_r+0x3b8>
10008c58:	f64f 73f6 	movw	r3, #65526	@ 0xfff6
10008c5c:	63fa      	str	r2, [r7, #60]	@ 0x3c
10008c5e:	429e      	cmp	r6, r3
10008c60:	f63f a948 	bhi.w	10007ef4 <__ssvfscanf_r+0x1c4>
10008c64:	3608      	adds	r6, #8
10008c66:	6b7b      	ldr	r3, [r7, #52]	@ 0x34
10008c68:	00b1      	lsls	r1, r6, #2
10008c6a:	6818      	ldr	r0, [r3, #0]
10008c6c:	f7f9 fe32 	bl	100028d4 <__wrap_realloc>
10008c70:	2800      	cmp	r0, #0
10008c72:	f43f a93f 	beq.w	10007ef4 <__ssvfscanf_r+0x1c4>
10008c76:	6b7b      	ldr	r3, [r7, #52]	@ 0x34
10008c78:	6bfa      	ldr	r2, [r7, #60]	@ 0x3c
10008c7a:	809e      	strh	r6, [r3, #4]
10008c7c:	6018      	str	r0, [r3, #0]
10008c7e:	e713      	b.n	10008aa8 <__ssvfscanf_r+0xd78>
10008c80:	6afb      	ldr	r3, [r7, #44]	@ 0x2c
10008c82:	681b      	ldr	r3, [r3, #0]
10008c84:	7018      	strb	r0, [r3, #0]
10008c86:	e6cd      	b.n	10008a24 <__ssvfscanf_r+0xcf4>
10008c88:	4602      	mov	r2, r0
10008c8a:	460b      	mov	r3, r1
10008c8c:	f7f9 fc4a 	bl	10002524 <__wrap___aeabi_dcmpun>
10008c90:	2800      	cmp	r0, #0
10008c92:	f040 823e 	bne.w	10009112 <__ssvfscanf_r+0x13e2>
10008c96:	4640      	mov	r0, r8
10008c98:	4649      	mov	r1, r9
10008c9a:	f7f9 fbed 	bl	10002478 <__wrap___aeabi_d2f>
10008c9e:	6030      	str	r0, [r6, #0]
10008ca0:	e5a7      	b.n	100087f2 <__ssvfscanf_r+0xac2>
10008ca2:	1c82      	adds	r2, r0, #2
10008ca4:	d04a      	beq.n	10008d3c <__ssvfscanf_r+0x100c>
10008ca6:	2803      	cmp	r0, #3
10008ca8:	44aa      	add	sl, r5
10008caa:	d102      	bne.n	10008cb2 <__ssvfscanf_r+0xf82>
10008cac:	6832      	ldr	r2, [r6, #0]
10008cae:	2a04      	cmp	r2, #4
10008cb0:	d099      	beq.n	10008be6 <__ssvfscanf_r+0xeb6>
10008cb2:	6aba      	ldr	r2, [r7, #40]	@ 0x28
10008cb4:	f109 39ff 	add.w	r9, r9, #4294967295	@ 0xffffffff
10008cb8:	2a00      	cmp	r2, #0
10008cba:	f43f aa57 	beq.w	1000816c <__ssvfscanf_r+0x43c>
10008cbe:	f7ff ba6f 	b.w	100081a0 <__ssvfscanf_r+0x470>
10008cc2:	1c86      	adds	r6, r0, #2
10008cc4:	d04d      	beq.n	10008d62 <__ssvfscanf_r+0x1032>
10008cc6:	f8d8 6000 	ldr.w	r6, [r8]
10008cca:	1c70      	adds	r0, r6, #1
10008ccc:	f47f ab06 	bne.w	100082dc <__ssvfscanf_r+0x5ac>
10008cd0:	f7ff bb19 	b.w	10008306 <__ssvfscanf_r+0x5d6>
10008cd4:	f8da 3000 	ldr.w	r3, [sl]
10008cd8:	2b04      	cmp	r3, #4
10008cda:	f47f ab20 	bne.w	1000831e <__ssvfscanf_r+0x5ee>
10008cde:	6a7b      	ldr	r3, [r7, #36]	@ 0x24
10008ce0:	2b00      	cmp	r3, #0
10008ce2:	f43f ab21 	beq.w	10008328 <__ssvfscanf_r+0x5f8>
10008ce6:	6863      	ldr	r3, [r4, #4]
10008ce8:	2b00      	cmp	r3, #0
10008cea:	f73f ab3e 	bgt.w	1000836a <__ssvfscanf_r+0x63a>
10008cee:	4621      	mov	r1, r4
10008cf0:	6c78      	ldr	r0, [r7, #68]	@ 0x44
10008cf2:	f7fe ffaf 	bl	10007c54 <__ssrefill_r>
10008cf6:	2800      	cmp	r0, #0
10008cf8:	f43f ab33 	beq.w	10008362 <__ssvfscanf_r+0x632>
10008cfc:	f8d7 a028 	ldr.w	sl, [r7, #40]	@ 0x28
10008d00:	61fd      	str	r5, [r7, #28]
10008d02:	6a7b      	ldr	r3, [r7, #36]	@ 0x24
10008d04:	2b00      	cmp	r3, #0
10008d06:	f47f a8e4 	bne.w	10007ed2 <__ssvfscanf_r+0x1a2>
10008d0a:	f8c8 3000 	str.w	r3, [r8]
10008d0e:	697b      	ldr	r3, [r7, #20]
10008d10:	69ba      	ldr	r2, [r7, #24]
10008d12:	eba8 0103 	sub.w	r1, r8, r3
10008d16:	108b      	asrs	r3, r1, #2
10008d18:	3301      	adds	r3, #1
10008d1a:	429a      	cmp	r2, r3
10008d1c:	f67f ad69 	bls.w	100087f2 <__ssvfscanf_r+0xac2>
10008d20:	693b      	ldr	r3, [r7, #16]
10008d22:	2b00      	cmp	r3, #0
10008d24:	f43f ad65 	beq.w	100087f2 <__ssvfscanf_r+0xac2>
10008d28:	68fd      	ldr	r5, [r7, #12]
10008d2a:	3104      	adds	r1, #4
10008d2c:	6828      	ldr	r0, [r5, #0]
10008d2e:	f7f9 fdd1 	bl	100028d4 <__wrap_realloc>
10008d32:	2800      	cmp	r0, #0
10008d34:	f43f ad5d 	beq.w	100087f2 <__ssvfscanf_r+0xac2>
10008d38:	6028      	str	r0, [r5, #0]
10008d3a:	e55a      	b.n	100087f2 <__ssvfscanf_r+0xac2>
10008d3c:	6862      	ldr	r2, [r4, #4]
10008d3e:	2a00      	cmp	r2, #0
10008d40:	f73f a9e0 	bgt.w	10008104 <__ssvfscanf_r+0x3d4>
10008d44:	63f8      	str	r0, [r7, #60]	@ 0x3c
10008d46:	4621      	mov	r1, r4
10008d48:	6c78      	ldr	r0, [r7, #68]	@ 0x44
10008d4a:	f7fe ff83 	bl	10007c54 <__ssrefill_r>
10008d4e:	6bfb      	ldr	r3, [r7, #60]	@ 0x3c
10008d50:	2800      	cmp	r0, #0
10008d52:	f43f a9d7 	beq.w	10008104 <__ssvfscanf_r+0x3d4>
10008d56:	61fb      	str	r3, [r7, #28]
10008d58:	2d00      	cmp	r5, #0
10008d5a:	f43f af56 	beq.w	10008c0a <__ssvfscanf_r+0xeda>
10008d5e:	f7ff b8c2 	b.w	10007ee6 <__ssvfscanf_r+0x1b6>
10008d62:	6863      	ldr	r3, [r4, #4]
10008d64:	2b00      	cmp	r3, #0
10008d66:	f73f aa86 	bgt.w	10008276 <__ssvfscanf_r+0x546>
10008d6a:	4621      	mov	r1, r4
10008d6c:	6c78      	ldr	r0, [r7, #68]	@ 0x44
10008d6e:	f7fe ff71 	bl	10007c54 <__ssrefill_r>
10008d72:	2800      	cmp	r0, #0
10008d74:	f43f aa7f 	beq.w	10008276 <__ssvfscanf_r+0x546>
10008d78:	f8d7 a028 	ldr.w	sl, [r7, #40]	@ 0x28
10008d7c:	61fd      	str	r5, [r7, #28]
10008d7e:	f1b9 0f00 	cmp.w	r9, #0
10008d82:	d0be      	beq.n	10008d02 <__ssvfscanf_r+0xfd2>
10008d84:	f7ff b8af 	b.w	10007ee6 <__ssvfscanf_r+0x1b6>
10008d88:	46c8      	mov	r8, r9
10008d8a:	46d1      	mov	r9, sl
10008d8c:	f8d7 a024 	ldr.w	sl, [r7, #36]	@ 0x24
10008d90:	ebb9 0606 	subs.w	r6, r9, r6
10008d94:	f47f aedf 	bne.w	10008b56 <__ssvfscanf_r+0xe26>
10008d98:	f7ff b867 	b.w	10007e6a <__ssvfscanf_r+0x13a>
10008d9c:	460a      	mov	r2, r1
10008d9e:	6c78      	ldr	r0, [r7, #68]	@ 0x44
10008da0:	f816 1c01 	ldrb.w	r1, [r6, #-1]
10008da4:	3e01      	subs	r6, #1
10008da6:	f7fe ff17 	bl	10007bd8 <_sungetc_r>
10008daa:	e425      	b.n	100085f8 <__ssvfscanf_r+0x8c8>
10008dac:	4622      	mov	r2, r4
10008dae:	6c78      	ldr	r0, [r7, #68]	@ 0x44
10008db0:	f7fe ff12 	bl	10007bd8 <_sungetc_r>
10008db4:	f1aa 0a02 	sub.w	sl, sl, #2
10008db8:	f1a9 0602 	sub.w	r6, r9, #2
10008dbc:	f819 1c02 	ldrb.w	r1, [r9, #-2]
10008dc0:	e558      	b.n	10008874 <__ssvfscanf_r+0xb44>
10008dc2:	2301      	movs	r3, #1
10008dc4:	f425 65f0 	bic.w	r5, r5, #1920	@ 0x780
10008dc8:	63fb      	str	r3, [r7, #60]	@ 0x3c
10008dca:	2300      	movs	r3, #0
10008dcc:	e4be      	b.n	1000874c <__ssvfscanf_r+0xa1c>
10008dce:	f425 65f0 	bic.w	r5, r5, #1920	@ 0x780
10008dd2:	f04f 0801 	mov.w	r8, #1
10008dd6:	2300      	movs	r3, #0
10008dd8:	e4b8      	b.n	1000874c <__ssvfscanf_r+0xa1c>
10008dda:	461d      	mov	r5, r3
10008ddc:	6c7e      	ldr	r6, [r7, #68]	@ 0x44
10008dde:	e00a      	b.n	10008df6 <__ssvfscanf_r+0x10c6>
10008de0:	6021      	str	r1, [r4, #0]
10008de2:	4630      	mov	r0, r6
10008de4:	4621      	mov	r1, r4
10008de6:	441d      	add	r5, r3
10008de8:	eba9 0903 	sub.w	r9, r9, r3
10008dec:	f7fe ff32 	bl	10007c54 <__ssrefill_r>
10008df0:	2800      	cmp	r0, #0
10008df2:	f040 812a 	bne.w	1000904a <__ssvfscanf_r+0x131a>
10008df6:	e9d4 2300 	ldrd	r2, r3, [r4]
10008dfa:	4599      	cmp	r9, r3
10008dfc:	eb02 0103 	add.w	r1, r2, r3
10008e00:	dcee      	bgt.n	10008de0 <__ssvfscanf_r+0x10b0>
10008e02:	eba3 0309 	sub.w	r3, r3, r9
10008e06:	444a      	add	r2, r9
10008e08:	444d      	add	r5, r9
10008e0a:	6063      	str	r3, [r4, #4]
10008e0c:	6022      	str	r2, [r4, #0]
10008e0e:	44aa      	add	sl, r5
10008e10:	f7ff b85f 	b.w	10007ed2 <__ssvfscanf_r+0x1a2>
10008e14:	2300      	movs	r3, #0
10008e16:	4698      	mov	r8, r3
10008e18:	627b      	str	r3, [r7, #36]	@ 0x24
10008e1a:	613b      	str	r3, [r7, #16]
10008e1c:	e9c7 3305 	strd	r3, r3, [r7, #20]
10008e20:	f7ff b96e 	b.w	10008100 <__ssvfscanf_r+0x3d0>
10008e24:	6821      	ldr	r1, [r4, #0]
10008e26:	f107 0060 	add.w	r0, r7, #96	@ 0x60
10008e2a:	780b      	ldrb	r3, [r1, #0]
10008e2c:	5cc3      	ldrb	r3, [r0, r3]
10008e2e:	2b00      	cmp	r3, #0
10008e30:	f43f a81b 	beq.w	10007e6a <__ssvfscanf_r+0x13a>
10008e34:	4690      	mov	r8, r2
10008e36:	4608      	mov	r0, r1
10008e38:	6c7d      	ldr	r5, [r7, #68]	@ 0x44
10008e3a:	e006      	b.n	10008e4a <__ssvfscanf_r+0x111a>
10008e3c:	7803      	ldrb	r3, [r0, #0]
10008e3e:	f107 0260 	add.w	r2, r7, #96	@ 0x60
10008e42:	5cd3      	ldrb	r3, [r2, r3]
10008e44:	2b00      	cmp	r3, #0
10008e46:	f43f adf5 	beq.w	10008a34 <__ssvfscanf_r+0xd04>
10008e4a:	6863      	ldr	r3, [r4, #4]
10008e4c:	3601      	adds	r6, #1
10008e4e:	3001      	adds	r0, #1
10008e50:	3b01      	subs	r3, #1
10008e52:	4546      	cmp	r6, r8
10008e54:	e9c4 0300 	strd	r0, r3, [r4]
10008e58:	f43f adec 	beq.w	10008a34 <__ssvfscanf_r+0xd04>
10008e5c:	2b00      	cmp	r3, #0
10008e5e:	dced      	bgt.n	10008e3c <__ssvfscanf_r+0x110c>
10008e60:	4621      	mov	r1, r4
10008e62:	4628      	mov	r0, r5
10008e64:	f7fe fef6 	bl	10007c54 <__ssrefill_r>
10008e68:	2800      	cmp	r0, #0
10008e6a:	f47f ade3 	bne.w	10008a34 <__ssvfscanf_r+0xd04>
10008e6e:	6820      	ldr	r0, [r4, #0]
10008e70:	e7e4      	b.n	10008e3c <__ssvfscanf_r+0x110c>
10008e72:	2300      	movs	r3, #0
10008e74:	f107 014c 	add.w	r1, r7, #76	@ 0x4c
10008e78:	613b      	str	r3, [r7, #16]
10008e7a:	4688      	mov	r8, r1
10008e7c:	60fb      	str	r3, [r7, #12]
10008e7e:	e9c7 3305 	strd	r3, r3, [r7, #20]
10008e82:	f7ff b9f2 	b.w	1000826a <__ssvfscanf_r+0x53a>
10008e86:	2e02      	cmp	r6, #2
10008e88:	f240 8134 	bls.w	100090f4 <__ssvfscanf_r+0x13c4>
10008e8c:	2300      	movs	r3, #0
10008e8e:	2e03      	cmp	r6, #3
10008e90:	62bb      	str	r3, [r7, #40]	@ 0x28
10008e92:	f43f acdf 	beq.w	10008854 <__ssvfscanf_r+0xb24>
10008e96:	1f33      	subs	r3, r6, #4
10008e98:	63fd      	str	r5, [r7, #60]	@ 0x3c
10008e9a:	464d      	mov	r5, r9
10008e9c:	b2db      	uxtb	r3, r3
10008e9e:	43de      	mvns	r6, r3
10008ea0:	4698      	mov	r8, r3
10008ea2:	444e      	add	r6, r9
10008ea4:	f815 1d01 	ldrb.w	r1, [r5, #-1]!
10008ea8:	4622      	mov	r2, r4
10008eaa:	6c78      	ldr	r0, [r7, #68]	@ 0x44
10008eac:	f7fe fe94 	bl	10007bd8 <_sungetc_r>
10008eb0:	42b5      	cmp	r5, r6
10008eb2:	d1f7      	bne.n	10008ea4 <__ssvfscanf_r+0x1174>
10008eb4:	f10a 3aff 	add.w	sl, sl, #4294967295	@ 0xffffffff
10008eb8:	f109 39ff 	add.w	r9, r9, #4294967295	@ 0xffffffff
10008ebc:	6bfd      	ldr	r5, [r7, #60]	@ 0x3c
10008ebe:	ebaa 0a08 	sub.w	sl, sl, r8
10008ec2:	eba9 0908 	sub.w	r9, r9, r8
10008ec6:	e4c5      	b.n	10008854 <__ssvfscanf_r+0xb24>
10008ec8:	f1b8 0f02 	cmp.w	r8, #2
10008ecc:	f240 8112 	bls.w	100090f4 <__ssvfscanf_r+0x13c4>
10008ed0:	f1b8 0f03 	cmp.w	r8, #3
10008ed4:	f43f ac5b 	beq.w	1000878e <__ssvfscanf_r+0xa5e>
10008ed8:	4646      	mov	r6, r8
10008eda:	e7dc      	b.n	10008e96 <__ssvfscanf_r+0x1166>
10008edc:	f899 1002 	ldrb.w	r1, [r9, #2]
10008ee0:	f045 0508 	orr.w	r5, r5, #8
10008ee4:	f109 0902 	add.w	r9, r9, #2
10008ee8:	f7fe bf57 	b.w	10007d9a <__ssvfscanf_r+0x6a>
10008eec:	f899 1002 	ldrb.w	r1, [r9, #2]
10008ef0:	f045 0502 	orr.w	r5, r5, #2
10008ef4:	f109 0902 	add.w	r9, r9, #2
10008ef8:	f7fe bf4f 	b.w	10007d9a <__ssvfscanf_r+0x6a>
10008efc:	f045 0540 	orr.w	r5, r5, #64	@ 0x40
10008f00:	f7ff b8d2 	b.w	100080a8 <__ssvfscanf_r+0x378>
10008f04:	b082      	sub	sp, #8
10008f06:	e9cd 3302 	strd	r3, r3, [sp, #8]
10008f0a:	ab02      	add	r3, sp, #8
10008f0c:	637b      	str	r3, [r7, #52]	@ 0x34
10008f0e:	f7ff ba81 	b.w	10008414 <__ssvfscanf_r+0x6e4>
10008f12:	4621      	mov	r1, r4
10008f14:	6c78      	ldr	r0, [r7, #68]	@ 0x44
10008f16:	63fa      	str	r2, [r7, #60]	@ 0x3c
10008f18:	f7fe fe9c 	bl	10007c54 <__ssrefill_r>
10008f1c:	6bfa      	ldr	r2, [r7, #60]	@ 0x3c
10008f1e:	2800      	cmp	r0, #0
10008f20:	f43f aa6b 	beq.w	100083fa <__ssvfscanf_r+0x6ca>
10008f24:	f7fe bfdf 	b.w	10007ee6 <__ssvfscanf_r+0x1b6>
10008f28:	4621      	mov	r1, r4
10008f2a:	6c78      	ldr	r0, [r7, #68]	@ 0x44
10008f2c:	63fa      	str	r2, [r7, #60]	@ 0x3c
10008f2e:	f7fe fe91 	bl	10007c54 <__ssrefill_r>
10008f32:	2800      	cmp	r0, #0
10008f34:	f47e afd7 	bne.w	10007ee6 <__ssvfscanf_r+0x1b6>
10008f38:	4bb7      	ldr	r3, [pc, #732]	@ (10009218 <__ssvfscanf_r+0x14e8>)
10008f3a:	f04f 0803 	mov.w	r8, #3
10008f3e:	6bfa      	ldr	r2, [r7, #60]	@ 0x3c
10008f40:	623b      	str	r3, [r7, #32]
10008f42:	230a      	movs	r3, #10
10008f44:	633b      	str	r3, [r7, #48]	@ 0x30
10008f46:	f7ff b80d 	b.w	10007f64 <__ssvfscanf_r+0x234>
10008f4a:	4621      	mov	r1, r4
10008f4c:	6c78      	ldr	r0, [r7, #68]	@ 0x44
10008f4e:	63fa      	str	r2, [r7, #60]	@ 0x3c
10008f50:	f7fe fe80 	bl	10007c54 <__ssrefill_r>
10008f54:	2800      	cmp	r0, #0
10008f56:	f47e afc6 	bne.w	10007ee6 <__ssvfscanf_r+0x1b6>
10008f5a:	4bb0      	ldr	r3, [pc, #704]	@ (1000921c <__ssvfscanf_r+0x14ec>)
10008f5c:	f04f 0803 	mov.w	r8, #3
10008f60:	6bfa      	ldr	r2, [r7, #60]	@ 0x3c
10008f62:	623b      	str	r3, [r7, #32]
10008f64:	2308      	movs	r3, #8
10008f66:	633b      	str	r3, [r7, #48]	@ 0x30
10008f68:	f7fe bffc 	b.w	10007f64 <__ssvfscanf_r+0x234>
10008f6c:	4621      	mov	r1, r4
10008f6e:	6c78      	ldr	r0, [r7, #68]	@ 0x44
10008f70:	63fa      	str	r2, [r7, #60]	@ 0x3c
10008f72:	f7fe fe6f 	bl	10007c54 <__ssrefill_r>
10008f76:	6bfa      	ldr	r2, [r7, #60]	@ 0x3c
10008f78:	2800      	cmp	r0, #0
10008f7a:	f43f a93f 	beq.w	100081fc <__ssvfscanf_r+0x4cc>
10008f7e:	f7fe bfb2 	b.w	10007ee6 <__ssvfscanf_r+0x1b6>
10008f82:	6abb      	ldr	r3, [r7, #40]	@ 0x28
10008f84:	f8d7 8010 	ldr.w	r8, [r7, #16]
10008f88:	627b      	str	r3, [r7, #36]	@ 0x24
10008f8a:	613b      	str	r3, [r7, #16]
10008f8c:	e9c7 3305 	strd	r3, r3, [r7, #20]
10008f90:	f7ff b8b6 	b.w	10008100 <__ssvfscanf_r+0x3d0>
10008f94:	4621      	mov	r1, r4
10008f96:	6c78      	ldr	r0, [r7, #68]	@ 0x44
10008f98:	63fa      	str	r2, [r7, #60]	@ 0x3c
10008f9a:	f7fe fe5b 	bl	10007c54 <__ssrefill_r>
10008f9e:	2800      	cmp	r0, #0
10008fa0:	f47e afa1 	bne.w	10007ee6 <__ssvfscanf_r+0x1b6>
10008fa4:	6bfa      	ldr	r2, [r7, #60]	@ 0x3c
10008fa6:	f7ff b87b 	b.w	100080a0 <__ssvfscanf_r+0x370>
10008faa:	4621      	mov	r1, r4
10008fac:	6c78      	ldr	r0, [r7, #68]	@ 0x44
10008fae:	63fa      	str	r2, [r7, #60]	@ 0x3c
10008fb0:	f7fe fe50 	bl	10007c54 <__ssrefill_r>
10008fb4:	6bfa      	ldr	r2, [r7, #60]	@ 0x3c
10008fb6:	2800      	cmp	r0, #0
10008fb8:	f43f aa45 	beq.w	10008446 <__ssvfscanf_r+0x716>
10008fbc:	f7fe bf93 	b.w	10007ee6 <__ssvfscanf_r+0x1b6>
10008fc0:	6a7b      	ldr	r3, [r7, #36]	@ 0x24
10008fc2:	f8d7 800c 	ldr.w	r8, [r7, #12]
10008fc6:	613b      	str	r3, [r7, #16]
10008fc8:	60fb      	str	r3, [r7, #12]
10008fca:	e9c7 3305 	strd	r3, r3, [r7, #20]
10008fce:	f7ff b94c 	b.w	1000826a <__ssvfscanf_r+0x53a>
10008fd2:	f8d7 9028 	ldr.w	r9, [r7, #40]	@ 0x28
10008fd6:	46a8      	mov	r8, r5
10008fd8:	62bd      	str	r5, [r7, #40]	@ 0x28
10008fda:	e56d      	b.n	10008ab8 <__ssvfscanf_r+0xd88>
10008fdc:	f8d7 a028 	ldr.w	sl, [r7, #40]	@ 0x28
10008fe0:	61fd      	str	r5, [r7, #28]
10008fe2:	f1b9 0f00 	cmp.w	r9, #0
10008fe6:	f43f ae8c 	beq.w	10008d02 <__ssvfscanf_r+0xfd2>
10008fea:	f507 73b0 	add.w	r3, r7, #352	@ 0x160
10008fee:	464e      	mov	r6, r9
10008ff0:	eb03 0509 	add.w	r5, r3, r9
10008ff4:	f8d7 9044 	ldr.w	r9, [r7, #68]	@ 0x44
10008ff8:	3e01      	subs	r6, #1
10008ffa:	4622      	mov	r2, r4
10008ffc:	f815 1d01 	ldrb.w	r1, [r5, #-1]!
10009000:	4648      	mov	r0, r9
10009002:	f7fe fde9 	bl	10007bd8 <_sungetc_r>
10009006:	2e00      	cmp	r6, #0
10009008:	d1f6      	bne.n	10008ff8 <__ssvfscanf_r+0x12c8>
1000900a:	e67a      	b.n	10008d02 <__ssvfscanf_r+0xfd2>
1000900c:	076a      	lsls	r2, r5, #29
1000900e:	d53a      	bpl.n	10009086 <__ssvfscanf_r+0x1356>
10009010:	f8a3 a000 	strh.w	sl, [r3]
10009014:	f7fe bf5d 	b.w	10007ed2 <__ssvfscanf_r+0x1a2>
10009018:	f64f 73f6 	movw	r3, #65526	@ 0xfff6
1000901c:	429a      	cmp	r2, r3
1000901e:	f63e af69 	bhi.w	10007ef4 <__ssvfscanf_r+0x1c4>
10009022:	f102 0308 	add.w	r3, r2, #8
10009026:	6b7a      	ldr	r2, [r7, #52]	@ 0x34
10009028:	0099      	lsls	r1, r3, #2
1000902a:	6810      	ldr	r0, [r2, #0]
1000902c:	63fb      	str	r3, [r7, #60]	@ 0x3c
1000902e:	f7f9 fc51 	bl	100028d4 <__wrap_realloc>
10009032:	2800      	cmp	r0, #0
10009034:	f43e af5e 	beq.w	10007ef4 <__ssvfscanf_r+0x1c4>
10009038:	6b7a      	ldr	r2, [r7, #52]	@ 0x34
1000903a:	6bfb      	ldr	r3, [r7, #60]	@ 0x3c
1000903c:	6010      	str	r0, [r2, #0]
1000903e:	8093      	strh	r3, [r2, #4]
10009040:	f7ff ba26 	b.w	10008490 <__ssvfscanf_r+0x760>
10009044:	63bb      	str	r3, [r7, #56]	@ 0x38
10009046:	f7fe bf1a 	b.w	10007e7e <__ssvfscanf_r+0x14e>
1000904a:	2d00      	cmp	r5, #0
1000904c:	f43e af4b 	beq.w	10007ee6 <__ssvfscanf_r+0x1b6>
10009050:	44aa      	add	sl, r5
10009052:	f7fe bf3e 	b.w	10007ed2 <__ssvfscanf_r+0x1a2>
10009056:	6bfb      	ldr	r3, [r7, #60]	@ 0x3c
10009058:	f013 0201 	ands.w	r2, r3, #1
1000905c:	f47f acdf 	bne.w	10008a1e <__ssvfscanf_r+0xcee>
10009060:	6bfb      	ldr	r3, [r7, #60]	@ 0x3c
10009062:	079b      	lsls	r3, r3, #30
10009064:	f57f acdb 	bpl.w	10008a1e <__ssvfscanf_r+0xcee>
10009068:	4b6c      	ldr	r3, [pc, #432]	@ (1000921c <__ssvfscanf_r+0x14ec>)
1000906a:	6a39      	ldr	r1, [r7, #32]
1000906c:	6c78      	ldr	r0, [r7, #68]	@ 0x44
1000906e:	4299      	cmp	r1, r3
10009070:	6b3b      	ldr	r3, [r7, #48]	@ 0x30
10009072:	69b9      	ldr	r1, [r7, #24]
10009074:	d05d      	beq.n	10009132 <__ssvfscanf_r+0x1402>
10009076:	f001 fdbb 	bl	1000abf0 <_strtoll_r>
1000907a:	460b      	mov	r3, r1
1000907c:	6afa      	ldr	r2, [r7, #44]	@ 0x2c
1000907e:	6811      	ldr	r1, [r2, #0]
10009080:	e9c1 0300 	strd	r0, r3, [r1]
10009084:	e4ce      	b.n	10008a24 <__ssvfscanf_r+0xcf4>
10009086:	07ee      	lsls	r6, r5, #31
10009088:	d408      	bmi.n	1000909c <__ssvfscanf_r+0x136c>
1000908a:	07ad      	lsls	r5, r5, #30
1000908c:	d506      	bpl.n	1000909c <__ssvfscanf_r+0x136c>
1000908e:	ea4f 72ea 	mov.w	r2, sl, asr #31
10009092:	f8c3 a000 	str.w	sl, [r3]
10009096:	605a      	str	r2, [r3, #4]
10009098:	f7fe bf1b 	b.w	10007ed2 <__ssvfscanf_r+0x1a2>
1000909c:	f8c3 a000 	str.w	sl, [r3]
100090a0:	f7fe bf17 	b.w	10007ed2 <__ssvfscanf_r+0x1a2>
100090a4:	6bfb      	ldr	r3, [r7, #60]	@ 0x3c
100090a6:	460c      	mov	r4, r1
100090a8:	4646      	mov	r6, r8
100090aa:	f7ff bbc9 	b.w	10008840 <__ssvfscanf_r+0xb10>
100090ae:	62bb      	str	r3, [r7, #40]	@ 0x28
100090b0:	4623      	mov	r3, r4
100090b2:	460c      	mov	r4, r1
100090b4:	f7ff bb5c 	b.w	10008770 <__ssvfscanf_r+0xa40>
100090b8:	69bb      	ldr	r3, [r7, #24]
100090ba:	4599      	cmp	r9, r3
100090bc:	f67e aed5 	bls.w	10007e6a <__ssvfscanf_r+0x13a>
100090c0:	6c7d      	ldr	r5, [r7, #68]	@ 0x44
100090c2:	69be      	ldr	r6, [r7, #24]
100090c4:	f819 1d01 	ldrb.w	r1, [r9, #-1]!
100090c8:	4622      	mov	r2, r4
100090ca:	4628      	mov	r0, r5
100090cc:	f7fe fd84 	bl	10007bd8 <_sungetc_r>
100090d0:	45b1      	cmp	r9, r6
100090d2:	d1f7      	bne.n	100090c4 <__ssvfscanf_r+0x1394>
100090d4:	f7fe bec9 	b.w	10007e6a <__ssvfscanf_r+0x13a>
100090d8:	69bd      	ldr	r5, [r7, #24]
100090da:	45a9      	cmp	r9, r5
100090dc:	f67e aec5 	bls.w	10007e6a <__ssvfscanf_r+0x13a>
100090e0:	f819 1d01 	ldrb.w	r1, [r9, #-1]!
100090e4:	4622      	mov	r2, r4
100090e6:	6c78      	ldr	r0, [r7, #68]	@ 0x44
100090e8:	f7fe fd76 	bl	10007bd8 <_sungetc_r>
100090ec:	45a9      	cmp	r9, r5
100090ee:	d1f7      	bne.n	100090e0 <__ssvfscanf_r+0x13b0>
100090f0:	f7fe bebb 	b.w	10007e6a <__ssvfscanf_r+0x13a>
100090f4:	69bb      	ldr	r3, [r7, #24]
100090f6:	4599      	cmp	r9, r3
100090f8:	f67e aeb7 	bls.w	10007e6a <__ssvfscanf_r+0x13a>
100090fc:	f819 1d01 	ldrb.w	r1, [r9, #-1]!
10009100:	4622      	mov	r2, r4
10009102:	6c78      	ldr	r0, [r7, #68]	@ 0x44
10009104:	f7fe fd68 	bl	10007bd8 <_sungetc_r>
10009108:	69bb      	ldr	r3, [r7, #24]
1000910a:	4599      	cmp	r9, r3
1000910c:	d1f6      	bne.n	100090fc <__ssvfscanf_r+0x13cc>
1000910e:	f7fe beac 	b.w	10007e6a <__ssvfscanf_r+0x13a>
10009112:	4843      	ldr	r0, [pc, #268]	@ (10009220 <__ssvfscanf_r+0x14f0>)
10009114:	f000 faa6 	bl	10009664 <nanf>
10009118:	6030      	str	r0, [r6, #0]
1000911a:	f7ff bb6a 	b.w	100087f2 <__ssvfscanf_r+0xac2>
1000911e:	6bbb      	ldr	r3, [r7, #56]	@ 0x38
10009120:	2b00      	cmp	r3, #0
10009122:	f43e aee7 	beq.w	10007ef4 <__ssvfscanf_r+0x1c4>
10009126:	89a3      	ldrh	r3, [r4, #12]
10009128:	065b      	lsls	r3, r3, #25
1000912a:	f57e aea0 	bpl.w	10007e6e <__ssvfscanf_r+0x13e>
1000912e:	f7fe bee1 	b.w	10007ef4 <__ssvfscanf_r+0x1c4>
10009132:	f001 fe23 	bl	1000ad7c <_strtoull_r>
10009136:	460b      	mov	r3, r1
10009138:	e7a0      	b.n	1000907c <__ssvfscanf_r+0x134c>
1000913a:	4646      	mov	r6, r8
1000913c:	f7ff bb81 	b.w	10008842 <__ssvfscanf_r+0xb12>
10009140:	2a00      	cmp	r2, #0
10009142:	f005 0310 	and.w	r3, r5, #16
10009146:	bf08      	it	eq
10009148:	f04f 32ff 	moveq.w	r2, #4294967295	@ 0xffffffff
1000914c:	f015 0601 	ands.w	r6, r5, #1
10009150:	627b      	str	r3, [r7, #36]	@ 0x24
10009152:	d067      	beq.n	10009224 <__ssvfscanf_r+0x14f4>
10009154:	2b00      	cmp	r3, #0
10009156:	f040 80f3 	bne.w	10009340 <__ssvfscanf_r+0x1610>
1000915a:	6afb      	ldr	r3, [r7, #44]	@ 0x2c
1000915c:	0629      	lsls	r1, r5, #24
1000915e:	f853 8b04 	ldr.w	r8, [r3], #4
10009162:	62fb      	str	r3, [r7, #44]	@ 0x2c
10009164:	f140 80f3 	bpl.w	1000934e <__ssvfscanf_r+0x161e>
10009168:	63fa      	str	r2, [r7, #60]	@ 0x3c
1000916a:	f1b8 0f00 	cmp.w	r8, #0
1000916e:	f43e ae7c 	beq.w	10007e6a <__ssvfscanf_r+0x13a>
10009172:	2080      	movs	r0, #128	@ 0x80
10009174:	f7f9 fb9c 	bl	100028b0 <__wrap_malloc>
10009178:	6bfa      	ldr	r2, [r7, #60]	@ 0x3c
1000917a:	4606      	mov	r6, r0
1000917c:	2800      	cmp	r0, #0
1000917e:	f43e aeb7 	beq.w	10007ef0 <__ssvfscanf_r+0x1c0>
10009182:	6b7b      	ldr	r3, [r7, #52]	@ 0x34
10009184:	f8c8 0000 	str.w	r0, [r8]
10009188:	f8b3 9006 	ldrh.w	r9, [r3, #6]
1000918c:	889d      	ldrh	r5, [r3, #4]
1000918e:	45a9      	cmp	r9, r5
10009190:	f0c0 819e 	bcc.w	100094d0 <__ssvfscanf_r+0x17a0>
10009194:	f64f 73f6 	movw	r3, #65526	@ 0xfff6
10009198:	63fa      	str	r2, [r7, #60]	@ 0x3c
1000919a:	429d      	cmp	r5, r3
1000919c:	f63e aea8 	bhi.w	10007ef0 <__ssvfscanf_r+0x1c0>
100091a0:	3508      	adds	r5, #8
100091a2:	6b7b      	ldr	r3, [r7, #52]	@ 0x34
100091a4:	00a9      	lsls	r1, r5, #2
100091a6:	6818      	ldr	r0, [r3, #0]
100091a8:	f7f9 fb94 	bl	100028d4 <__wrap_realloc>
100091ac:	2800      	cmp	r0, #0
100091ae:	f43e ae9f 	beq.w	10007ef0 <__ssvfscanf_r+0x1c0>
100091b2:	6b7b      	ldr	r3, [r7, #52]	@ 0x34
100091b4:	6bfa      	ldr	r2, [r7, #60]	@ 0x3c
100091b6:	809d      	strh	r5, [r3, #4]
100091b8:	6018      	str	r0, [r3, #0]
100091ba:	6b7b      	ldr	r3, [r7, #52]	@ 0x34
100091bc:	f04f 0c20 	mov.w	ip, #32
100091c0:	f840 8029 	str.w	r8, [r0, r9, lsl #2]
100091c4:	f109 0901 	add.w	r9, r9, #1
100091c8:	f8a3 9006 	strh.w	r9, [r3, #6]
100091cc:	46b1      	mov	r9, r6
100091ce:	6823      	ldr	r3, [r4, #0]
100091d0:	781b      	ldrb	r3, [r3, #0]
100091d2:	f81b 3003 	ldrb.w	r3, [fp, r3]
100091d6:	f013 0308 	ands.w	r3, r3, #8
100091da:	f000 80f2 	beq.w	100093c2 <__ssvfscanf_r+0x1692>
100091de:	6a7b      	ldr	r3, [r7, #36]	@ 0x24
100091e0:	2b00      	cmp	r3, #0
100091e2:	f47e ae76 	bne.w	10007ed2 <__ssvfscanf_r+0x1a2>
100091e6:	eba6 0109 	sub.w	r1, r6, r9
100091ea:	6033      	str	r3, [r6, #0]
100091ec:	108b      	asrs	r3, r1, #2
100091ee:	3301      	adds	r3, #1
100091f0:	459c      	cmp	ip, r3
100091f2:	f67f aafe 	bls.w	100087f2 <__ssvfscanf_r+0xac2>
100091f6:	f1b8 0f00 	cmp.w	r8, #0
100091fa:	f43f aafa 	beq.w	100087f2 <__ssvfscanf_r+0xac2>
100091fe:	3104      	adds	r1, #4
10009200:	f8d8 0000 	ldr.w	r0, [r8]
10009204:	f7f9 fb66 	bl	100028d4 <__wrap_realloc>
10009208:	2800      	cmp	r0, #0
1000920a:	f43f aaf2 	beq.w	100087f2 <__ssvfscanf_r+0xac2>
1000920e:	f8c8 0000 	str.w	r0, [r8]
10009212:	f7ff baee 	b.w	100087f2 <__ssvfscanf_r+0xac2>
10009216:	bf00      	nop
10009218:	1000a901 	.word	0x1000a901
1000921c:	10007329 	.word	0x10007329
10009220:	1000c438 	.word	0x1000c438
10009224:	6a7b      	ldr	r3, [r7, #36]	@ 0x24
10009226:	2b00      	cmp	r3, #0
10009228:	f040 8097 	bne.w	1000935a <__ssvfscanf_r+0x162a>
1000922c:	6afb      	ldr	r3, [r7, #44]	@ 0x2c
1000922e:	f015 0580 	ands.w	r5, r5, #128	@ 0x80
10009232:	f853 8b04 	ldr.w	r8, [r3], #4
10009236:	62fb      	str	r3, [r7, #44]	@ 0x2c
10009238:	f000 80ac 	beq.w	10009394 <__ssvfscanf_r+0x1664>
1000923c:	63fa      	str	r2, [r7, #60]	@ 0x3c
1000923e:	f1b8 0f00 	cmp.w	r8, #0
10009242:	f43e ae12 	beq.w	10007e6a <__ssvfscanf_r+0x13a>
10009246:	2020      	movs	r0, #32
10009248:	f7f9 fb32 	bl	100028b0 <__wrap_malloc>
1000924c:	4606      	mov	r6, r0
1000924e:	2800      	cmp	r0, #0
10009250:	f43e ae4e 	beq.w	10007ef0 <__ssvfscanf_r+0x1c0>
10009254:	6b7b      	ldr	r3, [r7, #52]	@ 0x34
10009256:	6bfa      	ldr	r2, [r7, #60]	@ 0x3c
10009258:	f8b3 9006 	ldrh.w	r9, [r3, #6]
1000925c:	889d      	ldrh	r5, [r3, #4]
1000925e:	f8c8 0000 	str.w	r0, [r8]
10009262:	45a9      	cmp	r9, r5
10009264:	f0c0 809d 	bcc.w	100093a2 <__ssvfscanf_r+0x1672>
10009268:	f64f 73f6 	movw	r3, #65526	@ 0xfff6
1000926c:	63fa      	str	r2, [r7, #60]	@ 0x3c
1000926e:	429d      	cmp	r5, r3
10009270:	f63e ae40 	bhi.w	10007ef4 <__ssvfscanf_r+0x1c4>
10009274:	3508      	adds	r5, #8
10009276:	6b7b      	ldr	r3, [r7, #52]	@ 0x34
10009278:	00a9      	lsls	r1, r5, #2
1000927a:	6818      	ldr	r0, [r3, #0]
1000927c:	f7f9 fb2a 	bl	100028d4 <__wrap_realloc>
10009280:	2800      	cmp	r0, #0
10009282:	f43e ae37 	beq.w	10007ef4 <__ssvfscanf_r+0x1c4>
10009286:	6b7b      	ldr	r3, [r7, #52]	@ 0x34
10009288:	6bfa      	ldr	r2, [r7, #60]	@ 0x3c
1000928a:	809d      	strh	r5, [r3, #4]
1000928c:	6018      	str	r0, [r3, #0]
1000928e:	6b7b      	ldr	r3, [r7, #52]	@ 0x34
10009290:	f04f 0c01 	mov.w	ip, #1
10009294:	f840 8029 	str.w	r8, [r0, r9, lsl #2]
10009298:	f109 0901 	add.w	r9, r9, #1
1000929c:	f8a3 9006 	strh.w	r9, [r3, #6]
100092a0:	f04f 0920 	mov.w	r9, #32
100092a4:	6820      	ldr	r0, [r4, #0]
100092a6:	7803      	ldrb	r3, [r0, #0]
100092a8:	f81b 3003 	ldrb.w	r3, [fp, r3]
100092ac:	0719      	lsls	r1, r3, #28
100092ae:	d476      	bmi.n	1000939e <__ssvfscanf_r+0x166e>
100092b0:	4633      	mov	r3, r6
100092b2:	4631      	mov	r1, r6
100092b4:	f8c7 a028 	str.w	sl, [r7, #40]	@ 0x28
100092b8:	4616      	mov	r6, r2
100092ba:	46a2      	mov	sl, r4
100092bc:	461c      	mov	r4, r3
100092be:	f8c7 c03c 	str.w	ip, [r7, #60]	@ 0x3c
100092c2:	f8da 3004 	ldr.w	r3, [sl, #4]
100092c6:	460d      	mov	r5, r1
100092c8:	3b01      	subs	r3, #1
100092ca:	f8ca 3004 	str.w	r3, [sl, #4]
100092ce:	1c43      	adds	r3, r0, #1
100092d0:	f8ca 3000 	str.w	r3, [sl]
100092d4:	7803      	ldrb	r3, [r0, #0]
100092d6:	f805 3b01 	strb.w	r3, [r5], #1
100092da:	1b2b      	subs	r3, r5, r4
100092dc:	454b      	cmp	r3, r9
100092de:	627b      	str	r3, [r7, #36]	@ 0x24
100092e0:	d303      	bcc.n	100092ea <__ssvfscanf_r+0x15ba>
100092e2:	6bfb      	ldr	r3, [r7, #60]	@ 0x3c
100092e4:	4620      	mov	r0, r4
100092e6:	2b00      	cmp	r3, #0
100092e8:	d15d      	bne.n	100093a6 <__ssvfscanf_r+0x1676>
100092ea:	3e01      	subs	r6, #1
100092ec:	d00c      	beq.n	10009308 <__ssvfscanf_r+0x15d8>
100092ee:	f8da 3004 	ldr.w	r3, [sl, #4]
100092f2:	2b00      	cmp	r3, #0
100092f4:	f340 80c5 	ble.w	10009482 <__ssvfscanf_r+0x1752>
100092f8:	f8da 0000 	ldr.w	r0, [sl]
100092fc:	4629      	mov	r1, r5
100092fe:	7803      	ldrb	r3, [r0, #0]
10009300:	f81b 3003 	ldrb.w	r3, [fp, r3]
10009304:	071b      	lsls	r3, r3, #28
10009306:	d5dc      	bpl.n	100092c2 <__ssvfscanf_r+0x1592>
10009308:	4623      	mov	r3, r4
1000930a:	4654      	mov	r4, sl
1000930c:	f8d7 a028 	ldr.w	sl, [r7, #40]	@ 0x28
10009310:	462e      	mov	r6, r5
10009312:	1aeb      	subs	r3, r5, r3
10009314:	f8d7 c03c 	ldr.w	ip, [r7, #60]	@ 0x3c
10009318:	449a      	add	sl, r3
1000931a:	1c59      	adds	r1, r3, #1
1000931c:	2300      	movs	r3, #0
1000931e:	4589      	cmp	r9, r1
10009320:	7033      	strb	r3, [r6, #0]
10009322:	f67f aa66 	bls.w	100087f2 <__ssvfscanf_r+0xac2>
10009326:	f1bc 0f00 	cmp.w	ip, #0
1000932a:	f43f aa62 	beq.w	100087f2 <__ssvfscanf_r+0xac2>
1000932e:	f8d8 0000 	ldr.w	r0, [r8]
10009332:	f7f9 facf 	bl	100028d4 <__wrap_realloc>
10009336:	2800      	cmp	r0, #0
10009338:	f47f af69 	bne.w	1000920e <__ssvfscanf_r+0x14de>
1000933c:	f7ff ba59 	b.w	100087f2 <__ssvfscanf_r+0xac2>
10009340:	f04f 0c00 	mov.w	ip, #0
10009344:	f107 064c 	add.w	r6, r7, #76	@ 0x4c
10009348:	46e1      	mov	r9, ip
1000934a:	46e0      	mov	r8, ip
1000934c:	e73f      	b.n	100091ce <__ssvfscanf_r+0x149e>
1000934e:	4646      	mov	r6, r8
10009350:	f8d7 8024 	ldr.w	r8, [r7, #36]	@ 0x24
10009354:	46c4      	mov	ip, r8
10009356:	46c1      	mov	r9, r8
10009358:	e739      	b.n	100091ce <__ssvfscanf_r+0x149e>
1000935a:	6823      	ldr	r3, [r4, #0]
1000935c:	7819      	ldrb	r1, [r3, #0]
1000935e:	f81b 1001 	ldrb.w	r1, [fp, r1]
10009362:	070d      	lsls	r5, r1, #28
10009364:	d412      	bmi.n	1000938c <__ssvfscanf_r+0x165c>
10009366:	4615      	mov	r5, r2
10009368:	4690      	mov	r8, r2
1000936a:	6861      	ldr	r1, [r4, #4]
1000936c:	3601      	adds	r6, #1
1000936e:	3301      	adds	r3, #1
10009370:	3901      	subs	r1, #1
10009372:	4546      	cmp	r6, r8
10009374:	e9c4 3100 	strd	r3, r1, [r4]
10009378:	f43f ad49 	beq.w	10008e0e <__ssvfscanf_r+0x10de>
1000937c:	2900      	cmp	r1, #0
1000937e:	f340 80a9 	ble.w	100094d4 <__ssvfscanf_r+0x17a4>
10009382:	781a      	ldrb	r2, [r3, #0]
10009384:	f81b 2002 	ldrb.w	r2, [fp, r2]
10009388:	0710      	lsls	r0, r2, #28
1000938a:	d5ee      	bpl.n	1000936a <__ssvfscanf_r+0x163a>
1000938c:	4635      	mov	r5, r6
1000938e:	44aa      	add	sl, r5
10009390:	f7fe bd9f 	b.w	10007ed2 <__ssvfscanf_r+0x1a2>
10009394:	4646      	mov	r6, r8
10009396:	46ac      	mov	ip, r5
10009398:	46a9      	mov	r9, r5
1000939a:	46a8      	mov	r8, r5
1000939c:	e782      	b.n	100092a4 <__ssvfscanf_r+0x1574>
1000939e:	2101      	movs	r1, #1
100093a0:	e7bc      	b.n	1000931c <__ssvfscanf_r+0x15ec>
100093a2:	6818      	ldr	r0, [r3, #0]
100093a4:	e773      	b.n	1000928e <__ssvfscanf_r+0x155e>
100093a6:	ea4f 0949 	mov.w	r9, r9, lsl #1
100093aa:	4649      	mov	r1, r9
100093ac:	f7f9 fa92 	bl	100028d4 <__wrap_realloc>
100093b0:	4604      	mov	r4, r0
100093b2:	2800      	cmp	r0, #0
100093b4:	f43e ad9c 	beq.w	10007ef0 <__ssvfscanf_r+0x1c0>
100093b8:	6a7b      	ldr	r3, [r7, #36]	@ 0x24
100093ba:	f8c8 0000 	str.w	r0, [r8]
100093be:	18c5      	adds	r5, r0, r3
100093c0:	e793      	b.n	100092ea <__ssvfscanf_r+0x15ba>
100093c2:	461d      	mov	r5, r3
100093c4:	f1b8 0300 	subs.w	r3, r8, #0
100093c8:	f8c7 8028 	str.w	r8, [r7, #40]	@ 0x28
100093cc:	46e0      	mov	r8, ip
100093ce:	bf18      	it	ne
100093d0:	2301      	movne	r3, #1
100093d2:	e9c7 3205 	strd	r3, r2, [r7, #20]
100093d6:	f000 f93b 	bl	10009650 <__locale_mb_cur_max>
100093da:	42a8      	cmp	r0, r5
100093dc:	f43e ad83 	beq.w	10007ee6 <__ssvfscanf_r+0x1b6>
100093e0:	e9d4 3200 	ldrd	r3, r2, [r4]
100093e4:	f813 1b01 	ldrb.w	r1, [r3], #1
100093e8:	3a01      	subs	r2, #1
100093ea:	6023      	str	r3, [r4, #0]
100093ec:	1c6b      	adds	r3, r5, #1
100093ee:	6062      	str	r2, [r4, #4]
100093f0:	f507 72b0 	add.w	r2, r7, #352	@ 0x160
100093f4:	63fb      	str	r3, [r7, #60]	@ 0x3c
100093f6:	69fb      	ldr	r3, [r7, #28]
100093f8:	5551      	strb	r1, [r2, r5]
100093fa:	f107 0558 	add.w	r5, r7, #88	@ 0x58
100093fe:	2b03      	cmp	r3, #3
10009400:	d102      	bne.n	10009408 <__ssvfscanf_r+0x16d8>
10009402:	682b      	ldr	r3, [r5, #0]
10009404:	2b04      	cmp	r3, #4
10009406:	d004      	beq.n	10009412 <__ssvfscanf_r+0x16e2>
10009408:	2208      	movs	r2, #8
1000940a:	2100      	movs	r1, #0
1000940c:	4628      	mov	r0, r5
1000940e:	f7fe f85f 	bl	100074d0 <memset>
10009412:	9500      	str	r5, [sp, #0]
10009414:	f507 72b0 	add.w	r2, r7, #352	@ 0x160
10009418:	6bfb      	ldr	r3, [r7, #60]	@ 0x3c
1000941a:	4631      	mov	r1, r6
1000941c:	6c78      	ldr	r0, [r7, #68]	@ 0x44
1000941e:	f001 fcaf 	bl	1000ad80 <_mbrtowc_r>
10009422:	1c42      	adds	r2, r0, #1
10009424:	61f8      	str	r0, [r7, #28]
10009426:	f43e ad5e 	beq.w	10007ee6 <__ssvfscanf_r+0x1b6>
1000942a:	2800      	cmp	r0, #0
1000942c:	d131      	bne.n	10009492 <__ssvfscanf_r+0x1762>
1000942e:	6030      	str	r0, [r6, #0]
10009430:	f001 fcc6 	bl	1000adc0 <iswspace>
10009434:	2800      	cmp	r0, #0
10009436:	d156      	bne.n	100094e6 <__ssvfscanf_r+0x17b6>
10009438:	6bfb      	ldr	r3, [r7, #60]	@ 0x3c
1000943a:	449a      	add	sl, r3
1000943c:	69bb      	ldr	r3, [r7, #24]
1000943e:	3b01      	subs	r3, #1
10009440:	61bb      	str	r3, [r7, #24]
10009442:	6a7b      	ldr	r3, [r7, #36]	@ 0x24
10009444:	b943      	cbnz	r3, 10009458 <__ssvfscanf_r+0x1728>
10009446:	3604      	adds	r6, #4
10009448:	eba6 0509 	sub.w	r5, r6, r9
1000944c:	ebb8 0fa5 	cmp.w	r8, r5, asr #2
10009450:	d802      	bhi.n	10009458 <__ssvfscanf_r+0x1728>
10009452:	697a      	ldr	r2, [r7, #20]
10009454:	2a00      	cmp	r2, #0
10009456:	d161      	bne.n	1000951c <__ssvfscanf_r+0x17ec>
10009458:	2500      	movs	r5, #0
1000945a:	6863      	ldr	r3, [r4, #4]
1000945c:	2b00      	cmp	r3, #0
1000945e:	dd2a      	ble.n	100094b6 <__ssvfscanf_r+0x1786>
10009460:	6823      	ldr	r3, [r4, #0]
10009462:	781b      	ldrb	r3, [r3, #0]
10009464:	f81b 3003 	ldrb.w	r3, [fp, r3]
10009468:	f3c3 03c0 	ubfx	r3, r3, #3, #1
1000946c:	f083 0301 	eor.w	r3, r3, #1
10009470:	07db      	lsls	r3, r3, #31
10009472:	d502      	bpl.n	1000947a <__ssvfscanf_r+0x174a>
10009474:	69bb      	ldr	r3, [r7, #24]
10009476:	2b00      	cmp	r3, #0
10009478:	d1ad      	bne.n	100093d6 <__ssvfscanf_r+0x16a6>
1000947a:	46c4      	mov	ip, r8
1000947c:	f8d7 8028 	ldr.w	r8, [r7, #40]	@ 0x28
10009480:	e6ad      	b.n	100091de <__ssvfscanf_r+0x14ae>
10009482:	4651      	mov	r1, sl
10009484:	6c78      	ldr	r0, [r7, #68]	@ 0x44
10009486:	f7fe fbe5 	bl	10007c54 <__ssrefill_r>
1000948a:	2800      	cmp	r0, #0
1000948c:	f43f af34 	beq.w	100092f8 <__ssvfscanf_r+0x15c8>
10009490:	e73a      	b.n	10009308 <__ssvfscanf_r+0x15d8>
10009492:	69fb      	ldr	r3, [r7, #28]
10009494:	3302      	adds	r3, #2
10009496:	d00c      	beq.n	100094b2 <__ssvfscanf_r+0x1782>
10009498:	6830      	ldr	r0, [r6, #0]
1000949a:	f001 fc91 	bl	1000adc0 <iswspace>
1000949e:	bb10      	cbnz	r0, 100094e6 <__ssvfscanf_r+0x17b6>
100094a0:	6bfb      	ldr	r3, [r7, #60]	@ 0x3c
100094a2:	449a      	add	sl, r3
100094a4:	69fb      	ldr	r3, [r7, #28]
100094a6:	2b03      	cmp	r3, #3
100094a8:	d1c8      	bne.n	1000943c <__ssvfscanf_r+0x170c>
100094aa:	682b      	ldr	r3, [r5, #0]
100094ac:	2b04      	cmp	r3, #4
100094ae:	d1c5      	bne.n	1000943c <__ssvfscanf_r+0x170c>
100094b0:	e7c7      	b.n	10009442 <__ssvfscanf_r+0x1712>
100094b2:	6bfd      	ldr	r5, [r7, #60]	@ 0x3c
100094b4:	e7d1      	b.n	1000945a <__ssvfscanf_r+0x172a>
100094b6:	4621      	mov	r1, r4
100094b8:	6c78      	ldr	r0, [r7, #68]	@ 0x44
100094ba:	f7fe fbcb 	bl	10007c54 <__ssrefill_r>
100094be:	2800      	cmp	r0, #0
100094c0:	d0ce      	beq.n	10009460 <__ssvfscanf_r+0x1730>
100094c2:	46c4      	mov	ip, r8
100094c4:	f8d7 8028 	ldr.w	r8, [r7, #40]	@ 0x28
100094c8:	2d00      	cmp	r5, #0
100094ca:	f47e ad0c 	bne.w	10007ee6 <__ssvfscanf_r+0x1b6>
100094ce:	e686      	b.n	100091de <__ssvfscanf_r+0x14ae>
100094d0:	6818      	ldr	r0, [r3, #0]
100094d2:	e672      	b.n	100091ba <__ssvfscanf_r+0x148a>
100094d4:	4621      	mov	r1, r4
100094d6:	6c78      	ldr	r0, [r7, #68]	@ 0x44
100094d8:	f7fe fbbc 	bl	10007c54 <__ssrefill_r>
100094dc:	2800      	cmp	r0, #0
100094de:	f47f af55 	bne.w	1000938c <__ssvfscanf_r+0x165c>
100094e2:	6823      	ldr	r3, [r4, #0]
100094e4:	e74d      	b.n	10009382 <__ssvfscanf_r+0x1652>
100094e6:	46c4      	mov	ip, r8
100094e8:	6bfa      	ldr	r2, [r7, #60]	@ 0x3c
100094ea:	f507 73b0 	add.w	r3, r7, #352	@ 0x160
100094ee:	f8d7 8028 	ldr.w	r8, [r7, #40]	@ 0x28
100094f2:	189d      	adds	r5, r3, r2
100094f4:	4622      	mov	r2, r4
100094f6:	4654      	mov	r4, sl
100094f8:	46e2      	mov	sl, ip
100094fa:	6bfb      	ldr	r3, [r7, #60]	@ 0x3c
100094fc:	f815 1d01 	ldrb.w	r1, [r5, #-1]!
10009500:	3b01      	subs	r3, #1
10009502:	6c78      	ldr	r0, [r7, #68]	@ 0x44
10009504:	62ba      	str	r2, [r7, #40]	@ 0x28
10009506:	63fb      	str	r3, [r7, #60]	@ 0x3c
10009508:	f7fe fb66 	bl	10007bd8 <_sungetc_r>
1000950c:	6bfb      	ldr	r3, [r7, #60]	@ 0x3c
1000950e:	6aba      	ldr	r2, [r7, #40]	@ 0x28
10009510:	2b00      	cmp	r3, #0
10009512:	d1f2      	bne.n	100094fa <__ssvfscanf_r+0x17ca>
10009514:	46d4      	mov	ip, sl
10009516:	46a2      	mov	sl, r4
10009518:	4614      	mov	r4, r2
1000951a:	e660      	b.n	100091de <__ssvfscanf_r+0x14ae>
1000951c:	4648      	mov	r0, r9
1000951e:	ea4f 01c8 	mov.w	r1, r8, lsl #3
10009522:	f7f9 f9d7 	bl	100028d4 <__wrap_realloc>
10009526:	4681      	mov	r9, r0
10009528:	2800      	cmp	r0, #0
1000952a:	f43e ace1 	beq.w	10007ef0 <__ssvfscanf_r+0x1c0>
1000952e:	6aba      	ldr	r2, [r7, #40]	@ 0x28
10009530:	1946      	adds	r6, r0, r5
10009532:	ea4f 0848 	mov.w	r8, r8, lsl #1
10009536:	6a7d      	ldr	r5, [r7, #36]	@ 0x24
10009538:	6010      	str	r0, [r2, #0]
1000953a:	e78e      	b.n	1000945a <__ssvfscanf_r+0x172a>

1000953c <__sccl>:
1000953c:	b570      	push	{r4, r5, r6, lr}
1000953e:	780c      	ldrb	r4, [r1, #0]
10009540:	4684      	mov	ip, r0
10009542:	2c5e      	cmp	r4, #94	@ 0x5e
10009544:	d024      	beq.n	10009590 <__sccl+0x54>
10009546:	2300      	movs	r3, #0
10009548:	1c48      	adds	r0, r1, #1
1000954a:	469e      	mov	lr, r3
1000954c:	2200      	movs	r2, #0
1000954e:	f50c 7180 	add.w	r1, ip, #256	@ 0x100
10009552:	f363 0207 	bfi	r2, r3, #0, #8
10009556:	f363 220f 	bfi	r2, r3, #8, #8
1000955a:	f363 4217 	bfi	r2, r3, #16, #8
1000955e:	f363 621f 	bfi	r2, r3, #24, #8
10009562:	4663      	mov	r3, ip
10009564:	f843 2b04 	str.w	r2, [r3], #4
10009568:	428b      	cmp	r3, r1
1000956a:	d1fb      	bne.n	10009564 <__sccl+0x28>
1000956c:	b174      	cbz	r4, 1000958c <__sccl+0x50>
1000956e:	f08e 0101 	eor.w	r1, lr, #1
10009572:	1c45      	adds	r5, r0, #1
10009574:	f80c 1004 	strb.w	r1, [ip, r4]
10009578:	f815 3c01 	ldrb.w	r3, [r5, #-1]
1000957c:	2b2d      	cmp	r3, #45	@ 0x2d
1000957e:	d00e      	beq.n	1000959e <__sccl+0x62>
10009580:	2b5d      	cmp	r3, #93	@ 0x5d
10009582:	d00a      	beq.n	1000959a <__sccl+0x5e>
10009584:	b11b      	cbz	r3, 1000958e <__sccl+0x52>
10009586:	461c      	mov	r4, r3
10009588:	4628      	mov	r0, r5
1000958a:	e7f2      	b.n	10009572 <__sccl+0x36>
1000958c:	3801      	subs	r0, #1
1000958e:	bd70      	pop	{r4, r5, r6, pc}
10009590:	2301      	movs	r3, #1
10009592:	1c88      	adds	r0, r1, #2
10009594:	784c      	ldrb	r4, [r1, #1]
10009596:	469e      	mov	lr, r3
10009598:	e7d8      	b.n	1000954c <__sccl+0x10>
1000959a:	4628      	mov	r0, r5
1000959c:	bd70      	pop	{r4, r5, r6, pc}
1000959e:	f890 e001 	ldrb.w	lr, [r0, #1]
100095a2:	f1be 0f5d 	cmp.w	lr, #93	@ 0x5d
100095a6:	d015      	beq.n	100095d4 <__sccl+0x98>
100095a8:	4574      	cmp	r4, lr
100095aa:	dc13      	bgt.n	100095d4 <__sccl+0x98>
100095ac:	1c66      	adds	r6, r4, #1
100095ae:	3002      	adds	r0, #2
100095b0:	eb0c 0206 	add.w	r2, ip, r6
100095b4:	f802 1b01 	strb.w	r1, [r2], #1
100095b8:	eba2 030c 	sub.w	r3, r2, ip
100095bc:	3b01      	subs	r3, #1
100095be:	459e      	cmp	lr, r3
100095c0:	dcf8      	bgt.n	100095b4 <__sccl+0x78>
100095c2:	ebae 0304 	sub.w	r3, lr, r4
100095c6:	3502      	adds	r5, #2
100095c8:	3b01      	subs	r3, #1
100095ca:	4574      	cmp	r4, lr
100095cc:	bfa8      	it	ge
100095ce:	2300      	movge	r3, #0
100095d0:	199c      	adds	r4, r3, r6
100095d2:	e7d1      	b.n	10009578 <__sccl+0x3c>
100095d4:	242d      	movs	r4, #45	@ 0x2d
100095d6:	4628      	mov	r0, r5
100095d8:	e7cb      	b.n	10009572 <__sccl+0x36>
100095da:	bf00      	nop

100095dc <__submore>:
100095dc:	e92d 41f0 	stmdb	sp!, {r4, r5, r6, r7, r8, lr}
100095e0:	460c      	mov	r4, r1
100095e2:	6b09      	ldr	r1, [r1, #48]	@ 0x30
100095e4:	f104 0340 	add.w	r3, r4, #64	@ 0x40
100095e8:	4299      	cmp	r1, r3
100095ea:	d014      	beq.n	10009616 <__submore+0x3a>
100095ec:	6b66      	ldr	r6, [r4, #52]	@ 0x34
100095ee:	0077      	lsls	r7, r6, #1
100095f0:	463a      	mov	r2, r7
100095f2:	f7fd fc4b 	bl	10006e8c <_realloc_r>
100095f6:	4605      	mov	r5, r0
100095f8:	b330      	cbz	r0, 10009648 <__submore+0x6c>
100095fa:	eb00 0806 	add.w	r8, r0, r6
100095fe:	4601      	mov	r1, r0
10009600:	4632      	mov	r2, r6
10009602:	4640      	mov	r0, r8
10009604:	f7fe f8f4 	bl	100077f0 <memcpy>
10009608:	f8c4 8000 	str.w	r8, [r4]
1000960c:	e9c4 570c 	strd	r5, r7, [r4, #48]	@ 0x30
10009610:	2000      	movs	r0, #0
10009612:	e8bd 81f0 	ldmia.w	sp!, {r4, r5, r6, r7, r8, pc}
10009616:	f44f 6180 	mov.w	r1, #1024	@ 0x400
1000961a:	f7fd f967 	bl	100068ec <_malloc_r>
1000961e:	b198      	cbz	r0, 10009648 <__submore+0x6c>
10009620:	f894 2042 	ldrb.w	r2, [r4, #66]	@ 0x42
10009624:	f44f 6180 	mov.w	r1, #1024	@ 0x400
10009628:	6320      	str	r0, [r4, #48]	@ 0x30
1000962a:	f200 33fd 	addw	r3, r0, #1021	@ 0x3fd
1000962e:	6361      	str	r1, [r4, #52]	@ 0x34
10009630:	f880 23ff 	strb.w	r2, [r0, #1023]	@ 0x3ff
10009634:	f894 2041 	ldrb.w	r2, [r4, #65]	@ 0x41
10009638:	f880 23fe 	strb.w	r2, [r0, #1022]	@ 0x3fe
1000963c:	f894 2040 	ldrb.w	r2, [r4, #64]	@ 0x40
10009640:	f880 23fd 	strb.w	r2, [r0, #1021]	@ 0x3fd
10009644:	6023      	str	r3, [r4, #0]
10009646:	e7e3      	b.n	10009610 <__submore+0x34>
10009648:	f04f 30ff 	mov.w	r0, #4294967295	@ 0xffffffff
1000964c:	e7e1      	b.n	10009612 <__submore+0x36>
1000964e:	bf00      	nop

10009650 <__locale_mb_cur_max>:
10009650:	4b01      	ldr	r3, [pc, #4]	@ (10009658 <__locale_mb_cur_max+0x8>)
10009652:	f893 0128 	ldrb.w	r0, [r3, #296]	@ 0x128
10009656:	4770      	bx	lr
10009658:	20001400 	.word	0x20001400

1000965c <_localeconv_r>:
1000965c:	4800      	ldr	r0, [pc, #0]	@ (10009660 <_localeconv_r+0x4>)
1000965e:	4770      	bx	lr
10009660:	200014f0 	.word	0x200014f0

10009664 <nanf>:
10009664:	4800      	ldr	r0, [pc, #0]	@ (10009668 <nanf+0x4>)
10009666:	4770      	bx	lr
10009668:	7fc00000 	.word	0x7fc00000

1000966c <__ascii_mbtowc>:
1000966c:	b082      	sub	sp, #8
1000966e:	b149      	cbz	r1, 10009684 <__ascii_mbtowc+0x18>
10009670:	b15a      	cbz	r2, 1000968a <__ascii_mbtowc+0x1e>
10009672:	b16b      	cbz	r3, 10009690 <__ascii_mbtowc+0x24>
10009674:	7813      	ldrb	r3, [r2, #0]
10009676:	600b      	str	r3, [r1, #0]
10009678:	7812      	ldrb	r2, [r2, #0]
1000967a:	1e10      	subs	r0, r2, #0
1000967c:	bf18      	it	ne
1000967e:	2001      	movne	r0, #1
10009680:	b002      	add	sp, #8
10009682:	4770      	bx	lr
10009684:	a901      	add	r1, sp, #4
10009686:	2a00      	cmp	r2, #0
10009688:	d1f3      	bne.n	10009672 <__ascii_mbtowc+0x6>
1000968a:	4610      	mov	r0, r2
1000968c:	b002      	add	sp, #8
1000968e:	4770      	bx	lr
10009690:	f06f 0001 	mvn.w	r0, #1
10009694:	e7f4      	b.n	10009680 <__ascii_mbtowc+0x14>
10009696:	bf00      	nop

10009698 <_strtod_l>:
10009698:	e92d 4ff0 	stmdb	sp!, {r4, r5, r6, r7, r8, r9, sl, fp, lr}
1000969c:	460e      	mov	r6, r1
1000969e:	b0a1      	sub	sp, #132	@ 0x84
100096a0:	2100      	movs	r1, #0
100096a2:	4683      	mov	fp, r0
100096a4:	9207      	str	r2, [sp, #28]
100096a6:	2200      	movs	r2, #0
100096a8:	911c      	str	r1, [sp, #112]	@ 0x70
100096aa:	2100      	movs	r1, #0
100096ac:	e9cd 1204 	strd	r1, r2, [sp, #16]
100096b0:	4632      	mov	r2, r6
100096b2:	4615      	mov	r5, r2
100096b4:	921b      	str	r2, [sp, #108]	@ 0x6c
100096b6:	f812 ab01 	ldrb.w	sl, [r2], #1
100096ba:	f1ba 0f2d 	cmp.w	sl, #45	@ 0x2d
100096be:	d85f      	bhi.n	10009780 <_strtod_l+0xe8>
100096c0:	a101      	add	r1, pc, #4	@ (adr r1, 100096c8 <_strtod_l+0x30>)
100096c2:	f851 f02a 	ldr.w	pc, [r1, sl, lsl #2]
100096c6:	bf00      	nop
100096c8:	1000981b 	.word	0x1000981b
100096cc:	10009781 	.word	0x10009781
100096d0:	10009781 	.word	0x10009781
100096d4:	10009781 	.word	0x10009781
100096d8:	10009781 	.word	0x10009781
100096dc:	10009781 	.word	0x10009781
100096e0:	10009781 	.word	0x10009781
100096e4:	10009781 	.word	0x10009781
100096e8:	10009781 	.word	0x10009781
100096ec:	100096b3 	.word	0x100096b3
100096f0:	100096b3 	.word	0x100096b3
100096f4:	100096b3 	.word	0x100096b3
100096f8:	100096b3 	.word	0x100096b3
100096fc:	100096b3 	.word	0x100096b3
10009700:	10009781 	.word	0x10009781
10009704:	10009781 	.word	0x10009781
10009708:	10009781 	.word	0x10009781
1000970c:	10009781 	.word	0x10009781
10009710:	10009781 	.word	0x10009781
10009714:	10009781 	.word	0x10009781
10009718:	10009781 	.word	0x10009781
1000971c:	10009781 	.word	0x10009781
10009720:	10009781 	.word	0x10009781
10009724:	10009781 	.word	0x10009781
10009728:	10009781 	.word	0x10009781
1000972c:	10009781 	.word	0x10009781
10009730:	10009781 	.word	0x10009781
10009734:	10009781 	.word	0x10009781
10009738:	10009781 	.word	0x10009781
1000973c:	10009781 	.word	0x10009781
10009740:	10009781 	.word	0x10009781
10009744:	10009781 	.word	0x10009781
10009748:	100096b3 	.word	0x100096b3
1000974c:	10009781 	.word	0x10009781
10009750:	10009781 	.word	0x10009781
10009754:	10009781 	.word	0x10009781
10009758:	10009781 	.word	0x10009781
1000975c:	10009781 	.word	0x10009781
10009760:	10009781 	.word	0x10009781
10009764:	10009781 	.word	0x10009781
10009768:	10009781 	.word	0x10009781
1000976c:	10009781 	.word	0x10009781
10009770:	10009781 	.word	0x10009781
10009774:	10009b35 	.word	0x10009b35
10009778:	10009781 	.word	0x10009781
1000977c:	10009b4d 	.word	0x10009b4d
10009780:	2200      	movs	r2, #0
10009782:	9208      	str	r2, [sp, #32]
10009784:	f1ba 0f30 	cmp.w	sl, #48	@ 0x30
10009788:	f000 80af 	beq.w	100098ea <_strtod_l+0x252>
1000978c:	2300      	movs	r3, #0
1000978e:	9309      	str	r3, [sp, #36]	@ 0x24
10009790:	f1aa 0330 	sub.w	r3, sl, #48	@ 0x30
10009794:	2b09      	cmp	r3, #9
10009796:	f200 83ff 	bhi.w	10009f98 <_strtod_l+0x900>
1000979a:	2700      	movs	r7, #0
1000979c:	4628      	mov	r0, r5
1000979e:	463c      	mov	r4, r7
100097a0:	46b9      	mov	r9, r7
100097a2:	3001      	adds	r0, #1
100097a4:	f1b9 0f08 	cmp.w	r9, #8
100097a8:	eb07 0287 	add.w	r2, r7, r7, lsl #2
100097ac:	f109 0901 	add.w	r9, r9, #1
100097b0:	eb04 0184 	add.w	r1, r4, r4, lsl #2
100097b4:	901b      	str	r0, [sp, #108]	@ 0x6c
100097b6:	f890 a000 	ldrb.w	sl, [r0]
100097ba:	bfcc      	ite	gt
100097bc:	eb03 0742 	addgt.w	r7, r3, r2, lsl #1
100097c0:	eb03 0441 	addle.w	r4, r3, r1, lsl #1
100097c4:	f1aa 0330 	sub.w	r3, sl, #48	@ 0x30
100097c8:	2b09      	cmp	r3, #9
100097ca:	d9ea      	bls.n	100097a2 <_strtod_l+0x10a>
100097cc:	2201      	movs	r2, #1
100097ce:	49a9      	ldr	r1, [pc, #676]	@ (10009a74 <_strtod_l+0x3dc>)
100097d0:	f7fd fecc 	bl	1000756c <strncmp>
100097d4:	4680      	mov	r8, r0
100097d6:	bb60      	cbnz	r0, 10009832 <_strtod_l+0x19a>
100097d8:	f8dd c06c 	ldr.w	ip, [sp, #108]	@ 0x6c
100097dc:	4663      	mov	r3, ip
100097de:	f10c 0c01 	add.w	ip, ip, #1
100097e2:	f8cd c06c 	str.w	ip, [sp, #108]	@ 0x6c
100097e6:	785b      	ldrb	r3, [r3, #1]
100097e8:	f1a3 0030 	sub.w	r0, r3, #48	@ 0x30
100097ec:	2809      	cmp	r0, #9
100097ee:	f240 811e 	bls.w	10009a2e <_strtod_l+0x396>
100097f2:	f023 0320 	bic.w	r3, r3, #32
100097f6:	2b45      	cmp	r3, #69	@ 0x45
100097f8:	f040 81ab 	bne.w	10009b52 <_strtod_l+0x4ba>
100097fc:	4649      	mov	r1, r9
100097fe:	f8cd 8028 	str.w	r8, [sp, #40]	@ 0x28
10009802:	f04f 0e01 	mov.w	lr, #1
10009806:	9b0a      	ldr	r3, [sp, #40]	@ 0x28
10009808:	f8cd 9038 	str.w	r9, [sp, #56]	@ 0x38
1000980c:	ea43 0309 	orr.w	r3, r3, r9
10009810:	4689      	mov	r9, r1
10009812:	9a09      	ldr	r2, [sp, #36]	@ 0x24
10009814:	4313      	orrs	r3, r2
10009816:	f040 813f 	bne.w	10009a98 <_strtod_l+0x400>
1000981a:	9b07      	ldr	r3, [sp, #28]
1000981c:	f04f 0800 	mov.w	r8, #0
10009820:	f04f 0900 	mov.w	r9, #0
10009824:	b103      	cbz	r3, 10009828 <_strtod_l+0x190>
10009826:	601e      	str	r6, [r3, #0]
10009828:	4640      	mov	r0, r8
1000982a:	4649      	mov	r1, r9
1000982c:	b021      	add	sp, #132	@ 0x84
1000982e:	e8bd 8ff0 	ldmia.w	sp!, {r4, r5, r6, r7, r8, r9, sl, fp, pc}
10009832:	f02a 0320 	bic.w	r3, sl, #32
10009836:	2b45      	cmp	r3, #69	@ 0x45
10009838:	f000 8128 	beq.w	10009a8c <_strtod_l+0x3f4>
1000983c:	f04f 0800 	mov.w	r8, #0
10009840:	46ca      	mov	sl, r9
10009842:	f8cd 8030 	str.w	r8, [sp, #48]	@ 0x30
10009846:	f8cd 803c 	str.w	r8, [sp, #60]	@ 0x3c
1000984a:	f8cd 9038 	str.w	r9, [sp, #56]	@ 0x38
1000984e:	f1ba 0f10 	cmp.w	sl, #16
10009852:	4620      	mov	r0, r4
10009854:	46d1      	mov	r9, sl
10009856:	bfa8      	it	ge
10009858:	f04f 0910 	movge.w	r9, #16
1000985c:	f7f8 fe2c 	bl	100024b8 <__wrap___aeabi_ui2d>
10009860:	f1ba 0f09 	cmp.w	sl, #9
10009864:	4602      	mov	r2, r0
10009866:	460b      	mov	r3, r1
10009868:	e9cd 2304 	strd	r2, r3, [sp, #16]
1000986c:	dd17      	ble.n	1000989e <_strtod_l+0x206>
1000986e:	4b82      	ldr	r3, [pc, #520]	@ (10009a78 <_strtod_l+0x3e0>)
10009870:	eb03 03c9 	add.w	r3, r3, r9, lsl #3
10009874:	e953 2312 	ldrd	r2, r3, [r3, #-72]	@ 0x48
10009878:	f7f8 fd8a 	bl	10002390 <__wrap___aeabi_dmul>
1000987c:	4602      	mov	r2, r0
1000987e:	4638      	mov	r0, r7
10009880:	460f      	mov	r7, r1
10009882:	4616      	mov	r6, r2
10009884:	f7f8 fe18 	bl	100024b8 <__wrap___aeabi_ui2d>
10009888:	4602      	mov	r2, r0
1000988a:	460b      	mov	r3, r1
1000988c:	4630      	mov	r0, r6
1000988e:	4639      	mov	r1, r7
10009890:	f7f8 fd56 	bl	10002340 <__wrap___aeabi_dadd>
10009894:	f1ba 0f0f 	cmp.w	sl, #15
10009898:	e9cd 0104 	strd	r0, r1, [sp, #16]
1000989c:	dc38      	bgt.n	10009910 <_strtod_l+0x278>
1000989e:	9b0c      	ldr	r3, [sp, #48]	@ 0x30
100098a0:	2b00      	cmp	r3, #0
100098a2:	f000 83b5 	beq.w	1000a010 <_strtod_l+0x978>
100098a6:	9b0c      	ldr	r3, [sp, #48]	@ 0x30
100098a8:	f340 82b0 	ble.w	10009e0c <_strtod_l+0x774>
100098ac:	2b16      	cmp	r3, #22
100098ae:	f340 84eb 	ble.w	1000a288 <_strtod_l+0xbf0>
100098b2:	f1ca 0325 	rsb	r3, sl, #37	@ 0x25
100098b6:	9a0c      	ldr	r2, [sp, #48]	@ 0x30
100098b8:	4293      	cmp	r3, r2
100098ba:	db29      	blt.n	10009910 <_strtod_l+0x278>
100098bc:	f1ca 0a0f 	rsb	sl, sl, #15
100098c0:	4c6d      	ldr	r4, [pc, #436]	@ (10009a78 <_strtod_l+0x3e0>)
100098c2:	eb04 01ca 	add.w	r1, r4, sl, lsl #3
100098c6:	e9dd 2304 	ldrd	r2, r3, [sp, #16]
100098ca:	e9d1 0100 	ldrd	r0, r1, [r1]
100098ce:	f7f8 fd5f 	bl	10002390 <__wrap___aeabi_dmul>
100098d2:	9b0c      	ldr	r3, [sp, #48]	@ 0x30
100098d4:	eba3 0a0a 	sub.w	sl, r3, sl
100098d8:	eb04 04ca 	add.w	r4, r4, sl, lsl #3
100098dc:	e9d4 2300 	ldrd	r2, r3, [r4]
100098e0:	f7f8 fd56 	bl	10002390 <__wrap___aeabi_dmul>
100098e4:	4680      	mov	r8, r0
100098e6:	4689      	mov	r9, r1
100098e8:	e091      	b.n	10009a0e <_strtod_l+0x376>
100098ea:	786a      	ldrb	r2, [r5, #1]
100098ec:	f002 02df 	and.w	r2, r2, #223	@ 0xdf
100098f0:	2a58      	cmp	r2, #88	@ 0x58
100098f2:	f000 83df 	beq.w	1000a0b4 <_strtod_l+0xa1c>
100098f6:	3501      	adds	r5, #1
100098f8:	951b      	str	r5, [sp, #108]	@ 0x6c
100098fa:	f895 a000 	ldrb.w	sl, [r5]
100098fe:	f1ba 0f30 	cmp.w	sl, #48	@ 0x30
10009902:	d0f8      	beq.n	100098f6 <_strtod_l+0x25e>
10009904:	f1ba 0f00 	cmp.w	sl, #0
10009908:	d07d      	beq.n	10009a06 <_strtod_l+0x36e>
1000990a:	2301      	movs	r3, #1
1000990c:	9309      	str	r3, [sp, #36]	@ 0x24
1000990e:	e73f      	b.n	10009790 <_strtod_l+0xf8>
10009910:	ebaa 0909 	sub.w	r9, sl, r9
10009914:	9b0c      	ldr	r3, [sp, #48]	@ 0x30
10009916:	4499      	add	r9, r3
10009918:	f1b9 0f00 	cmp.w	r9, #0
1000991c:	f340 8126 	ble.w	10009b6c <_strtod_l+0x4d4>
10009920:	f029 070f 	bic.w	r7, r9, #15
10009924:	f019 090f 	ands.w	r9, r9, #15
10009928:	f040 8435 	bne.w	1000a196 <_strtod_l+0xafe>
1000992c:	f5b7 7f9a 	cmp.w	r7, #308	@ 0x134
10009930:	f300 84b8 	bgt.w	1000a2a4 <_strtod_l+0xc0c>
10009934:	2f10      	cmp	r7, #16
10009936:	ea4f 1627 	mov.w	r6, r7, asr #4
1000993a:	f000 85fa 	beq.w	1000a532 <_strtod_l+0xe9a>
1000993e:	f8df e148 	ldr.w	lr, [pc, #328]	@ 10009a88 <_strtod_l+0x3f0>
10009942:	f04f 0c00 	mov.w	ip, #0
10009946:	9409      	str	r4, [sp, #36]	@ 0x24
10009948:	4677      	mov	r7, lr
1000994a:	46e1      	mov	r9, ip
1000994c:	4674      	mov	r4, lr
1000994e:	e9dd 2304 	ldrd	r2, r3, [sp, #16]
10009952:	f016 0f01 	tst.w	r6, #1
10009956:	4610      	mov	r0, r2
10009958:	4619      	mov	r1, r3
1000995a:	d007      	beq.n	1000996c <_strtod_l+0x2d4>
1000995c:	e9d7 2300 	ldrd	r2, r3, [r7]
10009960:	f7f8 fd16 	bl	10002390 <__wrap___aeabi_dmul>
10009964:	f04f 0c01 	mov.w	ip, #1
10009968:	4602      	mov	r2, r0
1000996a:	460b      	mov	r3, r1
1000996c:	1076      	asrs	r6, r6, #1
1000996e:	f109 0901 	add.w	r9, r9, #1
10009972:	3708      	adds	r7, #8
10009974:	2e01      	cmp	r6, #1
10009976:	d1ec      	bne.n	10009952 <_strtod_l+0x2ba>
10009978:	46a6      	mov	lr, r4
1000997a:	9c09      	ldr	r4, [sp, #36]	@ 0x24
1000997c:	f1bc 0f00 	cmp.w	ip, #0
10009980:	d001      	beq.n	10009986 <_strtod_l+0x2ee>
10009982:	e9cd 2304 	strd	r2, r3, [sp, #16]
10009986:	9b05      	ldr	r3, [sp, #20]
10009988:	eb0e 0ec9 	add.w	lr, lr, r9, lsl #3
1000998c:	f1a3 7354 	sub.w	r3, r3, #55574528	@ 0x3500000
10009990:	9305      	str	r3, [sp, #20]
10009992:	e9dd 2304 	ldrd	r2, r3, [sp, #16]
10009996:	e9de 0100 	ldrd	r0, r1, [lr]
1000999a:	f7f8 fcf9 	bl	10002390 <__wrap___aeabi_dmul>
1000999e:	4b37      	ldr	r3, [pc, #220]	@ (10009a7c <_strtod_l+0x3e4>)
100099a0:	460a      	mov	r2, r1
100099a2:	400b      	ands	r3, r1
100099a4:	e9cd 0104 	strd	r0, r1, [sp, #16]
100099a8:	4935      	ldr	r1, [pc, #212]	@ (10009a80 <_strtod_l+0x3e8>)
100099aa:	428b      	cmp	r3, r1
100099ac:	f200 847a 	bhi.w	1000a2a4 <_strtod_l+0xc0c>
100099b0:	f5a1 1180 	sub.w	r1, r1, #1048576	@ 0x100000
100099b4:	428b      	cmp	r3, r1
100099b6:	f240 8535 	bls.w	1000a424 <_strtod_l+0xd8c>
100099ba:	f04f 32ff 	mov.w	r2, #4294967295	@ 0xffffffff
100099be:	4b31      	ldr	r3, [pc, #196]	@ (10009a84 <_strtod_l+0x3ec>)
100099c0:	e9cd 2304 	strd	r2, r3, [sp, #16]
100099c4:	e0d4      	b.n	10009b70 <_strtod_l+0x4d8>
100099c6:	981b      	ldr	r0, [sp, #108]	@ 0x6c
100099c8:	1c43      	adds	r3, r0, #1
100099ca:	931b      	str	r3, [sp, #108]	@ 0x6c
100099cc:	7841      	ldrb	r1, [r0, #1]
100099ce:	2930      	cmp	r1, #48	@ 0x30
100099d0:	f040 84b3 	bne.w	1000a33a <_strtod_l+0xca2>
100099d4:	1c83      	adds	r3, r0, #2
100099d6:	461a      	mov	r2, r3
100099d8:	931b      	str	r3, [sp, #108]	@ 0x6c
100099da:	3301      	adds	r3, #1
100099dc:	7811      	ldrb	r1, [r2, #0]
100099de:	2930      	cmp	r1, #48	@ 0x30
100099e0:	d0f9      	beq.n	100099d6 <_strtod_l+0x33e>
100099e2:	1a12      	subs	r2, r2, r0
100099e4:	1e53      	subs	r3, r2, #1
100099e6:	930a      	str	r3, [sp, #40]	@ 0x28
100099e8:	f1a1 0331 	sub.w	r3, r1, #49	@ 0x31
100099ec:	2b08      	cmp	r3, #8
100099ee:	f240 82e7 	bls.w	10009fc0 <_strtod_l+0x928>
100099f2:	f021 0120 	bic.w	r1, r1, #32
100099f6:	2945      	cmp	r1, #69	@ 0x45
100099f8:	f000 83b9 	beq.w	1000a16e <_strtod_l+0xad6>
100099fc:	e9dd 2309 	ldrd	r2, r3, [sp, #36]	@ 0x24
10009a00:	4313      	orrs	r3, r2
10009a02:	f43f af0a 	beq.w	1000981a <_strtod_l+0x182>
10009a06:	f04f 0800 	mov.w	r8, #0
10009a0a:	f04f 0900 	mov.w	r9, #0
10009a0e:	9a07      	ldr	r2, [sp, #28]
10009a10:	b10a      	cbz	r2, 10009a16 <_strtod_l+0x37e>
10009a12:	9b1b      	ldr	r3, [sp, #108]	@ 0x6c
10009a14:	6013      	str	r3, [r2, #0]
10009a16:	9b08      	ldr	r3, [sp, #32]
10009a18:	2b00      	cmp	r3, #0
10009a1a:	f43f af05 	beq.w	10009828 <_strtod_l+0x190>
10009a1e:	f109 4300 	add.w	r3, r9, #2147483648	@ 0x80000000
10009a22:	4640      	mov	r0, r8
10009a24:	4699      	mov	r9, r3
10009a26:	4649      	mov	r1, r9
10009a28:	b021      	add	sp, #132	@ 0x84
10009a2a:	e8bd 8ff0 	ldmia.w	sp!, {r4, r5, r6, r7, r8, r9, sl, fp, pc}
10009a2e:	4649      	mov	r1, r9
10009a30:	f8cd 8028 	str.w	r8, [sp, #40]	@ 0x28
10009a34:	9a0a      	ldr	r2, [sp, #40]	@ 0x28
10009a36:	46e6      	mov	lr, ip
10009a38:	4684      	mov	ip, r0
10009a3a:	1c53      	adds	r3, r2, #1
10009a3c:	2800      	cmp	r0, #0
10009a3e:	f000 8499 	beq.w	1000a374 <_strtod_l+0xcdc>
10009a42:	2b01      	cmp	r3, #1
10009a44:	4498      	add	r8, r3
10009a46:	f000 8640 	beq.w	1000a6ca <_strtod_l+0x1032>
10009a4a:	444a      	add	r2, r9
10009a4c:	e004      	b.n	10009a58 <_strtod_l+0x3c0>
10009a4e:	ea4f 044a 	mov.w	r4, sl, lsl #1
10009a52:	454a      	cmp	r2, r9
10009a54:	f000 863a 	beq.w	1000a6cc <_strtod_l+0x1034>
10009a58:	464b      	mov	r3, r9
10009a5a:	eb04 0a84 	add.w	sl, r4, r4, lsl #2
10009a5e:	f109 0901 	add.w	r9, r9, #1
10009a62:	2b08      	cmp	r3, #8
10009a64:	ddf3      	ble.n	10009a4e <_strtod_l+0x3b6>
10009a66:	eb07 0387 	add.w	r3, r7, r7, lsl #2
10009a6a:	f1b9 0f10 	cmp.w	r9, #16
10009a6e:	bfd8      	it	le
10009a70:	005f      	lslle	r7, r3, #1
10009a72:	e7ee      	b.n	10009a52 <_strtod_l+0x3ba>
10009a74:	1000c938 	.word	0x1000c938
10009a78:	1000cf68 	.word	0x1000cf68
10009a7c:	7ff00000 	.word	0x7ff00000
10009a80:	7ca00000 	.word	0x7ca00000
10009a84:	7fefffff 	.word	0x7fefffff
10009a88:	1000cf40 	.word	0x1000cf40
10009a8c:	2300      	movs	r3, #0
10009a8e:	f8cd 9038 	str.w	r9, [sp, #56]	@ 0x38
10009a92:	4698      	mov	r8, r3
10009a94:	469e      	mov	lr, r3
10009a96:	930a      	str	r3, [sp, #40]	@ 0x28
10009a98:	9e1b      	ldr	r6, [sp, #108]	@ 0x6c
10009a9a:	1c73      	adds	r3, r6, #1
10009a9c:	931b      	str	r3, [sp, #108]	@ 0x6c
10009a9e:	7873      	ldrb	r3, [r6, #1]
10009aa0:	2b2b      	cmp	r3, #43	@ 0x2b
10009aa2:	f000 826d 	beq.w	10009f80 <_strtod_l+0x8e8>
10009aa6:	2b2d      	cmp	r3, #45	@ 0x2d
10009aa8:	d141      	bne.n	10009b2e <_strtod_l+0x496>
10009aaa:	f04f 0a01 	mov.w	sl, #1
10009aae:	1cb3      	adds	r3, r6, #2
10009ab0:	931b      	str	r3, [sp, #108]	@ 0x6c
10009ab2:	78b3      	ldrb	r3, [r6, #2]
10009ab4:	f1a3 0030 	sub.w	r0, r3, #48	@ 0x30
10009ab8:	2809      	cmp	r0, #9
10009aba:	f200 8222 	bhi.w	10009f02 <_strtod_l+0x86a>
10009abe:	2b30      	cmp	r3, #48	@ 0x30
10009ac0:	991b      	ldr	r1, [sp, #108]	@ 0x6c
10009ac2:	f040 82ce 	bne.w	1000a062 <_strtod_l+0x9ca>
10009ac6:	3101      	adds	r1, #1
10009ac8:	911b      	str	r1, [sp, #108]	@ 0x6c
10009aca:	780b      	ldrb	r3, [r1, #0]
10009acc:	2b30      	cmp	r3, #48	@ 0x30
10009ace:	d0fa      	beq.n	10009ac6 <_strtod_l+0x42e>
10009ad0:	f1a3 0031 	sub.w	r0, r3, #49	@ 0x31
10009ad4:	2808      	cmp	r0, #8
10009ad6:	f240 82c2 	bls.w	1000a05e <_strtod_l+0x9c6>
10009ada:	2200      	movs	r2, #0
10009adc:	920f      	str	r2, [sp, #60]	@ 0x3c
10009ade:	9a0e      	ldr	r2, [sp, #56]	@ 0x38
10009ae0:	2a00      	cmp	r2, #0
10009ae2:	d138      	bne.n	10009b56 <_strtod_l+0x4be>
10009ae4:	e9dd 2109 	ldrd	r2, r1, [sp, #36]	@ 0x24
10009ae8:	430a      	orrs	r2, r1
10009aea:	d18c      	bne.n	10009a06 <_strtod_l+0x36e>
10009aec:	f1be 0f00 	cmp.w	lr, #0
10009af0:	f47f ae93 	bne.w	1000981a <_strtod_l+0x182>
10009af4:	2b69      	cmp	r3, #105	@ 0x69
10009af6:	f000 8363 	beq.w	1000a1c0 <_strtod_l+0xb28>
10009afa:	f300 835c 	bgt.w	1000a1b6 <_strtod_l+0xb1e>
10009afe:	2b49      	cmp	r3, #73	@ 0x49
10009b00:	f000 835e 	beq.w	1000a1c0 <_strtod_l+0xb28>
10009b04:	2b4e      	cmp	r3, #78	@ 0x4e
10009b06:	f47f ae88 	bne.w	1000981a <_strtod_l+0x182>
10009b0a:	49b9      	ldr	r1, [pc, #740]	@ (10009df0 <_strtod_l+0x758>)
10009b0c:	a81b      	add	r0, sp, #108	@ 0x6c
10009b0e:	f001 fcc7 	bl	1000b4a0 <__match>
10009b12:	2800      	cmp	r0, #0
10009b14:	f43f ae81 	beq.w	1000981a <_strtod_l+0x182>
10009b18:	9b1b      	ldr	r3, [sp, #108]	@ 0x6c
10009b1a:	781b      	ldrb	r3, [r3, #0]
10009b1c:	2b28      	cmp	r3, #40	@ 0x28
10009b1e:	f000 8486 	beq.w	1000a42e <_strtod_l+0xd96>
10009b22:	48b4      	ldr	r0, [pc, #720]	@ (10009df4 <_strtod_l+0x75c>)
10009b24:	f001 f95c 	bl	1000ade0 <nan>
10009b28:	4680      	mov	r8, r0
10009b2a:	4689      	mov	r9, r1
10009b2c:	e76f      	b.n	10009a0e <_strtod_l+0x376>
10009b2e:	f04f 0a00 	mov.w	sl, #0
10009b32:	e7bf      	b.n	10009ab4 <_strtod_l+0x41c>
10009b34:	2200      	movs	r2, #0
10009b36:	9208      	str	r2, [sp, #32]
10009b38:	1c6a      	adds	r2, r5, #1
10009b3a:	921b      	str	r2, [sp, #108]	@ 0x6c
10009b3c:	f895 a001 	ldrb.w	sl, [r5, #1]
10009b40:	f1ba 0f00 	cmp.w	sl, #0
10009b44:	f43f ae69 	beq.w	1000981a <_strtod_l+0x182>
10009b48:	4615      	mov	r5, r2
10009b4a:	e61b      	b.n	10009784 <_strtod_l+0xec>
10009b4c:	2201      	movs	r2, #1
10009b4e:	9208      	str	r2, [sp, #32]
10009b50:	e7f2      	b.n	10009b38 <_strtod_l+0x4a0>
10009b52:	e9cd 980e 	strd	r9, r8, [sp, #56]	@ 0x38
10009b56:	9b0f      	ldr	r3, [sp, #60]	@ 0x3c
10009b58:	f8dd a038 	ldr.w	sl, [sp, #56]	@ 0x38
10009b5c:	eba3 0308 	sub.w	r3, r3, r8
10009b60:	930c      	str	r3, [sp, #48]	@ 0x30
10009b62:	f1b9 0f00 	cmp.w	r9, #0
10009b66:	f43f ae72 	beq.w	1000984e <_strtod_l+0x1b6>
10009b6a:	e66e      	b.n	1000984a <_strtod_l+0x1b2>
10009b6c:	f040 8346 	bne.w	1000a1fc <_strtod_l+0xb64>
10009b70:	2300      	movs	r3, #0
10009b72:	930d      	str	r3, [sp, #52]	@ 0x34
10009b74:	4653      	mov	r3, sl
10009b76:	9a0e      	ldr	r2, [sp, #56]	@ 0x38
10009b78:	4629      	mov	r1, r5
10009b7a:	4658      	mov	r0, fp
10009b7c:	9400      	str	r4, [sp, #0]
10009b7e:	f001 fe0d 	bl	1000b79c <__s2b>
10009b82:	9015      	str	r0, [sp, #84]	@ 0x54
10009b84:	2800      	cmp	r0, #0
10009b86:	f000 838d 	beq.w	1000a2a4 <_strtod_l+0xc0c>
10009b8a:	9b0f      	ldr	r3, [sp, #60]	@ 0x3c
10009b8c:	2100      	movs	r1, #0
10009b8e:	eba8 0803 	sub.w	r8, r8, r3
10009b92:	9b0c      	ldr	r3, [sp, #48]	@ 0x30
10009b94:	468a      	mov	sl, r1
10009b96:	9109      	str	r1, [sp, #36]	@ 0x24
10009b98:	2b00      	cmp	r3, #0
10009b9a:	ea23 73e3 	bic.w	r3, r3, r3, asr #31
10009b9e:	bfb4      	ite	lt
10009ba0:	4642      	movlt	r2, r8
10009ba2:	2200      	movge	r2, #0
10009ba4:	9314      	str	r3, [sp, #80]	@ 0x50
10009ba6:	920e      	str	r2, [sp, #56]	@ 0x38
10009ba8:	9a0d      	ldr	r2, [sp, #52]	@ 0x34
10009baa:	1a53      	subs	r3, r2, r1
10009bac:	fab2 fc82 	clz	ip, r2
10009bb0:	bf18      	it	ne
10009bb2:	2301      	movne	r3, #1
10009bb4:	ea4f 1c5c 	mov.w	ip, ip, lsr #5
10009bb8:	9316      	str	r3, [sp, #88]	@ 0x58
10009bba:	f8cd c05c 	str.w	ip, [sp, #92]	@ 0x5c
10009bbe:	e0d1      	b.n	10009d64 <_strtod_l+0x6cc>
10009bc0:	1ad2      	subs	r2, r2, r3
10009bc2:	2a1f      	cmp	r2, #31
10009bc4:	eba4 0402 	sub.w	r4, r4, r2
10009bc8:	f300 819f 	bgt.w	10009f0a <_strtod_l+0x872>
10009bcc:	2301      	movs	r3, #1
10009bce:	2700      	movs	r7, #0
10009bd0:	4093      	lsls	r3, r2
10009bd2:	9312      	str	r3, [sp, #72]	@ 0x48
10009bd4:	4425      	add	r5, r4
10009bd6:	4434      	add	r4, r6
10009bd8:	9b0d      	ldr	r3, [sp, #52]	@ 0x34
10009bda:	42a6      	cmp	r6, r4
10009bdc:	441d      	add	r5, r3
10009bde:	4633      	mov	r3, r6
10009be0:	bfa8      	it	ge
10009be2:	4623      	movge	r3, r4
10009be4:	42ab      	cmp	r3, r5
10009be6:	bfa8      	it	ge
10009be8:	462b      	movge	r3, r5
10009bea:	2b00      	cmp	r3, #0
10009bec:	dd02      	ble.n	10009bf4 <_strtod_l+0x55c>
10009bee:	1ae4      	subs	r4, r4, r3
10009bf0:	1aed      	subs	r5, r5, r3
10009bf2:	1af6      	subs	r6, r6, r3
10009bf4:	9b0e      	ldr	r3, [sp, #56]	@ 0x38
10009bf6:	2b00      	cmp	r3, #0
10009bf8:	f300 812a 	bgt.w	10009e50 <_strtod_l+0x7b8>
10009bfc:	2c00      	cmp	r4, #0
10009bfe:	f300 813f 	bgt.w	10009e80 <_strtod_l+0x7e8>
10009c02:	9b0c      	ldr	r3, [sp, #48]	@ 0x30
10009c04:	2b00      	cmp	r3, #0
10009c06:	f300 8172 	bgt.w	10009eee <_strtod_l+0x856>
10009c0a:	2d00      	cmp	r5, #0
10009c0c:	f300 8163 	bgt.w	10009ed6 <_strtod_l+0x83e>
10009c10:	2e00      	cmp	r6, #0
10009c12:	dd08      	ble.n	10009c26 <_strtod_l+0x58e>
10009c14:	4651      	mov	r1, sl
10009c16:	4632      	mov	r2, r6
10009c18:	4658      	mov	r0, fp
10009c1a:	f001 ffc3 	bl	1000bba4 <__lshift>
10009c1e:	4682      	mov	sl, r0
10009c20:	2800      	cmp	r0, #0
10009c22:	f000 8161 	beq.w	10009ee8 <_strtod_l+0x850>
10009c26:	464a      	mov	r2, r9
10009c28:	991c      	ldr	r1, [sp, #112]	@ 0x70
10009c2a:	4658      	mov	r0, fp
10009c2c:	f002 f84e 	bl	1000bccc <__mdiff>
10009c30:	9009      	str	r0, [sp, #36]	@ 0x24
10009c32:	2800      	cmp	r0, #0
10009c34:	f000 8158 	beq.w	10009ee8 <_strtod_l+0x850>
10009c38:	9a09      	ldr	r2, [sp, #36]	@ 0x24
10009c3a:	2300      	movs	r3, #0
10009c3c:	68d1      	ldr	r1, [r2, #12]
10009c3e:	60d3      	str	r3, [r2, #12]
10009c40:	910f      	str	r1, [sp, #60]	@ 0x3c
10009c42:	4651      	mov	r1, sl
10009c44:	f002 f820 	bl	1000bc88 <__mcmp>
10009c48:	2800      	cmp	r0, #0
10009c4a:	f2c0 843b 	blt.w	1000a4c4 <_strtod_l+0xe2c>
10009c4e:	9e05      	ldr	r6, [sp, #20]
10009c50:	f000 839b 	beq.w	1000a38a <_strtod_l+0xcf2>
10009c54:	4651      	mov	r1, sl
10009c56:	9809      	ldr	r0, [sp, #36]	@ 0x24
10009c58:	f002 f9d4 	bl	1000c004 <__ratio>
10009c5c:	2200      	movs	r2, #0
10009c5e:	f04f 4380 	mov.w	r3, #1073741824	@ 0x40000000
10009c62:	4604      	mov	r4, r0
10009c64:	460d      	mov	r5, r1
10009c66:	f7f8 fc95 	bl	10002594 <__wrap___aeabi_dcmple>
10009c6a:	2800      	cmp	r0, #0
10009c6c:	f000 80e0 	beq.w	10009e30 <_strtod_l+0x798>
10009c70:	9b0f      	ldr	r3, [sp, #60]	@ 0x3c
10009c72:	2b00      	cmp	r3, #0
10009c74:	f040 8155 	bne.w	10009f22 <_strtod_l+0x88a>
10009c78:	9b04      	ldr	r3, [sp, #16]
10009c7a:	2b00      	cmp	r3, #0
10009c7c:	f040 8266 	bne.w	1000a14c <_strtod_l+0xab4>
10009c80:	f3c6 0313 	ubfx	r3, r6, #0, #20
10009c84:	2b00      	cmp	r3, #0
10009c86:	f040 817e 	bne.w	10009f86 <_strtod_l+0x8ee>
10009c8a:	2200      	movs	r2, #0
10009c8c:	4b5a      	ldr	r3, [pc, #360]	@ (10009df8 <_strtod_l+0x760>)
10009c8e:	4620      	mov	r0, r4
10009c90:	4629      	mov	r1, r5
10009c92:	f7f8 fc6b 	bl	1000256c <__wrap___aeabi_dcmplt>
10009c96:	2800      	cmp	r0, #0
10009c98:	f040 836e 	bne.w	1000a378 <_strtod_l+0xce0>
10009c9c:	2200      	movs	r2, #0
10009c9e:	4b57      	ldr	r3, [pc, #348]	@ (10009dfc <_strtod_l+0x764>)
10009ca0:	4620      	mov	r0, r4
10009ca2:	4629      	mov	r1, r5
10009ca4:	f7f8 fb74 	bl	10002390 <__wrap___aeabi_dmul>
10009ca8:	460a      	mov	r2, r1
10009caa:	4601      	mov	r1, r0
10009cac:	9010      	str	r0, [sp, #64]	@ 0x40
10009cae:	f102 4300 	add.w	r3, r2, #2147483648	@ 0x80000000
10009cb2:	e9cd 1212 	strd	r1, r2, [sp, #72]	@ 0x48
10009cb6:	9311      	str	r3, [sp, #68]	@ 0x44
10009cb8:	4f51      	ldr	r7, [pc, #324]	@ (10009e00 <_strtod_l+0x768>)
10009cba:	4b52      	ldr	r3, [pc, #328]	@ (10009e04 <_strtod_l+0x76c>)
10009cbc:	4037      	ands	r7, r6
10009cbe:	429f      	cmp	r7, r3
10009cc0:	e9dd 4510 	ldrd	r4, r5, [sp, #64]	@ 0x40
10009cc4:	f000 8134 	beq.w	10009f30 <_strtod_l+0x898>
10009cc8:	f1b7 6fd4 	cmp.w	r7, #111149056	@ 0x6a00000
10009ccc:	d821      	bhi.n	10009d12 <_strtod_l+0x67a>
10009cce:	9b16      	ldr	r3, [sp, #88]	@ 0x58
10009cd0:	b1fb      	cbz	r3, 10009d12 <_strtod_l+0x67a>
10009cd2:	a345      	add	r3, pc, #276	@ (adr r3, 10009de8 <_strtod_l+0x750>)
10009cd4:	e9d3 2300 	ldrd	r2, r3, [r3]
10009cd8:	e9dd 0112 	ldrd	r0, r1, [sp, #72]	@ 0x48
10009cdc:	f7f8 fc5a 	bl	10002594 <__wrap___aeabi_dcmple>
10009ce0:	b1a0      	cbz	r0, 10009d0c <_strtod_l+0x674>
10009ce2:	e9dd 0112 	ldrd	r0, r1, [sp, #72]	@ 0x48
10009ce6:	f7f8 fc0b 	bl	10002500 <__wrap___aeabi_d2uiz>
10009cea:	2801      	cmp	r0, #1
10009cec:	bf38      	it	cc
10009cee:	2001      	movcc	r0, #1
10009cf0:	f7f8 fbe2 	bl	100024b8 <__wrap___aeabi_ui2d>
10009cf4:	9b0f      	ldr	r3, [sp, #60]	@ 0x3c
10009cf6:	e9cd 0112 	strd	r0, r1, [sp, #72]	@ 0x48
10009cfa:	2b00      	cmp	r3, #0
10009cfc:	f040 8246 	bne.w	1000a18c <_strtod_l+0xaf4>
10009d00:	f101 4300 	add.w	r3, r1, #2147483648	@ 0x80000000
10009d04:	9018      	str	r0, [sp, #96]	@ 0x60
10009d06:	9319      	str	r3, [sp, #100]	@ 0x64
10009d08:	e9dd 4518 	ldrd	r4, r5, [sp, #96]	@ 0x60
10009d0c:	f105 63d6 	add.w	r3, r5, #112197632	@ 0x6b00000
10009d10:	1bdd      	subs	r5, r3, r7
10009d12:	e9dd 010a 	ldrd	r0, r1, [sp, #40]	@ 0x28
10009d16:	f002 f891 	bl	1000be3c <__ulp>
10009d1a:	4602      	mov	r2, r0
10009d1c:	460b      	mov	r3, r1
10009d1e:	4620      	mov	r0, r4
10009d20:	4629      	mov	r1, r5
10009d22:	f7f8 fb35 	bl	10002390 <__wrap___aeabi_dmul>
10009d26:	e9dd 230a 	ldrd	r2, r3, [sp, #40]	@ 0x28
10009d2a:	f7f8 fb09 	bl	10002340 <__wrap___aeabi_dadd>
10009d2e:	460c      	mov	r4, r1
10009d30:	e9cd 0104 	strd	r0, r1, [sp, #16]
10009d34:	4b32      	ldr	r3, [pc, #200]	@ (10009e00 <_strtod_l+0x768>)
10009d36:	4023      	ands	r3, r4
10009d38:	42bb      	cmp	r3, r7
10009d3a:	d103      	bne.n	10009d44 <_strtod_l+0x6ac>
10009d3c:	9b17      	ldr	r3, [sp, #92]	@ 0x5c
10009d3e:	2b00      	cmp	r3, #0
10009d40:	f040 8169 	bne.w	1000a016 <_strtod_l+0x97e>
10009d44:	991c      	ldr	r1, [sp, #112]	@ 0x70
10009d46:	4658      	mov	r0, fp
10009d48:	f001 fccc 	bl	1000b6e4 <_Bfree>
10009d4c:	4649      	mov	r1, r9
10009d4e:	4658      	mov	r0, fp
10009d50:	f001 fcc8 	bl	1000b6e4 <_Bfree>
10009d54:	4651      	mov	r1, sl
10009d56:	4658      	mov	r0, fp
10009d58:	f001 fcc4 	bl	1000b6e4 <_Bfree>
10009d5c:	9909      	ldr	r1, [sp, #36]	@ 0x24
10009d5e:	4658      	mov	r0, fp
10009d60:	f001 fcc0 	bl	1000b6e4 <_Bfree>
10009d64:	9c15      	ldr	r4, [sp, #84]	@ 0x54
10009d66:	4658      	mov	r0, fp
10009d68:	6861      	ldr	r1, [r4, #4]
10009d6a:	f001 fc95 	bl	1000b698 <_Balloc>
10009d6e:	4681      	mov	r9, r0
10009d70:	2800      	cmp	r0, #0
10009d72:	f000 80b9 	beq.w	10009ee8 <_strtod_l+0x850>
10009d76:	6922      	ldr	r2, [r4, #16]
10009d78:	f104 010c 	add.w	r1, r4, #12
10009d7c:	300c      	adds	r0, #12
10009d7e:	3202      	adds	r2, #2
10009d80:	0092      	lsls	r2, r2, #2
10009d82:	f7fd fd35 	bl	100077f0 <memcpy>
10009d86:	ab1e      	add	r3, sp, #120	@ 0x78
10009d88:	4658      	mov	r0, fp
10009d8a:	9301      	str	r3, [sp, #4]
10009d8c:	ab1d      	add	r3, sp, #116	@ 0x74
10009d8e:	ed9d 7b04 	vldr	d7, [sp, #16]
10009d92:	9300      	str	r3, [sp, #0]
10009d94:	ec53 2b17 	vmov	r2, r3, d7
10009d98:	ed8d 7b0a 	vstr	d7, [sp, #40]	@ 0x28
10009d9c:	f002 f8d4 	bl	1000bf48 <__d2b>
10009da0:	4602      	mov	r2, r0
10009da2:	901c      	str	r0, [sp, #112]	@ 0x70
10009da4:	2800      	cmp	r0, #0
10009da6:	d075      	beq.n	10009e94 <_strtod_l+0x7fc>
10009da8:	2101      	movs	r1, #1
10009daa:	4658      	mov	r0, fp
10009dac:	f001 fdb8 	bl	1000b920 <__i2b>
10009db0:	4682      	mov	sl, r0
10009db2:	2800      	cmp	r0, #0
10009db4:	f000 8098 	beq.w	10009ee8 <_strtod_l+0x850>
10009db8:	9b1d      	ldr	r3, [sp, #116]	@ 0x74
10009dba:	2b00      	cmp	r3, #0
10009dbc:	f2c0 8087 	blt.w	10009ece <_strtod_l+0x836>
10009dc0:	9a0e      	ldr	r2, [sp, #56]	@ 0x38
10009dc2:	9d14      	ldr	r5, [sp, #80]	@ 0x50
10009dc4:	189e      	adds	r6, r3, r2
10009dc6:	9a0d      	ldr	r2, [sp, #52]	@ 0x34
10009dc8:	9c1e      	ldr	r4, [sp, #120]	@ 0x78
10009dca:	1a9b      	subs	r3, r3, r2
10009dcc:	4a0e      	ldr	r2, [pc, #56]	@ (10009e08 <_strtod_l+0x770>)
10009dce:	4423      	add	r3, r4
10009dd0:	f1c4 0436 	rsb	r4, r4, #54	@ 0x36
10009dd4:	3b01      	subs	r3, #1
10009dd6:	4293      	cmp	r3, r2
10009dd8:	f6ff aef2 	blt.w	10009bc0 <_strtod_l+0x528>
10009ddc:	2301      	movs	r3, #1
10009dde:	2700      	movs	r7, #0
10009de0:	9312      	str	r3, [sp, #72]	@ 0x48
10009de2:	e6f7      	b.n	10009bd4 <_strtod_l+0x53c>
10009de4:	f3af 8000 	nop.w
10009de8:	ffc00000 	.word	0xffc00000
10009dec:	41dfffff 	.word	0x41dfffff
10009df0:	1000c948 	.word	0x1000c948
10009df4:	1000c438 	.word	0x1000c438
10009df8:	3ff00000 	.word	0x3ff00000
10009dfc:	3fe00000 	.word	0x3fe00000
10009e00:	7ff00000 	.word	0x7ff00000
10009e04:	7fe00000 	.word	0x7fe00000
10009e08:	fffffc02 	.word	0xfffffc02
10009e0c:	3316      	adds	r3, #22
10009e0e:	f6ff ad7f 	blt.w	10009910 <_strtod_l+0x278>
10009e12:	9b0f      	ldr	r3, [sp, #60]	@ 0x3c
10009e14:	eba8 0803 	sub.w	r8, r8, r3
10009e18:	4bbb      	ldr	r3, [pc, #748]	@ (1000a108 <_strtod_l+0xa70>)
10009e1a:	eb03 03c8 	add.w	r3, r3, r8, lsl #3
10009e1e:	e9dd 0104 	ldrd	r0, r1, [sp, #16]
10009e22:	e9d3 2300 	ldrd	r2, r3, [r3]
10009e26:	f7f8 fad9 	bl	100023dc <__wrap___aeabi_ddiv>
10009e2a:	4680      	mov	r8, r0
10009e2c:	4689      	mov	r9, r1
10009e2e:	e5ee      	b.n	10009a0e <_strtod_l+0x376>
10009e30:	4bb6      	ldr	r3, [pc, #728]	@ (1000a10c <_strtod_l+0xa74>)
10009e32:	4620      	mov	r0, r4
10009e34:	4629      	mov	r1, r5
10009e36:	2200      	movs	r2, #0
10009e38:	f7f8 faaa 	bl	10002390 <__wrap___aeabi_dmul>
10009e3c:	9b0f      	ldr	r3, [sp, #60]	@ 0x3c
10009e3e:	e9cd 0112 	strd	r0, r1, [sp, #72]	@ 0x48
10009e42:	2b00      	cmp	r3, #0
10009e44:	d168      	bne.n	10009f18 <_strtod_l+0x880>
10009e46:	f101 4300 	add.w	r3, r1, #2147483648	@ 0x80000000
10009e4a:	9010      	str	r0, [sp, #64]	@ 0x40
10009e4c:	9311      	str	r3, [sp, #68]	@ 0x44
10009e4e:	e733      	b.n	10009cb8 <_strtod_l+0x620>
10009e50:	4651      	mov	r1, sl
10009e52:	461a      	mov	r2, r3
10009e54:	4658      	mov	r0, fp
10009e56:	f001 fe45 	bl	1000bae4 <__pow5mult>
10009e5a:	9a1c      	ldr	r2, [sp, #112]	@ 0x70
10009e5c:	4682      	mov	sl, r0
10009e5e:	b1c8      	cbz	r0, 10009e94 <_strtod_l+0x7fc>
10009e60:	4601      	mov	r1, r0
10009e62:	4658      	mov	r0, fp
10009e64:	f001 fd8a 	bl	1000b97c <__multiply>
10009e68:	9a1c      	ldr	r2, [sp, #112]	@ 0x70
10009e6a:	900f      	str	r0, [sp, #60]	@ 0x3c
10009e6c:	b190      	cbz	r0, 10009e94 <_strtod_l+0x7fc>
10009e6e:	4611      	mov	r1, r2
10009e70:	4658      	mov	r0, fp
10009e72:	f001 fc37 	bl	1000b6e4 <_Bfree>
10009e76:	9b0f      	ldr	r3, [sp, #60]	@ 0x3c
10009e78:	2c00      	cmp	r4, #0
10009e7a:	931c      	str	r3, [sp, #112]	@ 0x70
10009e7c:	f77f aec1 	ble.w	10009c02 <_strtod_l+0x56a>
10009e80:	4622      	mov	r2, r4
10009e82:	991c      	ldr	r1, [sp, #112]	@ 0x70
10009e84:	4658      	mov	r0, fp
10009e86:	f001 fe8d 	bl	1000bba4 <__lshift>
10009e8a:	4602      	mov	r2, r0
10009e8c:	901c      	str	r0, [sp, #112]	@ 0x70
10009e8e:	2800      	cmp	r0, #0
10009e90:	f47f aeb7 	bne.w	10009c02 <_strtod_l+0x56a>
10009e94:	464f      	mov	r7, r9
10009e96:	4611      	mov	r1, r2
10009e98:	2322      	movs	r3, #34	@ 0x22
10009e9a:	f04f 0800 	mov.w	r8, #0
10009e9e:	f8df 9274 	ldr.w	r9, [pc, #628]	@ 1000a114 <_strtod_l+0xa7c>
10009ea2:	f8cb 3000 	str.w	r3, [fp]
10009ea6:	4658      	mov	r0, fp
10009ea8:	f001 fc1c 	bl	1000b6e4 <_Bfree>
10009eac:	4639      	mov	r1, r7
10009eae:	4658      	mov	r0, fp
10009eb0:	f001 fc18 	bl	1000b6e4 <_Bfree>
10009eb4:	4651      	mov	r1, sl
10009eb6:	4658      	mov	r0, fp
10009eb8:	f001 fc14 	bl	1000b6e4 <_Bfree>
10009ebc:	9915      	ldr	r1, [sp, #84]	@ 0x54
10009ebe:	4658      	mov	r0, fp
10009ec0:	f001 fc10 	bl	1000b6e4 <_Bfree>
10009ec4:	9909      	ldr	r1, [sp, #36]	@ 0x24
10009ec6:	4658      	mov	r0, fp
10009ec8:	f001 fc0c 	bl	1000b6e4 <_Bfree>
10009ecc:	e59f      	b.n	10009a0e <_strtod_l+0x376>
10009ece:	9a14      	ldr	r2, [sp, #80]	@ 0x50
10009ed0:	9e0e      	ldr	r6, [sp, #56]	@ 0x38
10009ed2:	1ad5      	subs	r5, r2, r3
10009ed4:	e777      	b.n	10009dc6 <_strtod_l+0x72e>
10009ed6:	4649      	mov	r1, r9
10009ed8:	462a      	mov	r2, r5
10009eda:	4658      	mov	r0, fp
10009edc:	f001 fe62 	bl	1000bba4 <__lshift>
10009ee0:	4681      	mov	r9, r0
10009ee2:	2800      	cmp	r0, #0
10009ee4:	f47f ae94 	bne.w	10009c10 <_strtod_l+0x578>
10009ee8:	464f      	mov	r7, r9
10009eea:	991c      	ldr	r1, [sp, #112]	@ 0x70
10009eec:	e7d4      	b.n	10009e98 <_strtod_l+0x800>
10009eee:	4649      	mov	r1, r9
10009ef0:	9a14      	ldr	r2, [sp, #80]	@ 0x50
10009ef2:	4658      	mov	r0, fp
10009ef4:	f001 fdf6 	bl	1000bae4 <__pow5mult>
10009ef8:	4681      	mov	r9, r0
10009efa:	2800      	cmp	r0, #0
10009efc:	f47f ae85 	bne.w	10009c0a <_strtod_l+0x572>
10009f00:	e7f2      	b.n	10009ee8 <_strtod_l+0x850>
10009f02:	2200      	movs	r2, #0
10009f04:	961b      	str	r6, [sp, #108]	@ 0x6c
10009f06:	920f      	str	r2, [sp, #60]	@ 0x3c
10009f08:	e5e9      	b.n	10009ade <_strtod_l+0x446>
10009f0a:	4a81      	ldr	r2, [pc, #516]	@ (1000a110 <_strtod_l+0xa78>)
10009f0c:	1ad2      	subs	r2, r2, r3
10009f0e:	2301      	movs	r3, #1
10009f10:	fa03 f702 	lsl.w	r7, r3, r2
10009f14:	9312      	str	r3, [sp, #72]	@ 0x48
10009f16:	e65d      	b.n	10009bd4 <_strtod_l+0x53c>
10009f18:	ed9d 7b12 	vldr	d7, [sp, #72]	@ 0x48
10009f1c:	ed8d 7b10 	vstr	d7, [sp, #64]	@ 0x40
10009f20:	e6ca      	b.n	10009cb8 <_strtod_l+0x620>
10009f22:	ed9f 7b73 	vldr	d7, [pc, #460]	@ 1000a0f0 <_strtod_l+0xa58>
10009f26:	ed8d 7b10 	vstr	d7, [sp, #64]	@ 0x40
10009f2a:	ed8d 7b12 	vstr	d7, [sp, #72]	@ 0x48
10009f2e:	e6c3      	b.n	10009cb8 <_strtod_l+0x620>
10009f30:	f1a6 7354 	sub.w	r3, r6, #55574528	@ 0x3500000
10009f34:	4e77      	ldr	r6, [pc, #476]	@ (1000a114 <_strtod_l+0xa7c>)
10009f36:	9305      	str	r3, [sp, #20]
10009f38:	e9dd 4504 	ldrd	r4, r5, [sp, #16]
10009f3c:	4620      	mov	r0, r4
10009f3e:	4629      	mov	r1, r5
10009f40:	f001 ff7c 	bl	1000be3c <__ulp>
10009f44:	e9dd 2310 	ldrd	r2, r3, [sp, #64]	@ 0x40
10009f48:	f7f8 fa22 	bl	10002390 <__wrap___aeabi_dmul>
10009f4c:	462b      	mov	r3, r5
10009f4e:	4622      	mov	r2, r4
10009f50:	f7f8 f9f6 	bl	10002340 <__wrap___aeabi_dadd>
10009f54:	4b70      	ldr	r3, [pc, #448]	@ (1000a118 <_strtod_l+0xa80>)
10009f56:	400e      	ands	r6, r1
10009f58:	429e      	cmp	r6, r3
10009f5a:	e9cd 0104 	strd	r0, r1, [sp, #16]
10009f5e:	f240 8111 	bls.w	1000a184 <_strtod_l+0xaec>
10009f62:	f103 7354 	add.w	r3, r3, #55574528	@ 0x3500000
10009f66:	e9dd 010a 	ldrd	r0, r1, [sp, #40]	@ 0x28
10009f6a:	4299      	cmp	r1, r3
10009f6c:	d102      	bne.n	10009f74 <_strtod_l+0x8dc>
10009f6e:	f1b0 3fff 	cmp.w	r0, #4294967295	@ 0xffffffff
10009f72:	d0b9      	beq.n	10009ee8 <_strtod_l+0x850>
10009f74:	f04f 33ff 	mov.w	r3, #4294967295	@ 0xffffffff
10009f78:	4c68      	ldr	r4, [pc, #416]	@ (1000a11c <_strtod_l+0xa84>)
10009f7a:	e9cd 3404 	strd	r3, r4, [sp, #16]
10009f7e:	e6e1      	b.n	10009d44 <_strtod_l+0x6ac>
10009f80:	f04f 0a00 	mov.w	sl, #0
10009f84:	e593      	b.n	10009aae <_strtod_l+0x416>
10009f86:	ed9f 7b5c 	vldr	d7, [pc, #368]	@ 1000a0f8 <_strtod_l+0xa60>
10009f8a:	ed8d 7b10 	vstr	d7, [sp, #64]	@ 0x40
10009f8e:	ed9f 7b58 	vldr	d7, [pc, #352]	@ 1000a0f0 <_strtod_l+0xa58>
10009f92:	ed8d 7b12 	vstr	d7, [sp, #72]	@ 0x48
10009f96:	e68f      	b.n	10009cb8 <_strtod_l+0x620>
10009f98:	2201      	movs	r2, #1
10009f9a:	4961      	ldr	r1, [pc, #388]	@ (1000a120 <_strtod_l+0xa88>)
10009f9c:	4628      	mov	r0, r5
10009f9e:	f7fd fae5 	bl	1000756c <strncmp>
10009fa2:	4681      	mov	r9, r0
10009fa4:	2800      	cmp	r0, #0
10009fa6:	f43f ad0e 	beq.w	100099c6 <_strtod_l+0x32e>
10009faa:	f02a 0220 	bic.w	r2, sl, #32
10009fae:	4653      	mov	r3, sl
10009fb0:	2a45      	cmp	r2, #69	@ 0x45
10009fb2:	f000 81c6 	beq.w	1000a342 <_strtod_l+0xcaa>
10009fb6:	9a09      	ldr	r2, [sp, #36]	@ 0x24
10009fb8:	2a00      	cmp	r2, #0
10009fba:	f43f ad9b 	beq.w	10009af4 <_strtod_l+0x45c>
10009fbe:	e522      	b.n	10009a06 <_strtod_l+0x36e>
10009fc0:	9b0a      	ldr	r3, [sp, #40]	@ 0x28
10009fc2:	f1a1 0c30 	sub.w	ip, r1, #48	@ 0x30
10009fc6:	9d1b      	ldr	r5, [sp, #108]	@ 0x6c
10009fc8:	2201      	movs	r2, #1
10009fca:	f103 0801 	add.w	r8, r3, #1
10009fce:	2300      	movs	r3, #0
10009fd0:	46ae      	mov	lr, r5
10009fd2:	461f      	mov	r7, r3
10009fd4:	eb0c 0403 	add.w	r4, ip, r3
10009fd8:	4649      	mov	r1, r9
10009fda:	2300      	movs	r3, #0
10009fdc:	4691      	mov	r9, r2
10009fde:	930a      	str	r3, [sp, #40]	@ 0x28
10009fe0:	f10e 0c01 	add.w	ip, lr, #1
10009fe4:	f8cd c06c 	str.w	ip, [sp, #108]	@ 0x6c
10009fe8:	f89e 3001 	ldrb.w	r3, [lr, #1]
10009fec:	f1a3 0030 	sub.w	r0, r3, #48	@ 0x30
10009ff0:	2809      	cmp	r0, #9
10009ff2:	f67f ad1f 	bls.w	10009a34 <_strtod_l+0x39c>
10009ff6:	f023 0020 	bic.w	r0, r3, #32
10009ffa:	2845      	cmp	r0, #69	@ 0x45
10009ffc:	f43f ac01 	beq.w	10009802 <_strtod_l+0x16a>
1000a000:	2200      	movs	r2, #0
1000a002:	f8cd 9038 	str.w	r9, [sp, #56]	@ 0x38
1000a006:	f04f 0e01 	mov.w	lr, #1
1000a00a:	4689      	mov	r9, r1
1000a00c:	920f      	str	r2, [sp, #60]	@ 0x3c
1000a00e:	e566      	b.n	10009ade <_strtod_l+0x446>
1000a010:	e9dd 8904 	ldrd	r8, r9, [sp, #16]
1000a014:	e4fb      	b.n	10009a0e <_strtod_l+0x376>
1000a016:	e9dd 5612 	ldrd	r5, r6, [sp, #72]	@ 0x48
1000a01a:	f3c4 0713 	ubfx	r7, r4, #0, #20
1000a01e:	4628      	mov	r0, r5
1000a020:	4631      	mov	r1, r6
1000a022:	f7f8 fbf5 	bl	10002810 <__wrap___aeabi_d2lz>
1000a026:	f7f8 faed 	bl	10002604 <__wrap___aeabi_l2d>
1000a02a:	4602      	mov	r2, r0
1000a02c:	460b      	mov	r3, r1
1000a02e:	4628      	mov	r0, r5
1000a030:	4631      	mov	r1, r6
1000a032:	f7f8 f999 	bl	10002368 <__wrap___aeabi_dsub>
1000a036:	9d04      	ldr	r5, [sp, #16]
1000a038:	9e0f      	ldr	r6, [sp, #60]	@ 0x3c
1000a03a:	4604      	mov	r4, r0
1000a03c:	432e      	orrs	r6, r5
1000a03e:	460d      	mov	r5, r1
1000a040:	4337      	orrs	r7, r6
1000a042:	d171      	bne.n	1000a128 <_strtod_l+0xa90>
1000a044:	a32e      	add	r3, pc, #184	@ (adr r3, 1000a100 <_strtod_l+0xa68>)
1000a046:	e9d3 2300 	ldrd	r2, r3, [r3]
1000a04a:	f7f8 fa8f 	bl	1000256c <__wrap___aeabi_dcmplt>
1000a04e:	2800      	cmp	r0, #0
1000a050:	f43f ae78 	beq.w	10009d44 <_strtod_l+0x6ac>
1000a054:	464f      	mov	r7, r9
1000a056:	e9dd 8904 	ldrd	r8, r9, [sp, #16]
1000a05a:	991c      	ldr	r1, [sp, #112]	@ 0x70
1000a05c:	e723      	b.n	10009ea6 <_strtod_l+0x80e>
1000a05e:	f1a3 0030 	sub.w	r0, r3, #48	@ 0x30
1000a062:	f101 0c01 	add.w	ip, r1, #1
1000a066:	f8cd c06c 	str.w	ip, [sp, #108]	@ 0x6c
1000a06a:	784b      	ldrb	r3, [r1, #1]
1000a06c:	f1a3 0230 	sub.w	r2, r3, #48	@ 0x30
1000a070:	2a09      	cmp	r2, #9
1000a072:	f200 80bc 	bhi.w	1000a1ee <_strtod_l+0xb56>
1000a076:	4662      	mov	r2, ip
1000a078:	3201      	adds	r2, #1
1000a07a:	eb00 0080 	add.w	r0, r0, r0, lsl #2
1000a07e:	921b      	str	r2, [sp, #108]	@ 0x6c
1000a080:	eb03 0040 	add.w	r0, r3, r0, lsl #1
1000a084:	7813      	ldrb	r3, [r2, #0]
1000a086:	3830      	subs	r0, #48	@ 0x30
1000a088:	f1a3 0c30 	sub.w	ip, r3, #48	@ 0x30
1000a08c:	f1bc 0f09 	cmp.w	ip, #9
1000a090:	d9f2      	bls.n	1000a078 <_strtod_l+0x9e0>
1000a092:	eba2 0c01 	sub.w	ip, r2, r1
1000a096:	f1bc 0f08 	cmp.w	ip, #8
1000a09a:	f340 80a8 	ble.w	1000a1ee <_strtod_l+0xb56>
1000a09e:	f644 621f 	movw	r2, #19999	@ 0x4e1f
1000a0a2:	920f      	str	r2, [sp, #60]	@ 0x3c
1000a0a4:	f1ba 0f00 	cmp.w	sl, #0
1000a0a8:	f43f ad19 	beq.w	10009ade <_strtod_l+0x446>
1000a0ac:	9a0f      	ldr	r2, [sp, #60]	@ 0x3c
1000a0ae:	4252      	negs	r2, r2
1000a0b0:	920f      	str	r2, [sp, #60]	@ 0x3c
1000a0b2:	e514      	b.n	10009ade <_strtod_l+0x446>
1000a0b4:	9302      	str	r3, [sp, #8]
1000a0b6:	a91b      	add	r1, sp, #108	@ 0x6c
1000a0b8:	9b08      	ldr	r3, [sp, #32]
1000a0ba:	4658      	mov	r0, fp
1000a0bc:	4a19      	ldr	r2, [pc, #100]	@ (1000a124 <_strtod_l+0xa8c>)
1000a0be:	9301      	str	r3, [sp, #4]
1000a0c0:	ab1c      	add	r3, sp, #112	@ 0x70
1000a0c2:	9300      	str	r3, [sp, #0]
1000a0c4:	ab1d      	add	r3, sp, #116	@ 0x74
1000a0c6:	f000 fee7 	bl	1000ae98 <__gethex>
1000a0ca:	f010 060f 	ands.w	r6, r0, #15
1000a0ce:	4604      	mov	r4, r0
1000a0d0:	f43f ac99 	beq.w	10009a06 <_strtod_l+0x36e>
1000a0d4:	2e06      	cmp	r6, #6
1000a0d6:	f040 80ec 	bne.w	1000a2b2 <_strtod_l+0xc1a>
1000a0da:	3501      	adds	r5, #1
1000a0dc:	2300      	movs	r3, #0
1000a0de:	f04f 0800 	mov.w	r8, #0
1000a0e2:	f04f 0900 	mov.w	r9, #0
1000a0e6:	9308      	str	r3, [sp, #32]
1000a0e8:	951b      	str	r5, [sp, #108]	@ 0x6c
1000a0ea:	e490      	b.n	10009a0e <_strtod_l+0x376>
1000a0ec:	f3af 8000 	nop.w
1000a0f0:	00000000 	.word	0x00000000
1000a0f4:	3ff00000 	.word	0x3ff00000
1000a0f8:	00000000 	.word	0x00000000
1000a0fc:	bff00000 	.word	0xbff00000
1000a100:	94a03595 	.word	0x94a03595
1000a104:	3fcfffff 	.word	0x3fcfffff
1000a108:	1000cf68 	.word	0x1000cf68
1000a10c:	3fe00000 	.word	0x3fe00000
1000a110:	fffffbe2 	.word	0xfffffbe2
1000a114:	7ff00000 	.word	0x7ff00000
1000a118:	7c9fffff 	.word	0x7c9fffff
1000a11c:	7fefffff 	.word	0x7fefffff
1000a120:	1000c938 	.word	0x1000c938
1000a124:	1000cdf0 	.word	0x1000cdf0
1000a128:	a3d8      	add	r3, pc, #864	@ (adr r3, 1000a48c <_strtod_l+0xdf4>)
1000a12a:	e9d3 2300 	ldrd	r2, r3, [r3]
1000a12e:	f7f8 fa1d 	bl	1000256c <__wrap___aeabi_dcmplt>
1000a132:	2800      	cmp	r0, #0
1000a134:	d18e      	bne.n	1000a054 <_strtod_l+0x9bc>
1000a136:	4620      	mov	r0, r4
1000a138:	4629      	mov	r1, r5
1000a13a:	a3d6      	add	r3, pc, #856	@ (adr r3, 1000a494 <_strtod_l+0xdfc>)
1000a13c:	e9d3 2300 	ldrd	r2, r3, [r3]
1000a140:	f7f8 fa50 	bl	100025e4 <__wrap___aeabi_dcmpgt>
1000a144:	2800      	cmp	r0, #0
1000a146:	f43f adfd 	beq.w	10009d44 <_strtod_l+0x6ac>
1000a14a:	e783      	b.n	1000a054 <_strtod_l+0x9bc>
1000a14c:	9b04      	ldr	r3, [sp, #16]
1000a14e:	2b01      	cmp	r3, #1
1000a150:	f47f af19 	bne.w	10009f86 <_strtod_l+0x8ee>
1000a154:	2e00      	cmp	r6, #0
1000a156:	f47f af16 	bne.w	10009f86 <_strtod_l+0x8ee>
1000a15a:	464f      	mov	r7, r9
1000a15c:	2322      	movs	r3, #34	@ 0x22
1000a15e:	991c      	ldr	r1, [sp, #112]	@ 0x70
1000a160:	f04f 0800 	mov.w	r8, #0
1000a164:	f04f 0900 	mov.w	r9, #0
1000a168:	f8cb 3000 	str.w	r3, [fp]
1000a16c:	e69b      	b.n	10009ea6 <_strtod_l+0x80e>
1000a16e:	f04f 0800 	mov.w	r8, #0
1000a172:	9b0a      	ldr	r3, [sp, #40]	@ 0x28
1000a174:	f04f 0e01 	mov.w	lr, #1
1000a178:	4647      	mov	r7, r8
1000a17a:	4644      	mov	r4, r8
1000a17c:	f8cd 8038 	str.w	r8, [sp, #56]	@ 0x38
1000a180:	f7ff bb47 	b.w	10009812 <_strtod_l+0x17a>
1000a184:	f101 7454 	add.w	r4, r1, #55574528	@ 0x3500000
1000a188:	9405      	str	r4, [sp, #20]
1000a18a:	e5d3      	b.n	10009d34 <_strtod_l+0x69c>
1000a18c:	ed9d 7b12 	vldr	d7, [sp, #72]	@ 0x48
1000a190:	ed8d 7b18 	vstr	d7, [sp, #96]	@ 0x60
1000a194:	e5b8      	b.n	10009d08 <_strtod_l+0x670>
1000a196:	49b4      	ldr	r1, [pc, #720]	@ (1000a468 <_strtod_l+0xdd0>)
1000a198:	eb01 01c9 	add.w	r1, r1, r9, lsl #3
1000a19c:	e9dd 2304 	ldrd	r2, r3, [sp, #16]
1000a1a0:	e9d1 0100 	ldrd	r0, r1, [r1]
1000a1a4:	f7f8 f8f4 	bl	10002390 <__wrap___aeabi_dmul>
1000a1a8:	e9cd 0104 	strd	r0, r1, [sp, #16]
1000a1ac:	2f00      	cmp	r7, #0
1000a1ae:	f43f acdf 	beq.w	10009b70 <_strtod_l+0x4d8>
1000a1b2:	f7ff bbbb 	b.w	1000992c <_strtod_l+0x294>
1000a1b6:	2b6e      	cmp	r3, #110	@ 0x6e
1000a1b8:	f43f aca7 	beq.w	10009b0a <_strtod_l+0x472>
1000a1bc:	f7ff bb2d 	b.w	1000981a <_strtod_l+0x182>
1000a1c0:	49aa      	ldr	r1, [pc, #680]	@ (1000a46c <_strtod_l+0xdd4>)
1000a1c2:	a81b      	add	r0, sp, #108	@ 0x6c
1000a1c4:	f001 f96c 	bl	1000b4a0 <__match>
1000a1c8:	2800      	cmp	r0, #0
1000a1ca:	f43f ab26 	beq.w	1000981a <_strtod_l+0x182>
1000a1ce:	9b1b      	ldr	r3, [sp, #108]	@ 0x6c
1000a1d0:	a81b      	add	r0, sp, #108	@ 0x6c
1000a1d2:	49a7      	ldr	r1, [pc, #668]	@ (1000a470 <_strtod_l+0xdd8>)
1000a1d4:	3b01      	subs	r3, #1
1000a1d6:	931b      	str	r3, [sp, #108]	@ 0x6c
1000a1d8:	f001 f962 	bl	1000b4a0 <__match>
1000a1dc:	b910      	cbnz	r0, 1000a1e4 <_strtod_l+0xb4c>
1000a1de:	9b1b      	ldr	r3, [sp, #108]	@ 0x6c
1000a1e0:	3301      	adds	r3, #1
1000a1e2:	931b      	str	r3, [sp, #108]	@ 0x6c
1000a1e4:	f04f 0800 	mov.w	r8, #0
1000a1e8:	f8df 928c 	ldr.w	r9, [pc, #652]	@ 1000a478 <_strtod_l+0xde0>
1000a1ec:	e40f      	b.n	10009a0e <_strtod_l+0x376>
1000a1ee:	f644 611f 	movw	r1, #19999	@ 0x4e1f
1000a1f2:	4288      	cmp	r0, r1
1000a1f4:	bfa8      	it	ge
1000a1f6:	4608      	movge	r0, r1
1000a1f8:	900f      	str	r0, [sp, #60]	@ 0x3c
1000a1fa:	e753      	b.n	1000a0a4 <_strtod_l+0xa0c>
1000a1fc:	f1c9 0900 	rsb	r9, r9, #0
1000a200:	ea4f 1729 	mov.w	r7, r9, asr #4
1000a204:	f019 090f 	ands.w	r9, r9, #15
1000a208:	f040 80a4 	bne.w	1000a354 <_strtod_l+0xcbc>
1000a20c:	2f1f      	cmp	r7, #31
1000a20e:	dc32      	bgt.n	1000a276 <_strtod_l+0xbde>
1000a210:	f017 0110 	ands.w	r1, r7, #16
1000a214:	4e97      	ldr	r6, [pc, #604]	@ (1000a474 <_strtod_l+0xddc>)
1000a216:	bf18      	it	ne
1000a218:	216a      	movne	r1, #106	@ 0x6a
1000a21a:	e9dd 2304 	ldrd	r2, r3, [sp, #16]
1000a21e:	910d      	str	r1, [sp, #52]	@ 0x34
1000a220:	f017 0f01 	tst.w	r7, #1
1000a224:	4610      	mov	r0, r2
1000a226:	4619      	mov	r1, r3
1000a228:	d040      	beq.n	1000a2ac <_strtod_l+0xc14>
1000a22a:	3608      	adds	r6, #8
1000a22c:	e956 2302 	ldrd	r2, r3, [r6, #-8]
1000a230:	f7f8 f8ae 	bl	10002390 <__wrap___aeabi_dmul>
1000a234:	4602      	mov	r2, r0
1000a236:	107f      	asrs	r7, r7, #1
1000a238:	460b      	mov	r3, r1
1000a23a:	d1f1      	bne.n	1000a220 <_strtod_l+0xb88>
1000a23c:	9b0d      	ldr	r3, [sp, #52]	@ 0x34
1000a23e:	e9cd 0104 	strd	r0, r1, [sp, #16]
1000a242:	b17b      	cbz	r3, 1000a264 <_strtod_l+0xbcc>
1000a244:	f3c1 520a 	ubfx	r2, r1, #20, #11
1000a248:	f1c2 036b 	rsb	r3, r2, #107	@ 0x6b
1000a24c:	2b00      	cmp	r3, #0
1000a24e:	dd09      	ble.n	1000a264 <_strtod_l+0xbcc>
1000a250:	2b1f      	cmp	r3, #31
1000a252:	f340 81ac 	ble.w	1000a5ae <_strtod_l+0xf16>
1000a256:	2b34      	cmp	r3, #52	@ 0x34
1000a258:	9704      	str	r7, [sp, #16]
1000a25a:	f340 81f9 	ble.w	1000a650 <_strtod_l+0xfb8>
1000a25e:	f04f 735c 	mov.w	r3, #57671680	@ 0x3700000
1000a262:	9305      	str	r3, [sp, #20]
1000a264:	2200      	movs	r2, #0
1000a266:	2300      	movs	r3, #0
1000a268:	e9dd 0104 	ldrd	r0, r1, [sp, #16]
1000a26c:	f7f8 f96c 	bl	10002548 <__wrap___aeabi_dcmpeq>
1000a270:	2800      	cmp	r0, #0
1000a272:	f43f ac7f 	beq.w	10009b74 <_strtod_l+0x4dc>
1000a276:	2322      	movs	r3, #34	@ 0x22
1000a278:	f04f 0800 	mov.w	r8, #0
1000a27c:	f04f 0900 	mov.w	r9, #0
1000a280:	f8cb 3000 	str.w	r3, [fp]
1000a284:	f7ff bbc3 	b.w	10009a0e <_strtod_l+0x376>
1000a288:	980c      	ldr	r0, [sp, #48]	@ 0x30
1000a28a:	4977      	ldr	r1, [pc, #476]	@ (1000a468 <_strtod_l+0xdd0>)
1000a28c:	eb01 01c0 	add.w	r1, r1, r0, lsl #3
1000a290:	e9dd 2304 	ldrd	r2, r3, [sp, #16]
1000a294:	e9d1 0100 	ldrd	r0, r1, [r1]
1000a298:	f7f8 f87a 	bl	10002390 <__wrap___aeabi_dmul>
1000a29c:	4680      	mov	r8, r0
1000a29e:	4689      	mov	r9, r1
1000a2a0:	f7ff bbb5 	b.w	10009a0e <_strtod_l+0x376>
1000a2a4:	2322      	movs	r3, #34	@ 0x22
1000a2a6:	f8cb 3000 	str.w	r3, [fp]
1000a2aa:	e79b      	b.n	1000a1e4 <_strtod_l+0xb4c>
1000a2ac:	107f      	asrs	r7, r7, #1
1000a2ae:	3608      	adds	r6, #8
1000a2b0:	e7b6      	b.n	1000a220 <_strtod_l+0xb88>
1000a2b2:	9a1c      	ldr	r2, [sp, #112]	@ 0x70
1000a2b4:	b13a      	cbz	r2, 1000a2c6 <_strtod_l+0xc2e>
1000a2b6:	2135      	movs	r1, #53	@ 0x35
1000a2b8:	a81e      	add	r0, sp, #120	@ 0x78
1000a2ba:	f001 fed1 	bl	1000c060 <__copybits>
1000a2be:	4658      	mov	r0, fp
1000a2c0:	991c      	ldr	r1, [sp, #112]	@ 0x70
1000a2c2:	f001 fa0f 	bl	1000b6e4 <_Bfree>
1000a2c6:	3e01      	subs	r6, #1
1000a2c8:	2e04      	cmp	r6, #4
1000a2ca:	f200 821a 	bhi.w	1000a702 <_strtod_l+0x106a>
1000a2ce:	e8df f006 	tbb	[pc, r6]
1000a2d2:	2e03      	.short	0x2e03
1000a2d4:	202b      	.short	0x202b
1000a2d6:	03          	.byte	0x03
1000a2d7:	00          	.byte	0x00
1000a2d8:	9b1e      	ldr	r3, [sp, #120]	@ 0x78
1000a2da:	9304      	str	r3, [sp, #16]
1000a2dc:	9b1d      	ldr	r3, [sp, #116]	@ 0x74
1000a2de:	f203 4233 	addw	r2, r3, #1075	@ 0x433
1000a2e2:	9b1f      	ldr	r3, [sp, #124]	@ 0x7c
1000a2e4:	f423 1380 	bic.w	r3, r3, #1048576	@ 0x100000
1000a2e8:	ea43 5302 	orr.w	r3, r3, r2, lsl #20
1000a2ec:	9305      	str	r3, [sp, #20]
1000a2ee:	05e2      	lsls	r2, r4, #23
1000a2f0:	d502      	bpl.n	1000a2f8 <_strtod_l+0xc60>
1000a2f2:	f043 4300 	orr.w	r3, r3, #2147483648	@ 0x80000000
1000a2f6:	9305      	str	r3, [sp, #20]
1000a2f8:	4a5f      	ldr	r2, [pc, #380]	@ (1000a478 <_strtod_l+0xde0>)
1000a2fa:	401a      	ands	r2, r3
1000a2fc:	e9dd 8904 	ldrd	r8, r9, [sp, #16]
1000a300:	2a00      	cmp	r2, #0
1000a302:	f47f ab84 	bne.w	10009a0e <_strtod_l+0x376>
1000a306:	f7fd f97d 	bl	10007604 <__errno>
1000a30a:	2322      	movs	r3, #34	@ 0x22
1000a30c:	6003      	str	r3, [r0, #0]
1000a30e:	f7ff bb7e 	b.w	10009a0e <_strtod_l+0x376>
1000a312:	f04f 32ff 	mov.w	r2, #4294967295	@ 0xffffffff
1000a316:	f06f 4300 	mvn.w	r3, #2147483648	@ 0x80000000
1000a31a:	e9cd 2304 	strd	r2, r3, [sp, #16]
1000a31e:	05e3      	lsls	r3, r4, #23
1000a320:	f57f ae76 	bpl.w	1000a010 <_strtod_l+0x978>
1000a324:	9b05      	ldr	r3, [sp, #20]
1000a326:	e7e4      	b.n	1000a2f2 <_strtod_l+0xc5a>
1000a328:	4b53      	ldr	r3, [pc, #332]	@ (1000a478 <_strtod_l+0xde0>)
1000a32a:	9305      	str	r3, [sp, #20]
1000a32c:	e7f7      	b.n	1000a31e <_strtod_l+0xc86>
1000a32e:	e9dd 121e 	ldrd	r1, r2, [sp, #120]	@ 0x78
1000a332:	9b1f      	ldr	r3, [sp, #124]	@ 0x7c
1000a334:	e9cd 1204 	strd	r1, r2, [sp, #16]
1000a338:	e7d9      	b.n	1000a2ee <_strtod_l+0xc56>
1000a33a:	f8cd 9028 	str.w	r9, [sp, #40]	@ 0x28
1000a33e:	f7ff bb53 	b.w	100099e8 <_strtod_l+0x350>
1000a342:	2100      	movs	r1, #0
1000a344:	460f      	mov	r7, r1
1000a346:	460c      	mov	r4, r1
1000a348:	4688      	mov	r8, r1
1000a34a:	4689      	mov	r9, r1
1000a34c:	468e      	mov	lr, r1
1000a34e:	910a      	str	r1, [sp, #40]	@ 0x28
1000a350:	f7ff ba59 	b.w	10009806 <_strtod_l+0x16e>
1000a354:	4b44      	ldr	r3, [pc, #272]	@ (1000a468 <_strtod_l+0xdd0>)
1000a356:	eb03 03c9 	add.w	r3, r3, r9, lsl #3
1000a35a:	e9dd 0104 	ldrd	r0, r1, [sp, #16]
1000a35e:	e9d3 2300 	ldrd	r2, r3, [r3]
1000a362:	f7f8 f83b 	bl	100023dc <__wrap___aeabi_ddiv>
1000a366:	e9cd 0104 	strd	r0, r1, [sp, #16]
1000a36a:	2f00      	cmp	r7, #0
1000a36c:	f43f ac00 	beq.w	10009b70 <_strtod_l+0x4d8>
1000a370:	e74c      	b.n	1000a20c <_strtod_l+0xb74>
1000a372:	2300      	movs	r3, #0
1000a374:	930a      	str	r3, [sp, #40]	@ 0x28
1000a376:	e633      	b.n	10009fe0 <_strtod_l+0x948>
1000a378:	ed9f 7b37 	vldr	d7, [pc, #220]	@ 1000a458 <_strtod_l+0xdc0>
1000a37c:	ed8d 7b10 	vstr	d7, [sp, #64]	@ 0x40
1000a380:	ed9f 7b37 	vldr	d7, [pc, #220]	@ 1000a460 <_strtod_l+0xdc8>
1000a384:	ed8d 7b12 	vstr	d7, [sp, #72]	@ 0x48
1000a388:	e496      	b.n	10009cb8 <_strtod_l+0x620>
1000a38a:	9c0f      	ldr	r4, [sp, #60]	@ 0x3c
1000a38c:	46be      	mov	lr, r7
1000a38e:	4633      	mov	r3, r6
1000a390:	464f      	mov	r7, r9
1000a392:	493a      	ldr	r1, [pc, #232]	@ (1000a47c <_strtod_l+0xde4>)
1000a394:	f3c6 0213 	ubfx	r2, r6, #0, #20
1000a398:	e9dd 890a 	ldrd	r8, r9, [sp, #40]	@ 0x28
1000a39c:	2c00      	cmp	r4, #0
1000a39e:	d07d      	beq.n	1000a49c <_strtod_l+0xe04>
1000a3a0:	428a      	cmp	r2, r1
1000a3a2:	f000 8112 	beq.w	1000a5ca <_strtod_l+0xf32>
1000a3a6:	f1be 0f00 	cmp.w	lr, #0
1000a3aa:	f000 8108 	beq.w	1000a5be <_strtod_l+0xf26>
1000a3ae:	ea1e 0f06 	tst.w	lr, r6
1000a3b2:	d033      	beq.n	1000a41c <_strtod_l+0xd84>
1000a3b4:	4640      	mov	r0, r8
1000a3b6:	4649      	mov	r1, r9
1000a3b8:	9304      	str	r3, [sp, #16]
1000a3ba:	f001 fd3f 	bl	1000be3c <__ulp>
1000a3be:	9b0d      	ldr	r3, [sp, #52]	@ 0x34
1000a3c0:	2b00      	cmp	r3, #0
1000a3c2:	f000 811b 	beq.w	1000a5fc <_strtod_l+0xf64>
1000a3c6:	9b04      	ldr	r3, [sp, #16]
1000a3c8:	f3c3 530a 	ubfx	r3, r3, #20, #11
1000a3cc:	f1c3 066b 	rsb	r6, r3, #107	@ 0x6b
1000a3d0:	2e00      	cmp	r6, #0
1000a3d2:	f340 8190 	ble.w	1000a6f6 <_strtod_l+0x105e>
1000a3d6:	4c2a      	ldr	r4, [pc, #168]	@ (1000a480 <_strtod_l+0xde8>)
1000a3d8:	2200      	movs	r2, #0
1000a3da:	eb04 5306 	add.w	r3, r4, r6, lsl #20
1000a3de:	f7f7 ffd7 	bl	10002390 <__wrap___aeabi_dmul>
1000a3e2:	4602      	mov	r2, r0
1000a3e4:	460b      	mov	r3, r1
1000a3e6:	4640      	mov	r0, r8
1000a3e8:	4649      	mov	r1, r9
1000a3ea:	f7f7 ffa9 	bl	10002340 <__wrap___aeabi_dadd>
1000a3ee:	4680      	mov	r8, r0
1000a3f0:	4689      	mov	r9, r1
1000a3f2:	4640      	mov	r0, r8
1000a3f4:	4649      	mov	r1, r9
1000a3f6:	4b23      	ldr	r3, [pc, #140]	@ (1000a484 <_strtod_l+0xdec>)
1000a3f8:	2200      	movs	r2, #0
1000a3fa:	f7f7 ffc9 	bl	10002390 <__wrap___aeabi_dmul>
1000a3fe:	4b1e      	ldr	r3, [pc, #120]	@ (1000a478 <_strtod_l+0xde0>)
1000a400:	4680      	mov	r8, r0
1000a402:	4689      	mov	r9, r1
1000a404:	400b      	ands	r3, r1
1000a406:	2b00      	cmp	r3, #0
1000a408:	f47f ae27 	bne.w	1000a05a <_strtod_l+0x9c2>
1000a40c:	2322      	movs	r3, #34	@ 0x22
1000a40e:	f8cb 3000 	str.w	r3, [fp]
1000a412:	e622      	b.n	1000a05a <_strtod_l+0x9c2>
1000a414:	ea1e 0f03 	tst.w	lr, r3
1000a418:	f040 809a 	bne.w	1000a550 <_strtod_l+0xeb8>
1000a41c:	9b0d      	ldr	r3, [sp, #52]	@ 0x34
1000a41e:	2b00      	cmp	r3, #0
1000a420:	d1e7      	bne.n	1000a3f2 <_strtod_l+0xd5a>
1000a422:	e61a      	b.n	1000a05a <_strtod_l+0x9c2>
1000a424:	f102 7354 	add.w	r3, r2, #55574528	@ 0x3500000
1000a428:	9305      	str	r3, [sp, #20]
1000a42a:	f7ff bba1 	b.w	10009b70 <_strtod_l+0x4d8>
1000a42e:	a81b      	add	r0, sp, #108	@ 0x6c
1000a430:	aa1e      	add	r2, sp, #120	@ 0x78
1000a432:	4915      	ldr	r1, [pc, #84]	@ (1000a488 <_strtod_l+0xdf0>)
1000a434:	f001 f84e 	bl	1000b4d4 <__hexnan>
1000a438:	2805      	cmp	r0, #5
1000a43a:	f47f ab72 	bne.w	10009b22 <_strtod_l+0x48a>
1000a43e:	9b1f      	ldr	r3, [sp, #124]	@ 0x7c
1000a440:	f043 43ff 	orr.w	r3, r3, #2139095040	@ 0x7f800000
1000a444:	f443 03e0 	orr.w	r3, r3, #7340032	@ 0x700000
1000a448:	9305      	str	r3, [sp, #20]
1000a44a:	9b1e      	ldr	r3, [sp, #120]	@ 0x78
1000a44c:	9304      	str	r3, [sp, #16]
1000a44e:	e9dd 8904 	ldrd	r8, r9, [sp, #16]
1000a452:	f7ff badc 	b.w	10009a0e <_strtod_l+0x376>
1000a456:	bf00      	nop
1000a458:	00000000 	.word	0x00000000
1000a45c:	bfe00000 	.word	0xbfe00000
1000a460:	00000000 	.word	0x00000000
1000a464:	3fe00000 	.word	0x3fe00000
1000a468:	1000cf68 	.word	0x1000cf68
1000a46c:	1000c93c 	.word	0x1000c93c
1000a470:	1000c940 	.word	0x1000c940
1000a474:	1000ce08 	.word	0x1000ce08
1000a478:	7ff00000 	.word	0x7ff00000
1000a47c:	000fffff 	.word	0x000fffff
1000a480:	3ff00000 	.word	0x3ff00000
1000a484:	39500000 	.word	0x39500000
1000a488:	1000cddc 	.word	0x1000cddc
1000a48c:	94a03595 	.word	0x94a03595
1000a490:	3fdfffff 	.word	0x3fdfffff
1000a494:	35afe535 	.word	0x35afe535
1000a498:	3fe00000 	.word	0x3fe00000
1000a49c:	2a00      	cmp	r2, #0
1000a49e:	d14e      	bne.n	1000a53e <_strtod_l+0xea6>
1000a4a0:	e9dd 0104 	ldrd	r0, r1, [sp, #16]
1000a4a4:	4602      	mov	r2, r0
1000a4a6:	2800      	cmp	r0, #0
1000a4a8:	d178      	bne.n	1000a59c <_strtod_l+0xf04>
1000a4aa:	9a0d      	ldr	r2, [sp, #52]	@ 0x34
1000a4ac:	2a00      	cmp	r2, #0
1000a4ae:	f000 80af 	beq.w	1000a610 <_strtod_l+0xf78>
1000a4b2:	4c9a      	ldr	r4, [pc, #616]	@ (1000a71c <_strtod_l+0x1084>)
1000a4b4:	4034      	ands	r4, r6
1000a4b6:	f1b4 6fd6 	cmp.w	r4, #112197632	@ 0x6b00000
1000a4ba:	d82d      	bhi.n	1000a518 <_strtod_l+0xe80>
1000a4bc:	f1b4 7f5c 	cmp.w	r4, #57671680	@ 0x3700000
1000a4c0:	d897      	bhi.n	1000a3f2 <_strtod_l+0xd5a>
1000a4c2:	e64b      	b.n	1000a15c <_strtod_l+0xac4>
1000a4c4:	9b0f      	ldr	r3, [sp, #60]	@ 0x3c
1000a4c6:	464f      	mov	r7, r9
1000a4c8:	e9dd 0104 	ldrd	r0, r1, [sp, #16]
1000a4cc:	e9dd 890a 	ldrd	r8, r9, [sp, #40]	@ 0x28
1000a4d0:	4303      	orrs	r3, r0
1000a4d2:	d1a3      	bne.n	1000a41c <_strtod_l+0xd84>
1000a4d4:	f3c1 0213 	ubfx	r2, r1, #0, #20
1000a4d8:	460b      	mov	r3, r1
1000a4da:	2a00      	cmp	r2, #0
1000a4dc:	d19e      	bne.n	1000a41c <_strtod_l+0xd84>
1000a4de:	f021 4400 	bic.w	r4, r1, #2147483648	@ 0x80000000
1000a4e2:	0d24      	lsrs	r4, r4, #20
1000a4e4:	0524      	lsls	r4, r4, #20
1000a4e6:	f1b4 6fd6 	cmp.w	r4, #112197632	@ 0x6b00000
1000a4ea:	d997      	bls.n	1000a41c <_strtod_l+0xd84>
1000a4ec:	9909      	ldr	r1, [sp, #36]	@ 0x24
1000a4ee:	694a      	ldr	r2, [r1, #20]
1000a4f0:	b912      	cbnz	r2, 1000a4f8 <_strtod_l+0xe60>
1000a4f2:	690a      	ldr	r2, [r1, #16]
1000a4f4:	2a01      	cmp	r2, #1
1000a4f6:	dd91      	ble.n	1000a41c <_strtod_l+0xd84>
1000a4f8:	9909      	ldr	r1, [sp, #36]	@ 0x24
1000a4fa:	2201      	movs	r2, #1
1000a4fc:	4658      	mov	r0, fp
1000a4fe:	930a      	str	r3, [sp, #40]	@ 0x28
1000a500:	f001 fb50 	bl	1000bba4 <__lshift>
1000a504:	4651      	mov	r1, sl
1000a506:	9009      	str	r0, [sp, #36]	@ 0x24
1000a508:	f001 fbbe 	bl	1000bc88 <__mcmp>
1000a50c:	2800      	cmp	r0, #0
1000a50e:	dd85      	ble.n	1000a41c <_strtod_l+0xd84>
1000a510:	9a0d      	ldr	r2, [sp, #52]	@ 0x34
1000a512:	9b0a      	ldr	r3, [sp, #40]	@ 0x28
1000a514:	2a00      	cmp	r2, #0
1000a516:	d07b      	beq.n	1000a610 <_strtod_l+0xf78>
1000a518:	f5a4 1480 	sub.w	r4, r4, #1048576	@ 0x100000
1000a51c:	ea6f 5314 	mvn.w	r3, r4, lsr #20
1000a520:	ea6f 5303 	mvn.w	r3, r3, lsl #20
1000a524:	9305      	str	r3, [sp, #20]
1000a526:	f04f 33ff 	mov.w	r3, #4294967295	@ 0xffffffff
1000a52a:	9304      	str	r3, [sp, #16]
1000a52c:	e9dd 8904 	ldrd	r8, r9, [sp, #16]
1000a530:	e75f      	b.n	1000a3f2 <_strtod_l+0xd5a>
1000a532:	f04f 0900 	mov.w	r9, #0
1000a536:	f8df e1f0 	ldr.w	lr, [pc, #496]	@ 1000a728 <_strtod_l+0x1090>
1000a53a:	f7ff ba24 	b.w	10009986 <_strtod_l+0x2ee>
1000a53e:	f1be 0f00 	cmp.w	lr, #0
1000a542:	f47f af67 	bne.w	1000a414 <_strtod_l+0xd7c>
1000a546:	9a12      	ldr	r2, [sp, #72]	@ 0x48
1000a548:	9904      	ldr	r1, [sp, #16]
1000a54a:	420a      	tst	r2, r1
1000a54c:	f43f af66 	beq.w	1000a41c <_strtod_l+0xd84>
1000a550:	4640      	mov	r0, r8
1000a552:	4649      	mov	r1, r9
1000a554:	9304      	str	r3, [sp, #16]
1000a556:	f001 fc71 	bl	1000be3c <__ulp>
1000a55a:	9b0d      	ldr	r3, [sp, #52]	@ 0x34
1000a55c:	2b00      	cmp	r3, #0
1000a55e:	d067      	beq.n	1000a630 <_strtod_l+0xf98>
1000a560:	9b04      	ldr	r3, [sp, #16]
1000a562:	f3c3 530a 	ubfx	r3, r3, #20, #11
1000a566:	f1c3 066b 	rsb	r6, r3, #107	@ 0x6b
1000a56a:	2e00      	cmp	r6, #0
1000a56c:	f340 80c6 	ble.w	1000a6fc <_strtod_l+0x1064>
1000a570:	4c6b      	ldr	r4, [pc, #428]	@ (1000a720 <_strtod_l+0x1088>)
1000a572:	2200      	movs	r2, #0
1000a574:	eb04 5306 	add.w	r3, r4, r6, lsl #20
1000a578:	f7f7 ff0a 	bl	10002390 <__wrap___aeabi_dmul>
1000a57c:	4602      	mov	r2, r0
1000a57e:	460b      	mov	r3, r1
1000a580:	4640      	mov	r0, r8
1000a582:	4649      	mov	r1, r9
1000a584:	f7f7 fef0 	bl	10002368 <__wrap___aeabi_dsub>
1000a588:	2200      	movs	r2, #0
1000a58a:	2300      	movs	r3, #0
1000a58c:	4680      	mov	r8, r0
1000a58e:	4689      	mov	r9, r1
1000a590:	f7f7 ffda 	bl	10002548 <__wrap___aeabi_dcmpeq>
1000a594:	2800      	cmp	r0, #0
1000a596:	f43f af2c 	beq.w	1000a3f2 <_strtod_l+0xd5a>
1000a59a:	e5df      	b.n	1000a15c <_strtod_l+0xac4>
1000a59c:	f1be 0f00 	cmp.w	lr, #0
1000a5a0:	f47f af38 	bne.w	1000a414 <_strtod_l+0xd7c>
1000a5a4:	9912      	ldr	r1, [sp, #72]	@ 0x48
1000a5a6:	420a      	tst	r2, r1
1000a5a8:	f43f af38 	beq.w	1000a41c <_strtod_l+0xd84>
1000a5ac:	e7d0      	b.n	1000a550 <_strtod_l+0xeb8>
1000a5ae:	f04f 32ff 	mov.w	r2, #4294967295	@ 0xffffffff
1000a5b2:	fa02 f303 	lsl.w	r3, r2, r3
1000a5b6:	9a04      	ldr	r2, [sp, #16]
1000a5b8:	401a      	ands	r2, r3
1000a5ba:	9204      	str	r2, [sp, #16]
1000a5bc:	e652      	b.n	1000a264 <_strtod_l+0xbcc>
1000a5be:	9a12      	ldr	r2, [sp, #72]	@ 0x48
1000a5c0:	9904      	ldr	r1, [sp, #16]
1000a5c2:	420a      	tst	r2, r1
1000a5c4:	f43f af2a 	beq.w	1000a41c <_strtod_l+0xd84>
1000a5c8:	e6f4      	b.n	1000a3b4 <_strtod_l+0xd1c>
1000a5ca:	9a0d      	ldr	r2, [sp, #52]	@ 0x34
1000a5cc:	9d04      	ldr	r5, [sp, #16]
1000a5ce:	2a00      	cmp	r2, #0
1000a5d0:	d055      	beq.n	1000a67e <_strtod_l+0xfe6>
1000a5d2:	4c52      	ldr	r4, [pc, #328]	@ (1000a71c <_strtod_l+0x1084>)
1000a5d4:	4034      	ands	r4, r6
1000a5d6:	f1b4 6fd4 	cmp.w	r4, #111149056	@ 0x6a00000
1000a5da:	d841      	bhi.n	1000a660 <_strtod_l+0xfc8>
1000a5dc:	0d21      	lsrs	r1, r4, #20
1000a5de:	f04f 32ff 	mov.w	r2, #4294967295	@ 0xffffffff
1000a5e2:	f1c1 016b 	rsb	r1, r1, #107	@ 0x6b
1000a5e6:	408a      	lsls	r2, r1
1000a5e8:	4295      	cmp	r5, r2
1000a5ea:	d053      	beq.n	1000a694 <_strtod_l+0xffc>
1000a5ec:	f1be 0f00 	cmp.w	lr, #0
1000a5f0:	d05c      	beq.n	1000a6ac <_strtod_l+0x1014>
1000a5f2:	ea1e 0f03 	tst.w	lr, r3
1000a5f6:	f43f aefc 	beq.w	1000a3f2 <_strtod_l+0xd5a>
1000a5fa:	e6db      	b.n	1000a3b4 <_strtod_l+0xd1c>
1000a5fc:	4602      	mov	r2, r0
1000a5fe:	460b      	mov	r3, r1
1000a600:	4640      	mov	r0, r8
1000a602:	4649      	mov	r1, r9
1000a604:	f7f7 fe9c 	bl	10002340 <__wrap___aeabi_dadd>
1000a608:	4689      	mov	r9, r1
1000a60a:	4680      	mov	r8, r0
1000a60c:	991c      	ldr	r1, [sp, #112]	@ 0x70
1000a60e:	e44a      	b.n	10009ea6 <_strtod_l+0x80e>
1000a610:	4a42      	ldr	r2, [pc, #264]	@ (1000a71c <_strtod_l+0x1084>)
1000a612:	991c      	ldr	r1, [sp, #112]	@ 0x70
1000a614:	401a      	ands	r2, r3
1000a616:	f5a2 1280 	sub.w	r2, r2, #1048576	@ 0x100000
1000a61a:	ea6f 5312 	mvn.w	r3, r2, lsr #20
1000a61e:	ea6f 5303 	mvn.w	r3, r3, lsl #20
1000a622:	9305      	str	r3, [sp, #20]
1000a624:	f04f 33ff 	mov.w	r3, #4294967295	@ 0xffffffff
1000a628:	9304      	str	r3, [sp, #16]
1000a62a:	e9dd 8904 	ldrd	r8, r9, [sp, #16]
1000a62e:	e43a      	b.n	10009ea6 <_strtod_l+0x80e>
1000a630:	4602      	mov	r2, r0
1000a632:	460b      	mov	r3, r1
1000a634:	4640      	mov	r0, r8
1000a636:	4649      	mov	r1, r9
1000a638:	f7f7 fe96 	bl	10002368 <__wrap___aeabi_dsub>
1000a63c:	2200      	movs	r2, #0
1000a63e:	2300      	movs	r3, #0
1000a640:	4680      	mov	r8, r0
1000a642:	4689      	mov	r9, r1
1000a644:	f7f7 ff80 	bl	10002548 <__wrap___aeabi_dcmpeq>
1000a648:	2800      	cmp	r0, #0
1000a64a:	f43f ad06 	beq.w	1000a05a <_strtod_l+0x9c2>
1000a64e:	e585      	b.n	1000a15c <_strtod_l+0xac4>
1000a650:	f1c2 024b 	rsb	r2, r2, #75	@ 0x4b
1000a654:	f04f 33ff 	mov.w	r3, #4294967295	@ 0xffffffff
1000a658:	4093      	lsls	r3, r2
1000a65a:	400b      	ands	r3, r1
1000a65c:	9305      	str	r3, [sp, #20]
1000a65e:	e601      	b.n	1000a264 <_strtod_l+0xbcc>
1000a660:	1c6a      	adds	r2, r5, #1
1000a662:	d1c3      	bne.n	1000a5ec <_strtod_l+0xf54>
1000a664:	4a2f      	ldr	r2, [pc, #188]	@ (1000a724 <_strtod_l+0x108c>)
1000a666:	4293      	cmp	r3, r2
1000a668:	d025      	beq.n	1000a6b6 <_strtod_l+0x101e>
1000a66a:	3201      	adds	r2, #1
1000a66c:	401a      	ands	r2, r3
1000a66e:	f502 1380 	add.w	r3, r2, #1048576	@ 0x100000
1000a672:	9305      	str	r3, [sp, #20]
1000a674:	2300      	movs	r3, #0
1000a676:	9304      	str	r3, [sp, #16]
1000a678:	e9dd 8904 	ldrd	r8, r9, [sp, #16]
1000a67c:	e6ce      	b.n	1000a41c <_strtod_l+0xd84>
1000a67e:	9a04      	ldr	r2, [sp, #16]
1000a680:	3201      	adds	r2, #1
1000a682:	d0ef      	beq.n	1000a664 <_strtod_l+0xfcc>
1000a684:	f1be 0f00 	cmp.w	lr, #0
1000a688:	d00b      	beq.n	1000a6a2 <_strtod_l+0x100a>
1000a68a:	ea1e 0f06 	tst.w	lr, r6
1000a68e:	f43f ace4 	beq.w	1000a05a <_strtod_l+0x9c2>
1000a692:	e68f      	b.n	1000a3b4 <_strtod_l+0xd1c>
1000a694:	f504 1380 	add.w	r3, r4, #1048576	@ 0x100000
1000a698:	e9cd 0304 	strd	r0, r3, [sp, #16]
1000a69c:	e9dd 8904 	ldrd	r8, r9, [sp, #16]
1000a6a0:	e6a7      	b.n	1000a3f2 <_strtod_l+0xd5a>
1000a6a2:	9a12      	ldr	r2, [sp, #72]	@ 0x48
1000a6a4:	4215      	tst	r5, r2
1000a6a6:	f43f acd8 	beq.w	1000a05a <_strtod_l+0x9c2>
1000a6aa:	e683      	b.n	1000a3b4 <_strtod_l+0xd1c>
1000a6ac:	9a12      	ldr	r2, [sp, #72]	@ 0x48
1000a6ae:	4215      	tst	r5, r2
1000a6b0:	f43f ae9f 	beq.w	1000a3f2 <_strtod_l+0xd5a>
1000a6b4:	e67e      	b.n	1000a3b4 <_strtod_l+0xd1c>
1000a6b6:	2322      	movs	r3, #34	@ 0x22
1000a6b8:	991c      	ldr	r1, [sp, #112]	@ 0x70
1000a6ba:	f04f 0800 	mov.w	r8, #0
1000a6be:	f8df 905c 	ldr.w	r9, [pc, #92]	@ 1000a71c <_strtod_l+0x1084>
1000a6c2:	f8cb 3000 	str.w	r3, [fp]
1000a6c6:	f7ff bbee 	b.w	10009ea6 <_strtod_l+0x80e>
1000a6ca:	464a      	mov	r2, r9
1000a6cc:	2a08      	cmp	r2, #8
1000a6ce:	f102 0901 	add.w	r9, r2, #1
1000a6d2:	dd0a      	ble.n	1000a6ea <_strtod_l+0x1052>
1000a6d4:	f1b9 0f10 	cmp.w	r9, #16
1000a6d8:	f73f ae4b 	bgt.w	1000a372 <_strtod_l+0xcda>
1000a6dc:	eb07 0787 	add.w	r7, r7, r7, lsl #2
1000a6e0:	2300      	movs	r3, #0
1000a6e2:	eb00 0747 	add.w	r7, r0, r7, lsl #1
1000a6e6:	930a      	str	r3, [sp, #40]	@ 0x28
1000a6e8:	e47a      	b.n	10009fe0 <_strtod_l+0x948>
1000a6ea:	230a      	movs	r3, #10
1000a6ec:	464a      	mov	r2, r9
1000a6ee:	4689      	mov	r9, r1
1000a6f0:	fb04 f303 	mul.w	r3, r4, r3
1000a6f4:	e46e      	b.n	10009fd4 <_strtod_l+0x93c>
1000a6f6:	4602      	mov	r2, r0
1000a6f8:	460b      	mov	r3, r1
1000a6fa:	e674      	b.n	1000a3e6 <_strtod_l+0xd4e>
1000a6fc:	4602      	mov	r2, r0
1000a6fe:	460b      	mov	r3, r1
1000a700:	e73e      	b.n	1000a580 <_strtod_l+0xee8>
1000a702:	05e1      	lsls	r1, r4, #23
1000a704:	d505      	bpl.n	1000a712 <_strtod_l+0x107a>
1000a706:	f04f 4300 	mov.w	r3, #2147483648	@ 0x80000000
1000a70a:	9305      	str	r3, [sp, #20]
1000a70c:	e9dd 8904 	ldrd	r8, r9, [sp, #16]
1000a710:	e5f9      	b.n	1000a306 <_strtod_l+0xc6e>
1000a712:	f04f 0800 	mov.w	r8, #0
1000a716:	f04f 0900 	mov.w	r9, #0
1000a71a:	e5f4      	b.n	1000a306 <_strtod_l+0xc6e>
1000a71c:	7ff00000 	.word	0x7ff00000
1000a720:	3ff00000 	.word	0x3ff00000
1000a724:	7fefffff 	.word	0x7fefffff
1000a728:	1000cf40 	.word	0x1000cf40

1000a72c <_strtod_r>:
1000a72c:	4b01      	ldr	r3, [pc, #4]	@ (1000a734 <_strtod_r+0x8>)
1000a72e:	f7fe bfb3 	b.w	10009698 <_strtod_l>
1000a732:	bf00      	nop
1000a734:	20001400 	.word	0x20001400

1000a738 <_strtol_l.part.0>:
1000a738:	e92d 4ff0 	stmdb	sp!, {r4, r5, r6, r7, r8, r9, sl, fp, lr}
1000a73c:	4681      	mov	r9, r0
1000a73e:	468e      	mov	lr, r1
1000a740:	486d      	ldr	r0, [pc, #436]	@ (1000a8f8 <_strtol_l.part.0+0x1c0>)
1000a742:	4675      	mov	r5, lr
1000a744:	f81e bb01 	ldrb.w	fp, [lr], #1
1000a748:	f810 400b 	ldrb.w	r4, [r0, fp]
1000a74c:	f014 0408 	ands.w	r4, r4, #8
1000a750:	d1f7      	bne.n	1000a742 <_strtol_l.part.0+0xa>
1000a752:	f1bb 0f2d 	cmp.w	fp, #45	@ 0x2d
1000a756:	f023 0710 	bic.w	r7, r3, #16
1000a75a:	d05d      	beq.n	1000a818 <_strtol_l.part.0+0xe0>
1000a75c:	f1bb 0f2b 	cmp.w	fp, #43	@ 0x2b
1000a760:	d010      	beq.n	1000a784 <_strtol_l.part.0+0x4c>
1000a762:	b9af      	cbnz	r7, 1000a790 <_strtol_l.part.0+0x58>
1000a764:	f1bb 0f30 	cmp.w	fp, #48	@ 0x30
1000a768:	f000 808d 	beq.w	1000a886 <_strtol_l.part.0+0x14e>
1000a76c:	2b00      	cmp	r3, #0
1000a76e:	f000 8085 	beq.w	1000a87c <_strtol_l.part.0+0x144>
1000a772:	2310      	movs	r3, #16
1000a774:	f06f 4678 	mvn.w	r6, #4160749568	@ 0xf8000000
1000a778:	270f      	movs	r7, #15
1000a77a:	4698      	mov	r8, r3
1000a77c:	2400      	movs	r4, #0
1000a77e:	f06f 4a00 	mvn.w	sl, #2147483648	@ 0x80000000
1000a782:	e00d      	b.n	1000a7a0 <_strtol_l.part.0+0x68>
1000a784:	f89e b000 	ldrb.w	fp, [lr]
1000a788:	f105 0e02 	add.w	lr, r5, #2
1000a78c:	2f00      	cmp	r7, #0
1000a78e:	d060      	beq.n	1000a852 <_strtol_l.part.0+0x11a>
1000a790:	f06f 4700 	mvn.w	r7, #2147483648	@ 0x80000000
1000a794:	4698      	mov	r8, r3
1000a796:	fbb7 f6f3 	udiv	r6, r7, r3
1000a79a:	46ba      	mov	sl, r7
1000a79c:	fb03 7716 	mls	r7, r3, r6, r7
1000a7a0:	2500      	movs	r5, #0
1000a7a2:	4628      	mov	r0, r5
1000a7a4:	e00e      	b.n	1000a7c4 <_strtol_l.part.0+0x8c>
1000a7a6:	f1ab 0c37 	sub.w	ip, fp, #55	@ 0x37
1000a7aa:	459c      	cmp	ip, r3
1000a7ac:	da1d      	bge.n	1000a7ea <_strtol_l.part.0+0xb2>
1000a7ae:	3501      	adds	r5, #1
1000a7b0:	d004      	beq.n	1000a7bc <_strtol_l.part.0+0x84>
1000a7b2:	42b0      	cmp	r0, r6
1000a7b4:	d802      	bhi.n	1000a7bc <_strtol_l.part.0+0x84>
1000a7b6:	d122      	bne.n	1000a7fe <_strtol_l.part.0+0xc6>
1000a7b8:	45bc      	cmp	ip, r7
1000a7ba:	dd20      	ble.n	1000a7fe <_strtol_l.part.0+0xc6>
1000a7bc:	f04f 35ff 	mov.w	r5, #4294967295	@ 0xffffffff
1000a7c0:	f81e bb01 	ldrb.w	fp, [lr], #1
1000a7c4:	f1ab 0c30 	sub.w	ip, fp, #48	@ 0x30
1000a7c8:	f1bc 0f09 	cmp.w	ip, #9
1000a7cc:	d9ed      	bls.n	1000a7aa <_strtol_l.part.0+0x72>
1000a7ce:	f1ab 0c41 	sub.w	ip, fp, #65	@ 0x41
1000a7d2:	f1bc 0f19 	cmp.w	ip, #25
1000a7d6:	d9e6      	bls.n	1000a7a6 <_strtol_l.part.0+0x6e>
1000a7d8:	f1ab 0c61 	sub.w	ip, fp, #97	@ 0x61
1000a7dc:	f1bc 0f19 	cmp.w	ip, #25
1000a7e0:	d803      	bhi.n	1000a7ea <_strtol_l.part.0+0xb2>
1000a7e2:	f1ab 0c57 	sub.w	ip, fp, #87	@ 0x57
1000a7e6:	459c      	cmp	ip, r3
1000a7e8:	dbe1      	blt.n	1000a7ae <_strtol_l.part.0+0x76>
1000a7ea:	1c6b      	adds	r3, r5, #1
1000a7ec:	d00b      	beq.n	1000a806 <_strtol_l.part.0+0xce>
1000a7ee:	b104      	cbz	r4, 1000a7f2 <_strtol_l.part.0+0xba>
1000a7f0:	4240      	negs	r0, r0
1000a7f2:	b112      	cbz	r2, 1000a7fa <_strtol_l.part.0+0xc2>
1000a7f4:	2d00      	cmp	r5, #0
1000a7f6:	d157      	bne.n	1000a8a8 <_strtol_l.part.0+0x170>
1000a7f8:	6011      	str	r1, [r2, #0]
1000a7fa:	e8bd 8ff0 	ldmia.w	sp!, {r4, r5, r6, r7, r8, r9, sl, fp, pc}
1000a7fe:	fb08 c000 	mla	r0, r8, r0, ip
1000a802:	2501      	movs	r5, #1
1000a804:	e7dc      	b.n	1000a7c0 <_strtol_l.part.0+0x88>
1000a806:	2322      	movs	r3, #34	@ 0x22
1000a808:	f8c9 3000 	str.w	r3, [r9]
1000a80c:	2a00      	cmp	r2, #0
1000a80e:	d04d      	beq.n	1000a8ac <_strtol_l.part.0+0x174>
1000a810:	f10e 31ff 	add.w	r1, lr, #4294967295	@ 0xffffffff
1000a814:	4650      	mov	r0, sl
1000a816:	e7ef      	b.n	1000a7f8 <_strtol_l.part.0+0xc0>
1000a818:	f89e b000 	ldrb.w	fp, [lr]
1000a81c:	f105 0e02 	add.w	lr, r5, #2
1000a820:	b967      	cbnz	r7, 1000a83c <_strtol_l.part.0+0x104>
1000a822:	f1bb 0f30 	cmp.w	fp, #48	@ 0x30
1000a826:	d044      	beq.n	1000a8b2 <_strtol_l.part.0+0x17a>
1000a828:	2b00      	cmp	r3, #0
1000a82a:	d150      	bne.n	1000a8ce <_strtol_l.part.0+0x196>
1000a82c:	230a      	movs	r3, #10
1000a82e:	4e33      	ldr	r6, [pc, #204]	@ (1000a8fc <_strtol_l.part.0+0x1c4>)
1000a830:	2708      	movs	r7, #8
1000a832:	2401      	movs	r4, #1
1000a834:	4698      	mov	r8, r3
1000a836:	f04f 4a00 	mov.w	sl, #2147483648	@ 0x80000000
1000a83a:	e7b1      	b.n	1000a7a0 <_strtol_l.part.0+0x68>
1000a83c:	f04f 4a00 	mov.w	sl, #2147483648	@ 0x80000000
1000a840:	4698      	mov	r8, r3
1000a842:	2401      	movs	r4, #1
1000a844:	fbba f6f3 	udiv	r6, sl, r3
1000a848:	fb03 f706 	mul.w	r7, r3, r6
1000a84c:	ebaa 0707 	sub.w	r7, sl, r7
1000a850:	e7a6      	b.n	1000a7a0 <_strtol_l.part.0+0x68>
1000a852:	f1bb 0f30 	cmp.w	fp, #48	@ 0x30
1000a856:	d189      	bne.n	1000a76c <_strtol_l.part.0+0x34>
1000a858:	78a8      	ldrb	r0, [r5, #2]
1000a85a:	f000 00df 	and.w	r0, r0, #223	@ 0xdf
1000a85e:	2858      	cmp	r0, #88	@ 0x58
1000a860:	d11e      	bne.n	1000a8a0 <_strtol_l.part.0+0x168>
1000a862:	2310      	movs	r3, #16
1000a864:	f895 b003 	ldrb.w	fp, [r5, #3]
1000a868:	f105 0e04 	add.w	lr, r5, #4
1000a86c:	4698      	mov	r8, r3
1000a86e:	f06f 4700 	mvn.w	r7, #2147483648	@ 0x80000000
1000a872:	fbb7 f6f8 	udiv	r6, r7, r8
1000a876:	fb08 7716 	mls	r7, r8, r6, r7
1000a87a:	e77f      	b.n	1000a77c <_strtol_l.part.0+0x44>
1000a87c:	230a      	movs	r3, #10
1000a87e:	4e1f      	ldr	r6, [pc, #124]	@ (1000a8fc <_strtol_l.part.0+0x1c4>)
1000a880:	2707      	movs	r7, #7
1000a882:	4698      	mov	r8, r3
1000a884:	e77a      	b.n	1000a77c <_strtol_l.part.0+0x44>
1000a886:	f89e 0000 	ldrb.w	r0, [lr]
1000a88a:	f000 00df 	and.w	r0, r0, #223	@ 0xdf
1000a88e:	2858      	cmp	r0, #88	@ 0x58
1000a890:	d106      	bne.n	1000a8a0 <_strtol_l.part.0+0x168>
1000a892:	2310      	movs	r3, #16
1000a894:	f89e b001 	ldrb.w	fp, [lr, #1]
1000a898:	f105 0e03 	add.w	lr, r5, #3
1000a89c:	4698      	mov	r8, r3
1000a89e:	e7e6      	b.n	1000a86e <_strtol_l.part.0+0x136>
1000a8a0:	bb23      	cbnz	r3, 1000a8ec <_strtol_l.part.0+0x1b4>
1000a8a2:	2308      	movs	r3, #8
1000a8a4:	4698      	mov	r8, r3
1000a8a6:	e7e2      	b.n	1000a86e <_strtol_l.part.0+0x136>
1000a8a8:	4682      	mov	sl, r0
1000a8aa:	e7b1      	b.n	1000a810 <_strtol_l.part.0+0xd8>
1000a8ac:	4650      	mov	r0, sl
1000a8ae:	e8bd 8ff0 	ldmia.w	sp!, {r4, r5, r6, r7, r8, r9, sl, fp, pc}
1000a8b2:	78a8      	ldrb	r0, [r5, #2]
1000a8b4:	f000 00df 	and.w	r0, r0, #223	@ 0xdf
1000a8b8:	2858      	cmp	r0, #88	@ 0x58
1000a8ba:	d010      	beq.n	1000a8de <_strtol_l.part.0+0x1a6>
1000a8bc:	b1cb      	cbz	r3, 1000a8f2 <_strtol_l.part.0+0x1ba>
1000a8be:	2310      	movs	r3, #16
1000a8c0:	4698      	mov	r8, r3
1000a8c2:	f04f 4a00 	mov.w	sl, #2147483648	@ 0x80000000
1000a8c6:	2401      	movs	r4, #1
1000a8c8:	fbba f6f8 	udiv	r6, sl, r8
1000a8cc:	e768      	b.n	1000a7a0 <_strtol_l.part.0+0x68>
1000a8ce:	2310      	movs	r3, #16
1000a8d0:	f04f 6600 	mov.w	r6, #134217728	@ 0x8000000
1000a8d4:	2401      	movs	r4, #1
1000a8d6:	f04f 4a00 	mov.w	sl, #2147483648	@ 0x80000000
1000a8da:	4698      	mov	r8, r3
1000a8dc:	e760      	b.n	1000a7a0 <_strtol_l.part.0+0x68>
1000a8de:	2310      	movs	r3, #16
1000a8e0:	f895 b003 	ldrb.w	fp, [r5, #3]
1000a8e4:	f105 0e04 	add.w	lr, r5, #4
1000a8e8:	4698      	mov	r8, r3
1000a8ea:	e7ea      	b.n	1000a8c2 <_strtol_l.part.0+0x18a>
1000a8ec:	2310      	movs	r3, #16
1000a8ee:	4698      	mov	r8, r3
1000a8f0:	e7bd      	b.n	1000a86e <_strtol_l.part.0+0x136>
1000a8f2:	2308      	movs	r3, #8
1000a8f4:	4698      	mov	r8, r3
1000a8f6:	e7e4      	b.n	1000a8c2 <_strtol_l.part.0+0x18a>
1000a8f8:	1000ccb5 	.word	0x1000ccb5
1000a8fc:	0ccccccc 	.word	0x0ccccccc

1000a900 <_strtol_r>:
1000a900:	2b24      	cmp	r3, #36	@ 0x24
1000a902:	d803      	bhi.n	1000a90c <_strtol_r+0xc>
1000a904:	2b01      	cmp	r3, #1
1000a906:	d001      	beq.n	1000a90c <_strtol_r+0xc>
1000a908:	f7ff bf16 	b.w	1000a738 <_strtol_l.part.0>
1000a90c:	b510      	push	{r4, lr}
1000a90e:	f7fc fe79 	bl	10007604 <__errno>
1000a912:	2316      	movs	r3, #22
1000a914:	6003      	str	r3, [r0, #0]
1000a916:	2000      	movs	r0, #0
1000a918:	bd10      	pop	{r4, pc}
1000a91a:	bf00      	nop

1000a91c <__ascii_wctomb>:
1000a91c:	4603      	mov	r3, r0
1000a91e:	b149      	cbz	r1, 1000a934 <__ascii_wctomb+0x18>
1000a920:	2aff      	cmp	r2, #255	@ 0xff
1000a922:	d802      	bhi.n	1000a92a <__ascii_wctomb+0xe>
1000a924:	2001      	movs	r0, #1
1000a926:	700a      	strb	r2, [r1, #0]
1000a928:	4770      	bx	lr
1000a92a:	228a      	movs	r2, #138	@ 0x8a
1000a92c:	f04f 30ff 	mov.w	r0, #4294967295	@ 0xffffffff
1000a930:	601a      	str	r2, [r3, #0]
1000a932:	4770      	bx	lr
1000a934:	4608      	mov	r0, r1
1000a936:	4770      	bx	lr

1000a938 <_strtoll_l.isra.0>:
1000a938:	e92d 4ff0 	stmdb	sp!, {r4, r5, r6, r7, r8, r9, sl, fp, lr}
1000a93c:	461f      	mov	r7, r3
1000a93e:	b085      	sub	sp, #20
1000a940:	468b      	mov	fp, r1
1000a942:	460d      	mov	r5, r1
1000a944:	4ba8      	ldr	r3, [pc, #672]	@ (1000abe8 <_strtoll_l.isra.0+0x2b0>)
1000a946:	9003      	str	r0, [sp, #12]
1000a948:	9200      	str	r2, [sp, #0]
1000a94a:	462a      	mov	r2, r5
1000a94c:	f815 4b01 	ldrb.w	r4, [r5], #1
1000a950:	5d1e      	ldrb	r6, [r3, r4]
1000a952:	f016 0608 	ands.w	r6, r6, #8
1000a956:	d1f8      	bne.n	1000a94a <_strtoll_l.isra.0+0x12>
1000a958:	2c2d      	cmp	r4, #45	@ 0x2d
1000a95a:	f027 0910 	bic.w	r9, r7, #16
1000a95e:	f000 8090 	beq.w	1000aa82 <_strtoll_l.isra.0+0x14a>
1000a962:	2c2b      	cmp	r4, #43	@ 0x2b
1000a964:	d01a      	beq.n	1000a99c <_strtoll_l.isra.0+0x64>
1000a966:	f1b9 0f00 	cmp.w	r9, #0
1000a96a:	d11d      	bne.n	1000a9a8 <_strtoll_l.isra.0+0x70>
1000a96c:	2c30      	cmp	r4, #48	@ 0x30
1000a96e:	f000 80e9 	beq.w	1000ab44 <_strtoll_l.isra.0+0x20c>
1000a972:	2f00      	cmp	r7, #0
1000a974:	f000 80db 	beq.w	1000ab2e <_strtoll_l.isra.0+0x1f6>
1000a978:	f04f 0810 	mov.w	r8, #16
1000a97c:	46b2      	mov	sl, r6
1000a97e:	f06f 4c78 	mvn.w	ip, #4160749568	@ 0xf8000000
1000a982:	f04f 36ff 	mov.w	r6, #4294967295	@ 0xffffffff
1000a986:	f04f 090f 	mov.w	r9, #15
1000a98a:	4647      	mov	r7, r8
1000a98c:	2200      	movs	r2, #0
1000a98e:	f04f 33ff 	mov.w	r3, #4294967295	@ 0xffffffff
1000a992:	f06f 4e00 	mvn.w	lr, #2147483648	@ 0x80000000
1000a996:	e9cd 2301 	strd	r2, r3, [sp, #4]
1000a99a:	e021      	b.n	1000a9e0 <_strtoll_l.isra.0+0xa8>
1000a99c:	782c      	ldrb	r4, [r5, #0]
1000a99e:	1c95      	adds	r5, r2, #2
1000a9a0:	f1b9 0f00 	cmp.w	r9, #0
1000a9a4:	f000 80a1 	beq.w	1000aaea <_strtoll_l.isra.0+0x1b2>
1000a9a8:	ea4f 7ae7 	mov.w	sl, r7, asr #31
1000a9ac:	463a      	mov	r2, r7
1000a9ae:	f04f 30ff 	mov.w	r0, #4294967295	@ 0xffffffff
1000a9b2:	f06f 4100 	mvn.w	r1, #2147483648	@ 0x80000000
1000a9b6:	4653      	mov	r3, sl
1000a9b8:	46b8      	mov	r8, r7
1000a9ba:	f001 fbc1 	bl	1000c140 <____aeabi_uldivmod_veneer>
1000a9be:	4653      	mov	r3, sl
1000a9c0:	4691      	mov	r9, r2
1000a9c2:	f04f 30ff 	mov.w	r0, #4294967295	@ 0xffffffff
1000a9c6:	463a      	mov	r2, r7
1000a9c8:	f06f 4100 	mvn.w	r1, #2147483648	@ 0x80000000
1000a9cc:	f001 fbb8 	bl	1000c140 <____aeabi_uldivmod_veneer>
1000a9d0:	f04f 33ff 	mov.w	r3, #4294967295	@ 0xffffffff
1000a9d4:	9601      	str	r6, [sp, #4]
1000a9d6:	468c      	mov	ip, r1
1000a9d8:	4606      	mov	r6, r0
1000a9da:	f06f 4e00 	mvn.w	lr, #2147483648	@ 0x80000000
1000a9de:	9302      	str	r3, [sp, #8]
1000a9e0:	2200      	movs	r2, #0
1000a9e2:	4610      	mov	r0, r2
1000a9e4:	4611      	mov	r1, r2
1000a9e6:	e013      	b.n	1000aa10 <_strtoll_l.isra.0+0xd8>
1000a9e8:	f1a4 0337 	sub.w	r3, r4, #55	@ 0x37
1000a9ec:	42bb      	cmp	r3, r7
1000a9ee:	da1f      	bge.n	1000aa30 <_strtoll_l.isra.0+0xf8>
1000a9f0:	3201      	adds	r2, #1
1000a9f2:	d009      	beq.n	1000aa08 <_strtoll_l.isra.0+0xd0>
1000a9f4:	4286      	cmp	r6, r0
1000a9f6:	eb7c 0201 	sbcs.w	r2, ip, r1
1000a9fa:	d305      	bcc.n	1000aa08 <_strtoll_l.isra.0+0xd0>
1000a9fc:	4561      	cmp	r1, ip
1000a9fe:	bf08      	it	eq
1000aa00:	42b0      	cmpeq	r0, r6
1000aa02:	d127      	bne.n	1000aa54 <_strtoll_l.isra.0+0x11c>
1000aa04:	454b      	cmp	r3, r9
1000aa06:	dd25      	ble.n	1000aa54 <_strtoll_l.isra.0+0x11c>
1000aa08:	f04f 32ff 	mov.w	r2, #4294967295	@ 0xffffffff
1000aa0c:	f815 4b01 	ldrb.w	r4, [r5], #1
1000aa10:	f1a4 0330 	sub.w	r3, r4, #48	@ 0x30
1000aa14:	2b09      	cmp	r3, #9
1000aa16:	d9e9      	bls.n	1000a9ec <_strtoll_l.isra.0+0xb4>
1000aa18:	f1a4 0341 	sub.w	r3, r4, #65	@ 0x41
1000aa1c:	2b19      	cmp	r3, #25
1000aa1e:	d9e3      	bls.n	1000a9e8 <_strtoll_l.isra.0+0xb0>
1000aa20:	f1a4 0361 	sub.w	r3, r4, #97	@ 0x61
1000aa24:	2b19      	cmp	r3, #25
1000aa26:	d803      	bhi.n	1000aa30 <_strtoll_l.isra.0+0xf8>
1000aa28:	f1a4 0357 	sub.w	r3, r4, #87	@ 0x57
1000aa2c:	42bb      	cmp	r3, r7
1000aa2e:	dbdf      	blt.n	1000a9f0 <_strtoll_l.isra.0+0xb8>
1000aa30:	1c53      	adds	r3, r2, #1
1000aa32:	d01b      	beq.n	1000aa6c <_strtoll_l.isra.0+0x134>
1000aa34:	9b01      	ldr	r3, [sp, #4]
1000aa36:	b113      	cbz	r3, 1000aa3e <_strtoll_l.isra.0+0x106>
1000aa38:	4240      	negs	r0, r0
1000aa3a:	eb61 0141 	sbc.w	r1, r1, r1, lsl #1
1000aa3e:	9b00      	ldr	r3, [sp, #0]
1000aa40:	b12b      	cbz	r3, 1000aa4e <_strtoll_l.isra.0+0x116>
1000aa42:	2a00      	cmp	r2, #0
1000aa44:	f040 8090 	bne.w	1000ab68 <_strtoll_l.isra.0+0x230>
1000aa48:	9b00      	ldr	r3, [sp, #0]
1000aa4a:	f8c3 b000 	str.w	fp, [r3]
1000aa4e:	b005      	add	sp, #20
1000aa50:	e8bd 8ff0 	ldmia.w	sp!, {r4, r5, r6, r7, r8, r9, sl, fp, pc}
1000aa54:	fb00 f20a 	mul.w	r2, r0, sl
1000aa58:	fb08 2201 	mla	r2, r8, r1, r2
1000aa5c:	fba0 0108 	umull	r0, r1, r0, r8
1000aa60:	440a      	add	r2, r1
1000aa62:	1818      	adds	r0, r3, r0
1000aa64:	eb42 71e3 	adc.w	r1, r2, r3, asr #31
1000aa68:	2201      	movs	r2, #1
1000aa6a:	e7cf      	b.n	1000aa0c <_strtoll_l.isra.0+0xd4>
1000aa6c:	2322      	movs	r3, #34	@ 0x22
1000aa6e:	9a03      	ldr	r2, [sp, #12]
1000aa70:	6013      	str	r3, [r2, #0]
1000aa72:	9b00      	ldr	r3, [sp, #0]
1000aa74:	2b00      	cmp	r3, #0
1000aa76:	d07a      	beq.n	1000ab6e <_strtoll_l.isra.0+0x236>
1000aa78:	f105 3bff 	add.w	fp, r5, #4294967295	@ 0xffffffff
1000aa7c:	9802      	ldr	r0, [sp, #8]
1000aa7e:	4671      	mov	r1, lr
1000aa80:	e7e2      	b.n	1000aa48 <_strtoll_l.isra.0+0x110>
1000aa82:	782c      	ldrb	r4, [r5, #0]
1000aa84:	1c95      	adds	r5, r2, #2
1000aa86:	f1b9 0f00 	cmp.w	r9, #0
1000aa8a:	d114      	bne.n	1000aab6 <_strtoll_l.isra.0+0x17e>
1000aa8c:	2c30      	cmp	r4, #48	@ 0x30
1000aa8e:	d073      	beq.n	1000ab78 <_strtoll_l.isra.0+0x240>
1000aa90:	2f00      	cmp	r7, #0
1000aa92:	f040 808b 	bne.w	1000abac <_strtoll_l.isra.0+0x274>
1000aa96:	f04f 080a 	mov.w	r8, #10
1000aa9a:	2301      	movs	r3, #1
1000aa9c:	46ba      	mov	sl, r7
1000aa9e:	9602      	str	r6, [sp, #8]
1000aaa0:	f8df c148 	ldr.w	ip, [pc, #328]	@ 1000abec <_strtoll_l.isra.0+0x2b4>
1000aaa4:	f04f 36cc 	mov.w	r6, #3435973836	@ 0xcccccccc
1000aaa8:	f04f 0908 	mov.w	r9, #8
1000aaac:	4647      	mov	r7, r8
1000aaae:	f04f 4e00 	mov.w	lr, #2147483648	@ 0x80000000
1000aab2:	9301      	str	r3, [sp, #4]
1000aab4:	e794      	b.n	1000a9e0 <_strtoll_l.isra.0+0xa8>
1000aab6:	ea4f 7ae7 	mov.w	sl, r7, asr #31
1000aaba:	463a      	mov	r2, r7
1000aabc:	2000      	movs	r0, #0
1000aabe:	f04f 4100 	mov.w	r1, #2147483648	@ 0x80000000
1000aac2:	4653      	mov	r3, sl
1000aac4:	46b8      	mov	r8, r7
1000aac6:	f001 fb3b 	bl	1000c140 <____aeabi_uldivmod_veneer>
1000aaca:	4653      	mov	r3, sl
1000aacc:	4691      	mov	r9, r2
1000aace:	2000      	movs	r0, #0
1000aad0:	463a      	mov	r2, r7
1000aad2:	f04f 4100 	mov.w	r1, #2147483648	@ 0x80000000
1000aad6:	f001 fb33 	bl	1000c140 <____aeabi_uldivmod_veneer>
1000aada:	2301      	movs	r3, #1
1000aadc:	9602      	str	r6, [sp, #8]
1000aade:	468c      	mov	ip, r1
1000aae0:	4606      	mov	r6, r0
1000aae2:	f04f 4e00 	mov.w	lr, #2147483648	@ 0x80000000
1000aae6:	9301      	str	r3, [sp, #4]
1000aae8:	e77a      	b.n	1000a9e0 <_strtoll_l.isra.0+0xa8>
1000aaea:	2c30      	cmp	r4, #48	@ 0x30
1000aaec:	f47f af41 	bne.w	1000a972 <_strtoll_l.isra.0+0x3a>
1000aaf0:	7893      	ldrb	r3, [r2, #2]
1000aaf2:	f003 03df 	and.w	r3, r3, #223	@ 0xdf
1000aaf6:	2b58      	cmp	r3, #88	@ 0x58
1000aaf8:	d130      	bne.n	1000ab5c <_strtoll_l.isra.0+0x224>
1000aafa:	f04f 0810 	mov.w	r8, #16
1000aafe:	46ca      	mov	sl, r9
1000ab00:	78d4      	ldrb	r4, [r2, #3]
1000ab02:	1d15      	adds	r5, r2, #4
1000ab04:	4647      	mov	r7, r8
1000ab06:	4642      	mov	r2, r8
1000ab08:	4653      	mov	r3, sl
1000ab0a:	f04f 30ff 	mov.w	r0, #4294967295	@ 0xffffffff
1000ab0e:	f06f 4100 	mvn.w	r1, #2147483648	@ 0x80000000
1000ab12:	f001 fb15 	bl	1000c140 <____aeabi_uldivmod_veneer>
1000ab16:	4653      	mov	r3, sl
1000ab18:	4691      	mov	r9, r2
1000ab1a:	f04f 30ff 	mov.w	r0, #4294967295	@ 0xffffffff
1000ab1e:	4642      	mov	r2, r8
1000ab20:	f06f 4100 	mvn.w	r1, #2147483648	@ 0x80000000
1000ab24:	f001 fb0c 	bl	1000c140 <____aeabi_uldivmod_veneer>
1000ab28:	4606      	mov	r6, r0
1000ab2a:	468c      	mov	ip, r1
1000ab2c:	e72e      	b.n	1000a98c <_strtoll_l.isra.0+0x54>
1000ab2e:	f04f 080a 	mov.w	r8, #10
1000ab32:	46ba      	mov	sl, r7
1000ab34:	f04f 36cc 	mov.w	r6, #3435973836	@ 0xcccccccc
1000ab38:	f8df c0b0 	ldr.w	ip, [pc, #176]	@ 1000abec <_strtoll_l.isra.0+0x2b4>
1000ab3c:	f04f 0907 	mov.w	r9, #7
1000ab40:	4647      	mov	r7, r8
1000ab42:	e723      	b.n	1000a98c <_strtoll_l.isra.0+0x54>
1000ab44:	782b      	ldrb	r3, [r5, #0]
1000ab46:	f003 03df 	and.w	r3, r3, #223	@ 0xdf
1000ab4a:	2b58      	cmp	r3, #88	@ 0x58
1000ab4c:	d106      	bne.n	1000ab5c <_strtoll_l.isra.0+0x224>
1000ab4e:	f04f 0810 	mov.w	r8, #16
1000ab52:	786c      	ldrb	r4, [r5, #1]
1000ab54:	46ca      	mov	sl, r9
1000ab56:	1cd5      	adds	r5, r2, #3
1000ab58:	4647      	mov	r7, r8
1000ab5a:	e7d4      	b.n	1000ab06 <_strtoll_l.isra.0+0x1ce>
1000ab5c:	bbd7      	cbnz	r7, 1000abd4 <_strtoll_l.isra.0+0x29c>
1000ab5e:	f04f 0808 	mov.w	r8, #8
1000ab62:	46ba      	mov	sl, r7
1000ab64:	4647      	mov	r7, r8
1000ab66:	e7ce      	b.n	1000ab06 <_strtoll_l.isra.0+0x1ce>
1000ab68:	468e      	mov	lr, r1
1000ab6a:	9002      	str	r0, [sp, #8]
1000ab6c:	e784      	b.n	1000aa78 <_strtoll_l.isra.0+0x140>
1000ab6e:	9802      	ldr	r0, [sp, #8]
1000ab70:	4671      	mov	r1, lr
1000ab72:	b005      	add	sp, #20
1000ab74:	e8bd 8ff0 	ldmia.w	sp!, {r4, r5, r6, r7, r8, r9, sl, fp, pc}
1000ab78:	7893      	ldrb	r3, [r2, #2]
1000ab7a:	f003 03df 	and.w	r3, r3, #223	@ 0xdf
1000ab7e:	2b58      	cmp	r3, #88	@ 0x58
1000ab80:	d021      	beq.n	1000abc6 <_strtoll_l.isra.0+0x28e>
1000ab82:	b367      	cbz	r7, 1000abde <_strtoll_l.isra.0+0x2a6>
1000ab84:	f04f 0810 	mov.w	r8, #16
1000ab88:	46ca      	mov	sl, r9
1000ab8a:	4647      	mov	r7, r8
1000ab8c:	4653      	mov	r3, sl
1000ab8e:	4642      	mov	r2, r8
1000ab90:	2000      	movs	r0, #0
1000ab92:	f04f 4100 	mov.w	r1, #2147483648	@ 0x80000000
1000ab96:	f001 fad3 	bl	1000c140 <____aeabi_uldivmod_veneer>
1000ab9a:	2300      	movs	r3, #0
1000ab9c:	468c      	mov	ip, r1
1000ab9e:	2101      	movs	r1, #1
1000aba0:	4606      	mov	r6, r0
1000aba2:	f04f 4e00 	mov.w	lr, #2147483648	@ 0x80000000
1000aba6:	e9cd 1301 	strd	r1, r3, [sp, #4]
1000abaa:	e719      	b.n	1000a9e0 <_strtoll_l.isra.0+0xa8>
1000abac:	f04f 0810 	mov.w	r8, #16
1000abb0:	2301      	movs	r3, #1
1000abb2:	464e      	mov	r6, r9
1000abb4:	f04f 6c00 	mov.w	ip, #134217728	@ 0x8000000
1000abb8:	46ca      	mov	sl, r9
1000abba:	4647      	mov	r7, r8
1000abbc:	f04f 4e00 	mov.w	lr, #2147483648	@ 0x80000000
1000abc0:	e9cd 3901 	strd	r3, r9, [sp, #4]
1000abc4:	e70c      	b.n	1000a9e0 <_strtoll_l.isra.0+0xa8>
1000abc6:	f04f 0810 	mov.w	r8, #16
1000abca:	78d4      	ldrb	r4, [r2, #3]
1000abcc:	1d15      	adds	r5, r2, #4
1000abce:	46ca      	mov	sl, r9
1000abd0:	4647      	mov	r7, r8
1000abd2:	e7db      	b.n	1000ab8c <_strtoll_l.isra.0+0x254>
1000abd4:	f04f 0810 	mov.w	r8, #16
1000abd8:	46ca      	mov	sl, r9
1000abda:	4647      	mov	r7, r8
1000abdc:	e793      	b.n	1000ab06 <_strtoll_l.isra.0+0x1ce>
1000abde:	f04f 0808 	mov.w	r8, #8
1000abe2:	46ba      	mov	sl, r7
1000abe4:	4647      	mov	r7, r8
1000abe6:	e7d1      	b.n	1000ab8c <_strtoll_l.isra.0+0x254>
1000abe8:	1000ccb5 	.word	0x1000ccb5
1000abec:	0ccccccc 	.word	0x0ccccccc

1000abf0 <_strtoll_r>:
1000abf0:	f7ff bea2 	b.w	1000a938 <_strtoll_l.isra.0>

1000abf4 <_strtoull_l.isra.0>:
1000abf4:	e92d 4ff0 	stmdb	sp!, {r4, r5, r6, r7, r8, r9, sl, fp, lr}
1000abf8:	b085      	sub	sp, #20
1000abfa:	468b      	mov	fp, r1
1000abfc:	461e      	mov	r6, r3
1000abfe:	460d      	mov	r5, r1
1000ac00:	9201      	str	r2, [sp, #4]
1000ac02:	4a5c      	ldr	r2, [pc, #368]	@ (1000ad74 <_strtoull_l.isra.0+0x180>)
1000ac04:	9003      	str	r0, [sp, #12]
1000ac06:	4629      	mov	r1, r5
1000ac08:	f815 4b01 	ldrb.w	r4, [r5], #1
1000ac0c:	5d13      	ldrb	r3, [r2, r4]
1000ac0e:	f013 0308 	ands.w	r3, r3, #8
1000ac12:	d1f8      	bne.n	1000ac06 <_strtoull_l.isra.0+0x12>
1000ac14:	2c2d      	cmp	r4, #45	@ 0x2d
1000ac16:	f000 808c 	beq.w	1000ad32 <_strtoull_l.isra.0+0x13e>
1000ac1a:	2c2b      	cmp	r4, #43	@ 0x2b
1000ac1c:	d052      	beq.n	1000acc4 <_strtoull_l.isra.0+0xd0>
1000ac1e:	9302      	str	r3, [sp, #8]
1000ac20:	f036 0a10 	bics.w	sl, r6, #16
1000ac24:	d055      	beq.n	1000acd2 <_strtoull_l.isra.0+0xde>
1000ac26:	ea4f 7ae6 	mov.w	sl, r6, asr #31
1000ac2a:	4632      	mov	r2, r6
1000ac2c:	f04f 30ff 	mov.w	r0, #4294967295	@ 0xffffffff
1000ac30:	f04f 31ff 	mov.w	r1, #4294967295	@ 0xffffffff
1000ac34:	4653      	mov	r3, sl
1000ac36:	46b1      	mov	r9, r6
1000ac38:	f001 fa82 	bl	1000c140 <____aeabi_uldivmod_veneer>
1000ac3c:	4632      	mov	r2, r6
1000ac3e:	4607      	mov	r7, r0
1000ac40:	4688      	mov	r8, r1
1000ac42:	4653      	mov	r3, sl
1000ac44:	f04f 30ff 	mov.w	r0, #4294967295	@ 0xffffffff
1000ac48:	f04f 31ff 	mov.w	r1, #4294967295	@ 0xffffffff
1000ac4c:	f001 fa78 	bl	1000c140 <____aeabi_uldivmod_veneer>
1000ac50:	4694      	mov	ip, r2
1000ac52:	2200      	movs	r2, #0
1000ac54:	4610      	mov	r0, r2
1000ac56:	4611      	mov	r1, r2
1000ac58:	e013      	b.n	1000ac82 <_strtoull_l.isra.0+0x8e>
1000ac5a:	f1a4 0337 	sub.w	r3, r4, #55	@ 0x37
1000ac5e:	429e      	cmp	r6, r3
1000ac60:	dd1f      	ble.n	1000aca2 <_strtoull_l.isra.0+0xae>
1000ac62:	3201      	adds	r2, #1
1000ac64:	d009      	beq.n	1000ac7a <_strtoull_l.isra.0+0x86>
1000ac66:	4287      	cmp	r7, r0
1000ac68:	eb78 0201 	sbcs.w	r2, r8, r1
1000ac6c:	d305      	bcc.n	1000ac7a <_strtoull_l.isra.0+0x86>
1000ac6e:	4541      	cmp	r1, r8
1000ac70:	bf08      	it	eq
1000ac72:	42b8      	cmpeq	r0, r7
1000ac74:	d13b      	bne.n	1000acee <_strtoull_l.isra.0+0xfa>
1000ac76:	4563      	cmp	r3, ip
1000ac78:	dd39      	ble.n	1000acee <_strtoull_l.isra.0+0xfa>
1000ac7a:	f04f 32ff 	mov.w	r2, #4294967295	@ 0xffffffff
1000ac7e:	f815 4b01 	ldrb.w	r4, [r5], #1
1000ac82:	f1a4 0330 	sub.w	r3, r4, #48	@ 0x30
1000ac86:	2b09      	cmp	r3, #9
1000ac88:	d9e9      	bls.n	1000ac5e <_strtoull_l.isra.0+0x6a>
1000ac8a:	f1a4 0341 	sub.w	r3, r4, #65	@ 0x41
1000ac8e:	2b19      	cmp	r3, #25
1000ac90:	d9e3      	bls.n	1000ac5a <_strtoull_l.isra.0+0x66>
1000ac92:	f1a4 0361 	sub.w	r3, r4, #97	@ 0x61
1000ac96:	2b19      	cmp	r3, #25
1000ac98:	d803      	bhi.n	1000aca2 <_strtoull_l.isra.0+0xae>
1000ac9a:	f1a4 0357 	sub.w	r3, r4, #87	@ 0x57
1000ac9e:	429e      	cmp	r6, r3
1000aca0:	dcdf      	bgt.n	1000ac62 <_strtoull_l.isra.0+0x6e>
1000aca2:	1c53      	adds	r3, r2, #1
1000aca4:	d03a      	beq.n	1000ad1c <_strtoull_l.isra.0+0x128>
1000aca6:	9b02      	ldr	r3, [sp, #8]
1000aca8:	b113      	cbz	r3, 1000acb0 <_strtoull_l.isra.0+0xbc>
1000acaa:	4240      	negs	r0, r0
1000acac:	eb61 0141 	sbc.w	r1, r1, r1, lsl #1
1000acb0:	9b01      	ldr	r3, [sp, #4]
1000acb2:	b123      	cbz	r3, 1000acbe <_strtoull_l.isra.0+0xca>
1000acb4:	2a00      	cmp	r2, #0
1000acb6:	d139      	bne.n	1000ad2c <_strtoull_l.isra.0+0x138>
1000acb8:	9b01      	ldr	r3, [sp, #4]
1000acba:	f8c3 b000 	str.w	fp, [r3]
1000acbe:	b005      	add	sp, #20
1000acc0:	e8bd 8ff0 	ldmia.w	sp!, {r4, r5, r6, r7, r8, r9, sl, fp, pc}
1000acc4:	f036 0a10 	bics.w	sl, r6, #16
1000acc8:	782c      	ldrb	r4, [r5, #0]
1000acca:	9302      	str	r3, [sp, #8]
1000accc:	f101 0502 	add.w	r5, r1, #2
1000acd0:	d1a9      	bne.n	1000ac26 <_strtoull_l.isra.0+0x32>
1000acd2:	2c30      	cmp	r4, #48	@ 0x30
1000acd4:	d032      	beq.n	1000ad3c <_strtoull_l.isra.0+0x148>
1000acd6:	b9be      	cbnz	r6, 1000ad08 <_strtoull_l.isra.0+0x114>
1000acd8:	f04f 090a 	mov.w	r9, #10
1000acdc:	46b2      	mov	sl, r6
1000acde:	f04f 0c05 	mov.w	ip, #5
1000ace2:	f04f 3799 	mov.w	r7, #2576980377	@ 0x99999999
1000ace6:	f8df 8090 	ldr.w	r8, [pc, #144]	@ 1000ad78 <_strtoull_l.isra.0+0x184>
1000acea:	464e      	mov	r6, r9
1000acec:	e7b1      	b.n	1000ac52 <_strtoull_l.isra.0+0x5e>
1000acee:	fb00 f20a 	mul.w	r2, r0, sl
1000acf2:	fb09 2201 	mla	r2, r9, r1, r2
1000acf6:	fba0 0109 	umull	r0, r1, r0, r9
1000acfa:	440a      	add	r2, r1
1000acfc:	1818      	adds	r0, r3, r0
1000acfe:	eb42 71e3 	adc.w	r1, r2, r3, asr #31
1000ad02:	2201      	movs	r2, #1
1000ad04:	e7bb      	b.n	1000ac7e <_strtoull_l.isra.0+0x8a>
1000ad06:	b356      	cbz	r6, 1000ad5e <_strtoull_l.isra.0+0x16a>
1000ad08:	f04f 0910 	mov.w	r9, #16
1000ad0c:	f04f 0c0f 	mov.w	ip, #15
1000ad10:	f04f 37ff 	mov.w	r7, #4294967295	@ 0xffffffff
1000ad14:	f06f 4870 	mvn.w	r8, #4026531840	@ 0xf0000000
1000ad18:	464e      	mov	r6, r9
1000ad1a:	e79a      	b.n	1000ac52 <_strtoull_l.isra.0+0x5e>
1000ad1c:	2322      	movs	r3, #34	@ 0x22
1000ad1e:	9903      	ldr	r1, [sp, #12]
1000ad20:	4610      	mov	r0, r2
1000ad22:	600b      	str	r3, [r1, #0]
1000ad24:	4611      	mov	r1, r2
1000ad26:	9b01      	ldr	r3, [sp, #4]
1000ad28:	2b00      	cmp	r3, #0
1000ad2a:	d0c8      	beq.n	1000acbe <_strtoull_l.isra.0+0xca>
1000ad2c:	f105 3bff 	add.w	fp, r5, #4294967295	@ 0xffffffff
1000ad30:	e7c2      	b.n	1000acb8 <_strtoull_l.isra.0+0xc4>
1000ad32:	2301      	movs	r3, #1
1000ad34:	782c      	ldrb	r4, [r5, #0]
1000ad36:	1c8d      	adds	r5, r1, #2
1000ad38:	9302      	str	r3, [sp, #8]
1000ad3a:	e771      	b.n	1000ac20 <_strtoull_l.isra.0+0x2c>
1000ad3c:	782b      	ldrb	r3, [r5, #0]
1000ad3e:	f003 03df 	and.w	r3, r3, #223	@ 0xdf
1000ad42:	2b58      	cmp	r3, #88	@ 0x58
1000ad44:	d1df      	bne.n	1000ad06 <_strtoull_l.isra.0+0x112>
1000ad46:	f04f 0910 	mov.w	r9, #16
1000ad4a:	786c      	ldrb	r4, [r5, #1]
1000ad4c:	f04f 0c0f 	mov.w	ip, #15
1000ad50:	3502      	adds	r5, #2
1000ad52:	f04f 37ff 	mov.w	r7, #4294967295	@ 0xffffffff
1000ad56:	f06f 4870 	mvn.w	r8, #4026531840	@ 0xf0000000
1000ad5a:	464e      	mov	r6, r9
1000ad5c:	e779      	b.n	1000ac52 <_strtoull_l.isra.0+0x5e>
1000ad5e:	f04f 0908 	mov.w	r9, #8
1000ad62:	46b2      	mov	sl, r6
1000ad64:	f04f 0c07 	mov.w	ip, #7
1000ad68:	f04f 37ff 	mov.w	r7, #4294967295	@ 0xffffffff
1000ad6c:	f06f 4860 	mvn.w	r8, #3758096384	@ 0xe0000000
1000ad70:	464e      	mov	r6, r9
1000ad72:	e76e      	b.n	1000ac52 <_strtoull_l.isra.0+0x5e>
1000ad74:	1000ccb5 	.word	0x1000ccb5
1000ad78:	19999999 	.word	0x19999999

1000ad7c <_strtoull_r>:
1000ad7c:	f7ff bf3a 	b.w	1000abf4 <_strtoull_l.isra.0>

1000ad80 <_mbrtowc_r>:
1000ad80:	b570      	push	{r4, r5, r6, lr}
1000ad82:	4c0d      	ldr	r4, [pc, #52]	@ (1000adb8 <_mbrtowc_r+0x38>)
1000ad84:	b082      	sub	sp, #8
1000ad86:	4605      	mov	r5, r0
1000ad88:	f8d4 60e4 	ldr.w	r6, [r4, #228]	@ 0xe4
1000ad8c:	9c06      	ldr	r4, [sp, #24]
1000ad8e:	b12a      	cbz	r2, 1000ad9c <_mbrtowc_r+0x1c>
1000ad90:	9400      	str	r4, [sp, #0]
1000ad92:	47b0      	blx	r6
1000ad94:	1c43      	adds	r3, r0, #1
1000ad96:	d008      	beq.n	1000adaa <_mbrtowc_r+0x2a>
1000ad98:	b002      	add	sp, #8
1000ad9a:	bd70      	pop	{r4, r5, r6, pc}
1000ad9c:	4611      	mov	r1, r2
1000ad9e:	2301      	movs	r3, #1
1000ada0:	4a06      	ldr	r2, [pc, #24]	@ (1000adbc <_mbrtowc_r+0x3c>)
1000ada2:	9400      	str	r4, [sp, #0]
1000ada4:	47b0      	blx	r6
1000ada6:	1c43      	adds	r3, r0, #1
1000ada8:	d1f6      	bne.n	1000ad98 <_mbrtowc_r+0x18>
1000adaa:	2200      	movs	r2, #0
1000adac:	238a      	movs	r3, #138	@ 0x8a
1000adae:	6022      	str	r2, [r4, #0]
1000adb0:	602b      	str	r3, [r5, #0]
1000adb2:	b002      	add	sp, #8
1000adb4:	bd70      	pop	{r4, r5, r6, pc}
1000adb6:	bf00      	nop
1000adb8:	20001400 	.word	0x20001400
1000adbc:	1000c438 	.word	0x1000c438

1000adc0 <iswspace>:
1000adc0:	2100      	movs	r1, #0
1000adc2:	f000 b801 	b.w	1000adc8 <iswspace_l>
1000adc6:	bf00      	nop

1000adc8 <iswspace_l>:
1000adc8:	28ff      	cmp	r0, #255	@ 0xff
1000adca:	d804      	bhi.n	1000add6 <iswspace_l+0xe>
1000adcc:	4b03      	ldr	r3, [pc, #12]	@ (1000addc <iswspace_l+0x14>)
1000adce:	5c18      	ldrb	r0, [r3, r0]
1000add0:	f000 0008 	and.w	r0, r0, #8
1000add4:	4770      	bx	lr
1000add6:	2000      	movs	r0, #0
1000add8:	4770      	bx	lr
1000adda:	bf00      	nop
1000addc:	1000ccb5 	.word	0x1000ccb5

1000ade0 <nan>:
1000ade0:	2000      	movs	r0, #0
1000ade2:	4901      	ldr	r1, [pc, #4]	@ (1000ade8 <nan+0x8>)
1000ade4:	4770      	bx	lr
1000ade6:	bf00      	nop
1000ade8:	7ff80000 	.word	0x7ff80000

1000adec <rshift>:
1000adec:	e92d 41f0 	stmdb	sp!, {r4, r5, r6, r7, r8, lr}
1000adf0:	6904      	ldr	r4, [r0, #16]
1000adf2:	ebb4 1f61 	cmp.w	r4, r1, asr #5
1000adf6:	dc05      	bgt.n	1000ae04 <rshift+0x18>
1000adf8:	2300      	movs	r3, #0
1000adfa:	6103      	str	r3, [r0, #16]
1000adfc:	2300      	movs	r3, #0
1000adfe:	6143      	str	r3, [r0, #20]
1000ae00:	e8bd 81f0 	ldmia.w	sp!, {r4, r5, r6, r7, r8, pc}
1000ae04:	f100 0c14 	add.w	ip, r0, #20
1000ae08:	114e      	asrs	r6, r1, #5
1000ae0a:	f011 0e1f 	ands.w	lr, r1, #31
1000ae0e:	eb0c 0584 	add.w	r5, ip, r4, lsl #2
1000ae12:	eb0c 0386 	add.w	r3, ip, r6, lsl #2
1000ae16:	d023      	beq.n	1000ae60 <rshift+0x74>
1000ae18:	3304      	adds	r3, #4
1000ae1a:	f85c 1026 	ldr.w	r1, [ip, r6, lsl #2]
1000ae1e:	f1ce 0820 	rsb	r8, lr, #32
1000ae22:	429d      	cmp	r5, r3
1000ae24:	fa21 f10e 	lsr.w	r1, r1, lr
1000ae28:	d930      	bls.n	1000ae8c <rshift+0xa0>
1000ae2a:	4667      	mov	r7, ip
1000ae2c:	681a      	ldr	r2, [r3, #0]
1000ae2e:	fa02 f208 	lsl.w	r2, r2, r8
1000ae32:	430a      	orrs	r2, r1
1000ae34:	f847 2b04 	str.w	r2, [r7], #4
1000ae38:	f853 1b04 	ldr.w	r1, [r3], #4
1000ae3c:	429d      	cmp	r5, r3
1000ae3e:	fa21 f10e 	lsr.w	r1, r1, lr
1000ae42:	d8f3      	bhi.n	1000ae2c <rshift+0x40>
1000ae44:	1ba3      	subs	r3, r4, r6
1000ae46:	f10c 0204 	add.w	r2, ip, #4
1000ae4a:	009b      	lsls	r3, r3, #2
1000ae4c:	3b05      	subs	r3, #5
1000ae4e:	089c      	lsrs	r4, r3, #2
1000ae50:	f023 0303 	bic.w	r3, r3, #3
1000ae54:	f842 1024 	str.w	r1, [r2, r4, lsl #2]
1000ae58:	4413      	add	r3, r2
1000ae5a:	b171      	cbz	r1, 1000ae7a <rshift+0x8e>
1000ae5c:	3304      	adds	r3, #4
1000ae5e:	e00c      	b.n	1000ae7a <rshift+0x8e>
1000ae60:	429d      	cmp	r5, r3
1000ae62:	d9c9      	bls.n	1000adf8 <rshift+0xc>
1000ae64:	f100 0210 	add.w	r2, r0, #16
1000ae68:	f853 1b04 	ldr.w	r1, [r3], #4
1000ae6c:	429d      	cmp	r5, r3
1000ae6e:	f842 1f04 	str.w	r1, [r2, #4]!
1000ae72:	d8f9      	bhi.n	1000ae68 <rshift+0x7c>
1000ae74:	1ba3      	subs	r3, r4, r6
1000ae76:	eb0c 0383 	add.w	r3, ip, r3, lsl #2
1000ae7a:	eba3 020c 	sub.w	r2, r3, ip
1000ae7e:	4563      	cmp	r3, ip
1000ae80:	ea4f 02a2 	mov.w	r2, r2, asr #2
1000ae84:	6102      	str	r2, [r0, #16]
1000ae86:	d0b9      	beq.n	1000adfc <rshift+0x10>
1000ae88:	e8bd 81f0 	ldmia.w	sp!, {r4, r5, r6, r7, r8, pc}
1000ae8c:	6141      	str	r1, [r0, #20]
1000ae8e:	2900      	cmp	r1, #0
1000ae90:	d0b2      	beq.n	1000adf8 <rshift+0xc>
1000ae92:	4663      	mov	r3, ip
1000ae94:	e7e2      	b.n	1000ae5c <rshift+0x70>
1000ae96:	bf00      	nop

1000ae98 <__gethex>:
1000ae98:	e92d 4ff0 	stmdb	sp!, {r4, r5, r6, r7, r8, r9, sl, fp, lr}
1000ae9c:	468a      	mov	sl, r1
1000ae9e:	b085      	sub	sp, #20
1000aea0:	6809      	ldr	r1, [r1, #0]
1000aea2:	9303      	str	r3, [sp, #12]
1000aea4:	788b      	ldrb	r3, [r1, #2]
1000aea6:	2b30      	cmp	r3, #48	@ 0x30
1000aea8:	e9cd 2000 	strd	r2, r0, [sp]
1000aeac:	f040 81f8 	bne.w	1000b2a0 <__gethex+0x408>
1000aeb0:	1cca      	adds	r2, r1, #3
1000aeb2:	7813      	ldrb	r3, [r2, #0]
1000aeb4:	4614      	mov	r4, r2
1000aeb6:	3201      	adds	r2, #1
1000aeb8:	2b30      	cmp	r3, #48	@ 0x30
1000aeba:	d0fa      	beq.n	1000aeb2 <__gethex+0x1a>
1000aebc:	eba4 0901 	sub.w	r9, r4, r1
1000aec0:	f1a9 0902 	sub.w	r9, r9, #2
1000aec4:	f8df 830c 	ldr.w	r8, [pc, #780]	@ 1000b1d4 <__gethex+0x33c>
1000aec8:	f818 3003 	ldrb.w	r3, [r8, r3]
1000aecc:	2b00      	cmp	r3, #0
1000aece:	f000 80d3 	beq.w	1000b078 <__gethex+0x1e0>
1000aed2:	7823      	ldrb	r3, [r4, #0]
1000aed4:	2700      	movs	r7, #0
1000aed6:	f818 3003 	ldrb.w	r3, [r8, r3]
1000aeda:	463d      	mov	r5, r7
1000aedc:	2b00      	cmp	r3, #0
1000aede:	f000 816a 	beq.w	1000b1b6 <__gethex+0x31e>
1000aee2:	4626      	mov	r6, r4
1000aee4:	f816 3f01 	ldrb.w	r3, [r6, #1]!
1000aee8:	f818 3003 	ldrb.w	r3, [r8, r3]
1000aeec:	2b00      	cmp	r3, #0
1000aeee:	d1f9      	bne.n	1000aee4 <__gethex+0x4c>
1000aef0:	2201      	movs	r2, #1
1000aef2:	49b7      	ldr	r1, [pc, #732]	@ (1000b1d0 <__gethex+0x338>)
1000aef4:	4630      	mov	r0, r6
1000aef6:	f7fc fb39 	bl	1000756c <strncmp>
1000aefa:	4683      	mov	fp, r0
1000aefc:	2800      	cmp	r0, #0
1000aefe:	d043      	beq.n	1000af88 <__gethex+0xf0>
1000af00:	7832      	ldrb	r2, [r6, #0]
1000af02:	2d00      	cmp	r5, #0
1000af04:	f000 81a2 	beq.w	1000b24c <__gethex+0x3b4>
1000af08:	1bab      	subs	r3, r5, r6
1000af0a:	ea4f 0b83 	mov.w	fp, r3, lsl #2
1000af0e:	f002 02df 	and.w	r2, r2, #223	@ 0xdf
1000af12:	4635      	mov	r5, r6
1000af14:	2a50      	cmp	r2, #80	@ 0x50
1000af16:	d043      	beq.n	1000afa0 <__gethex+0x108>
1000af18:	f8ca 6000 	str.w	r6, [sl]
1000af1c:	2f00      	cmp	r7, #0
1000af1e:	d154      	bne.n	1000afca <__gethex+0x132>
1000af20:	1b2a      	subs	r2, r5, r4
1000af22:	4639      	mov	r1, r7
1000af24:	3a01      	subs	r2, #1
1000af26:	2a07      	cmp	r2, #7
1000af28:	dd03      	ble.n	1000af32 <__gethex+0x9a>
1000af2a:	1052      	asrs	r2, r2, #1
1000af2c:	3101      	adds	r1, #1
1000af2e:	2a07      	cmp	r2, #7
1000af30:	dcfb      	bgt.n	1000af2a <__gethex+0x92>
1000af32:	9801      	ldr	r0, [sp, #4]
1000af34:	f000 fbb0 	bl	1000b698 <_Balloc>
1000af38:	4682      	mov	sl, r0
1000af3a:	2800      	cmp	r0, #0
1000af3c:	f000 82a5 	beq.w	1000b48a <__gethex+0x5f2>
1000af40:	f100 0614 	add.w	r6, r0, #20
1000af44:	42ac      	cmp	r4, r5
1000af46:	9602      	str	r6, [sp, #8]
1000af48:	f080 81e3 	bcs.w	1000b312 <__gethex+0x47a>
1000af4c:	2700      	movs	r7, #0
1000af4e:	46b9      	mov	r9, r7
1000af50:	e00c      	b.n	1000af6c <__gethex+0xd4>
1000af52:	463a      	mov	r2, r7
1000af54:	3704      	adds	r7, #4
1000af56:	782b      	ldrb	r3, [r5, #0]
1000af58:	42a5      	cmp	r5, r4
1000af5a:	f818 3003 	ldrb.w	r3, [r8, r3]
1000af5e:	f003 030f 	and.w	r3, r3, #15
1000af62:	fa03 f302 	lsl.w	r3, r3, r2
1000af66:	ea49 0903 	orr.w	r9, r9, r3
1000af6a:	d040      	beq.n	1000afee <__gethex+0x156>
1000af6c:	f815 3d01 	ldrb.w	r3, [r5, #-1]!
1000af70:	2b2e      	cmp	r3, #46	@ 0x2e
1000af72:	d101      	bne.n	1000af78 <__gethex+0xe0>
1000af74:	42a5      	cmp	r5, r4
1000af76:	d231      	bcs.n	1000afdc <__gethex+0x144>
1000af78:	2f20      	cmp	r7, #32
1000af7a:	d1ea      	bne.n	1000af52 <__gethex+0xba>
1000af7c:	2200      	movs	r2, #0
1000af7e:	f846 9b04 	str.w	r9, [r6], #4
1000af82:	2704      	movs	r7, #4
1000af84:	4691      	mov	r9, r2
1000af86:	e7e6      	b.n	1000af56 <__gethex+0xbe>
1000af88:	2d00      	cmp	r5, #0
1000af8a:	f000 817a 	beq.w	1000b282 <__gethex+0x3ea>
1000af8e:	7832      	ldrb	r2, [r6, #0]
1000af90:	1bab      	subs	r3, r5, r6
1000af92:	4635      	mov	r5, r6
1000af94:	f002 02df 	and.w	r2, r2, #223	@ 0xdf
1000af98:	ea4f 0b83 	mov.w	fp, r3, lsl #2
1000af9c:	2a50      	cmp	r2, #80	@ 0x50
1000af9e:	d1bb      	bne.n	1000af18 <__gethex+0x80>
1000afa0:	786a      	ldrb	r2, [r5, #1]
1000afa2:	2a2b      	cmp	r2, #43	@ 0x2b
1000afa4:	f000 8150 	beq.w	1000b248 <__gethex+0x3b0>
1000afa8:	2a2d      	cmp	r2, #45	@ 0x2d
1000afaa:	f040 80d6 	bne.w	1000b15a <__gethex+0x2c2>
1000afae:	2001      	movs	r0, #1
1000afb0:	78aa      	ldrb	r2, [r5, #2]
1000afb2:	1cae      	adds	r6, r5, #2
1000afb4:	f818 1002 	ldrb.w	r1, [r8, r2]
1000afb8:	1e4a      	subs	r2, r1, #1
1000afba:	2a18      	cmp	r2, #24
1000afbc:	f240 80d5 	bls.w	1000b16a <__gethex+0x2d2>
1000afc0:	462e      	mov	r6, r5
1000afc2:	f8ca 6000 	str.w	r6, [sl]
1000afc6:	2f00      	cmp	r7, #0
1000afc8:	d0aa      	beq.n	1000af20 <__gethex+0x88>
1000afca:	f1b9 0f00 	cmp.w	r9, #0
1000afce:	bf0c      	ite	eq
1000afd0:	2406      	moveq	r4, #6
1000afd2:	2400      	movne	r4, #0
1000afd4:	4620      	mov	r0, r4
1000afd6:	b005      	add	sp, #20
1000afd8:	e8bd 8ff0 	ldmia.w	sp!, {r4, r5, r6, r7, r8, r9, sl, fp, pc}
1000afdc:	2201      	movs	r2, #1
1000afde:	497c      	ldr	r1, [pc, #496]	@ (1000b1d0 <__gethex+0x338>)
1000afe0:	4628      	mov	r0, r5
1000afe2:	f7fc fac3 	bl	1000756c <strncmp>
1000afe6:	2800      	cmp	r0, #0
1000afe8:	d1c6      	bne.n	1000af78 <__gethex+0xe0>
1000afea:	42a5      	cmp	r5, r4
1000afec:	d1be      	bne.n	1000af6c <__gethex+0xd4>
1000afee:	9b02      	ldr	r3, [sp, #8]
1000aff0:	4648      	mov	r0, r9
1000aff2:	f846 9b04 	str.w	r9, [r6], #4
1000aff6:	1af6      	subs	r6, r6, r3
1000aff8:	10b6      	asrs	r6, r6, #2
1000affa:	f8ca 6010 	str.w	r6, [sl, #16]
1000affe:	0176      	lsls	r6, r6, #5
1000b000:	f000 fc24 	bl	1000b84c <__hi0bits>
1000b004:	9b00      	ldr	r3, [sp, #0]
1000b006:	1a36      	subs	r6, r6, r0
1000b008:	681d      	ldr	r5, [r3, #0]
1000b00a:	42ae      	cmp	r6, r5
1000b00c:	dc57      	bgt.n	1000b0be <__gethex+0x226>
1000b00e:	f2c0 811f 	blt.w	1000b250 <__gethex+0x3b8>
1000b012:	9b00      	ldr	r3, [sp, #0]
1000b014:	689a      	ldr	r2, [r3, #8]
1000b016:	455a      	cmp	r2, fp
1000b018:	f2c0 810d 	blt.w	1000b236 <__gethex+0x39e>
1000b01c:	685a      	ldr	r2, [r3, #4]
1000b01e:	4593      	cmp	fp, r2
1000b020:	f280 80be 	bge.w	1000b1a0 <__gethex+0x308>
1000b024:	eba2 0b0b 	sub.w	fp, r2, fp
1000b028:	45ab      	cmp	fp, r5
1000b02a:	da73      	bge.n	1000b114 <__gethex+0x27c>
1000b02c:	f10b 36ff 	add.w	r6, fp, #4294967295	@ 0xffffffff
1000b030:	2e00      	cmp	r6, #0
1000b032:	f040 8181 	bne.w	1000b338 <__gethex+0x4a0>
1000b036:	4637      	mov	r7, r6
1000b038:	1173      	asrs	r3, r6, #5
1000b03a:	9a02      	ldr	r2, [sp, #8]
1000b03c:	f006 061f 	and.w	r6, r6, #31
1000b040:	eba5 050b 	sub.w	r5, r5, fp
1000b044:	f852 2023 	ldr.w	r2, [r2, r3, lsl #2]
1000b048:	2301      	movs	r3, #1
1000b04a:	4659      	mov	r1, fp
1000b04c:	4650      	mov	r0, sl
1000b04e:	40b3      	lsls	r3, r6
1000b050:	4213      	tst	r3, r2
1000b052:	f000 8180 	beq.w	1000b356 <__gethex+0x4be>
1000b056:	f7ff fec9 	bl	1000adec <rshift>
1000b05a:	9b00      	ldr	r3, [sp, #0]
1000b05c:	68dc      	ldr	r4, [r3, #12]
1000b05e:	f8d3 b004 	ldr.w	fp, [r3, #4]
1000b062:	2c02      	cmp	r4, #2
1000b064:	f000 812f 	beq.w	1000b2c6 <__gethex+0x42e>
1000b068:	2c03      	cmp	r4, #3
1000b06a:	f000 818f 	beq.w	1000b38c <__gethex+0x4f4>
1000b06e:	2c01      	cmp	r4, #1
1000b070:	f000 8188 	beq.w	1000b384 <__gethex+0x4ec>
1000b074:	2412      	movs	r4, #18
1000b076:	e094      	b.n	1000b1a2 <__gethex+0x30a>
1000b078:	2201      	movs	r2, #1
1000b07a:	4955      	ldr	r1, [pc, #340]	@ (1000b1d0 <__gethex+0x338>)
1000b07c:	4620      	mov	r0, r4
1000b07e:	f7fc fa75 	bl	1000756c <strncmp>
1000b082:	4607      	mov	r7, r0
1000b084:	2800      	cmp	r0, #0
1000b086:	f040 8098 	bne.w	1000b1ba <__gethex+0x322>
1000b08a:	7863      	ldrb	r3, [r4, #1]
1000b08c:	1c65      	adds	r5, r4, #1
1000b08e:	f818 2003 	ldrb.w	r2, [r8, r3]
1000b092:	2a00      	cmp	r2, #0
1000b094:	f000 8093 	beq.w	1000b1be <__gethex+0x326>
1000b098:	2b30      	cmp	r3, #48	@ 0x30
1000b09a:	462c      	mov	r4, r5
1000b09c:	f040 8178 	bne.w	1000b390 <__gethex+0x4f8>
1000b0a0:	f814 3f01 	ldrb.w	r3, [r4, #1]!
1000b0a4:	2b30      	cmp	r3, #48	@ 0x30
1000b0a6:	d0fb      	beq.n	1000b0a0 <__gethex+0x208>
1000b0a8:	f818 3003 	ldrb.w	r3, [r8, r3]
1000b0ac:	f04f 0901 	mov.w	r9, #1
1000b0b0:	fab3 f783 	clz	r7, r3
1000b0b4:	097f      	lsrs	r7, r7, #5
1000b0b6:	2b00      	cmp	r3, #0
1000b0b8:	f47f af13 	bne.w	1000aee2 <__gethex+0x4a>
1000b0bc:	e07b      	b.n	1000b1b6 <__gethex+0x31e>
1000b0be:	1b76      	subs	r6, r6, r5
1000b0c0:	4650      	mov	r0, sl
1000b0c2:	4631      	mov	r1, r6
1000b0c4:	f000 fffa 	bl	1000c0bc <__any_on>
1000b0c8:	4607      	mov	r7, r0
1000b0ca:	b178      	cbz	r0, 1000b0ec <__gethex+0x254>
1000b0cc:	1e71      	subs	r1, r6, #1
1000b0ce:	9b02      	ldr	r3, [sp, #8]
1000b0d0:	2701      	movs	r7, #1
1000b0d2:	114a      	asrs	r2, r1, #5
1000b0d4:	f853 0022 	ldr.w	r0, [r3, r2, lsl #2]
1000b0d8:	f001 021f 	and.w	r2, r1, #31
1000b0dc:	fa07 f202 	lsl.w	r2, r7, r2
1000b0e0:	4202      	tst	r2, r0
1000b0e2:	d003      	beq.n	1000b0ec <__gethex+0x254>
1000b0e4:	42b9      	cmp	r1, r7
1000b0e6:	f300 812d 	bgt.w	1000b344 <__gethex+0x4ac>
1000b0ea:	2702      	movs	r7, #2
1000b0ec:	4631      	mov	r1, r6
1000b0ee:	4650      	mov	r0, sl
1000b0f0:	f7ff fe7c 	bl	1000adec <rshift>
1000b0f4:	9b00      	ldr	r3, [sp, #0]
1000b0f6:	44b3      	add	fp, r6
1000b0f8:	689a      	ldr	r2, [r3, #8]
1000b0fa:	455a      	cmp	r2, fp
1000b0fc:	f2c0 809b 	blt.w	1000b236 <__gethex+0x39e>
1000b100:	9b00      	ldr	r3, [sp, #0]
1000b102:	685a      	ldr	r2, [r3, #4]
1000b104:	455a      	cmp	r2, fp
1000b106:	f340 80cf 	ble.w	1000b2a8 <__gethex+0x410>
1000b10a:	eba2 0b0b 	sub.w	fp, r2, fp
1000b10e:	455d      	cmp	r5, fp
1000b110:	f300 8103 	bgt.w	1000b31a <__gethex+0x482>
1000b114:	9b00      	ldr	r3, [sp, #0]
1000b116:	68db      	ldr	r3, [r3, #12]
1000b118:	2b02      	cmp	r3, #2
1000b11a:	d05d      	beq.n	1000b1d8 <__gethex+0x340>
1000b11c:	2b03      	cmp	r3, #3
1000b11e:	f000 8125 	beq.w	1000b36c <__gethex+0x4d4>
1000b122:	2b01      	cmp	r3, #1
1000b124:	d15b      	bne.n	1000b1de <__gethex+0x346>
1000b126:	45ab      	cmp	fp, r5
1000b128:	d159      	bne.n	1000b1de <__gethex+0x346>
1000b12a:	f1bb 0f01 	cmp.w	fp, #1
1000b12e:	d008      	beq.n	1000b142 <__gethex+0x2aa>
1000b130:	f10b 31ff 	add.w	r1, fp, #4294967295	@ 0xffffffff
1000b134:	4650      	mov	r0, sl
1000b136:	f000 ffc1 	bl	1000c0bc <__any_on>
1000b13a:	2800      	cmp	r0, #0
1000b13c:	d04f      	beq.n	1000b1de <__gethex+0x346>
1000b13e:	9b00      	ldr	r3, [sp, #0]
1000b140:	685a      	ldr	r2, [r3, #4]
1000b142:	9903      	ldr	r1, [sp, #12]
1000b144:	2301      	movs	r3, #1
1000b146:	2462      	movs	r4, #98	@ 0x62
1000b148:	600a      	str	r2, [r1, #0]
1000b14a:	9a02      	ldr	r2, [sp, #8]
1000b14c:	f8ca 3010 	str.w	r3, [sl, #16]
1000b150:	6013      	str	r3, [r2, #0]
1000b152:	9b0e      	ldr	r3, [sp, #56]	@ 0x38
1000b154:	f8c3 a000 	str.w	sl, [r3]
1000b158:	e73c      	b.n	1000afd4 <__gethex+0x13c>
1000b15a:	f818 1002 	ldrb.w	r1, [r8, r2]
1000b15e:	1c6e      	adds	r6, r5, #1
1000b160:	2000      	movs	r0, #0
1000b162:	1e4a      	subs	r2, r1, #1
1000b164:	2a18      	cmp	r2, #24
1000b166:	f63f af2b 	bhi.w	1000afc0 <__gethex+0x128>
1000b16a:	7872      	ldrb	r2, [r6, #1]
1000b16c:	3910      	subs	r1, #16
1000b16e:	3601      	adds	r6, #1
1000b170:	f818 2002 	ldrb.w	r2, [r8, r2]
1000b174:	f102 3cff 	add.w	ip, r2, #4294967295	@ 0xffffffff
1000b178:	f1bc 0f18 	cmp.w	ip, #24
1000b17c:	d80c      	bhi.n	1000b198 <__gethex+0x300>
1000b17e:	eb01 0181 	add.w	r1, r1, r1, lsl #2
1000b182:	f816 3f01 	ldrb.w	r3, [r6, #1]!
1000b186:	eb02 0241 	add.w	r2, r2, r1, lsl #1
1000b18a:	f1a2 0110 	sub.w	r1, r2, #16
1000b18e:	f818 2003 	ldrb.w	r2, [r8, r3]
1000b192:	1e53      	subs	r3, r2, #1
1000b194:	2b18      	cmp	r3, #24
1000b196:	d9f2      	bls.n	1000b17e <__gethex+0x2e6>
1000b198:	b100      	cbz	r0, 1000b19c <__gethex+0x304>
1000b19a:	4249      	negs	r1, r1
1000b19c:	448b      	add	fp, r1
1000b19e:	e6bb      	b.n	1000af18 <__gethex+0x80>
1000b1a0:	2401      	movs	r4, #1
1000b1a2:	9b0e      	ldr	r3, [sp, #56]	@ 0x38
1000b1a4:	4620      	mov	r0, r4
1000b1a6:	f8c3 a000 	str.w	sl, [r3]
1000b1aa:	9b03      	ldr	r3, [sp, #12]
1000b1ac:	f8c3 b000 	str.w	fp, [r3]
1000b1b0:	b005      	add	sp, #20
1000b1b2:	e8bd 8ff0 	ldmia.w	sp!, {r4, r5, r6, r7, r8, r9, sl, fp, pc}
1000b1b6:	4626      	mov	r6, r4
1000b1b8:	e69a      	b.n	1000aef0 <__gethex+0x58>
1000b1ba:	7823      	ldrb	r3, [r4, #0]
1000b1bc:	4625      	mov	r5, r4
1000b1be:	f003 03df 	and.w	r3, r3, #223	@ 0xdf
1000b1c2:	2b50      	cmp	r3, #80	@ 0x50
1000b1c4:	f000 80ce 	beq.w	1000b364 <__gethex+0x4cc>
1000b1c8:	f8ca 5000 	str.w	r5, [sl]
1000b1cc:	e6fd      	b.n	1000afca <__gethex+0x132>
1000b1ce:	bf00      	nop
1000b1d0:	1000c938 	.word	0x1000c938
1000b1d4:	1000ce30 	.word	0x1000ce30
1000b1d8:	9b0f      	ldr	r3, [sp, #60]	@ 0x3c
1000b1da:	2b00      	cmp	r3, #0
1000b1dc:	d0b1      	beq.n	1000b142 <__gethex+0x2aa>
1000b1de:	2450      	movs	r4, #80	@ 0x50
1000b1e0:	9801      	ldr	r0, [sp, #4]
1000b1e2:	4651      	mov	r1, sl
1000b1e4:	f000 fa7e 	bl	1000b6e4 <_Bfree>
1000b1e8:	2300      	movs	r3, #0
1000b1ea:	9a0e      	ldr	r2, [sp, #56]	@ 0x38
1000b1ec:	4620      	mov	r0, r4
1000b1ee:	6013      	str	r3, [r2, #0]
1000b1f0:	b005      	add	sp, #20
1000b1f2:	e8bd 8ff0 	ldmia.w	sp!, {r4, r5, r6, r7, r8, r9, sl, fp, pc}
1000b1f6:	f8da 2008 	ldr.w	r2, [sl, #8]
1000b1fa:	4297      	cmp	r7, r2
1000b1fc:	f280 80cb 	bge.w	1000b396 <__gethex+0x4fe>
1000b200:	1c7a      	adds	r2, r7, #1
1000b202:	2101      	movs	r1, #1
1000b204:	eb0a 0787 	add.w	r7, sl, r7, lsl #2
1000b208:	2c02      	cmp	r4, #2
1000b20a:	f8ca 2010 	str.w	r2, [sl, #16]
1000b20e:	f8dd 8008 	ldr.w	r8, [sp, #8]
1000b212:	6179      	str	r1, [r7, #20]
1000b214:	f000 80af 	beq.w	1000b376 <__gethex+0x4de>
1000b218:	2a00      	cmp	r2, #0
1000b21a:	f300 80e2 	bgt.w	1000b3e2 <__gethex+0x54a>
1000b21e:	2200      	movs	r2, #0
1000b220:	f8ca 2010 	str.w	r2, [sl, #16]
1000b224:	2200      	movs	r2, #0
1000b226:	f8ca 2014 	str.w	r2, [sl, #20]
1000b22a:	9b00      	ldr	r3, [sp, #0]
1000b22c:	f10b 0b01 	add.w	fp, fp, #1
1000b230:	689a      	ldr	r2, [r3, #8]
1000b232:	455a      	cmp	r2, fp
1000b234:	da6b      	bge.n	1000b30e <__gethex+0x476>
1000b236:	4651      	mov	r1, sl
1000b238:	9801      	ldr	r0, [sp, #4]
1000b23a:	f000 fa53 	bl	1000b6e4 <_Bfree>
1000b23e:	2300      	movs	r3, #0
1000b240:	9a0e      	ldr	r2, [sp, #56]	@ 0x38
1000b242:	24a3      	movs	r4, #163	@ 0xa3
1000b244:	6013      	str	r3, [r2, #0]
1000b246:	e6c5      	b.n	1000afd4 <__gethex+0x13c>
1000b248:	2000      	movs	r0, #0
1000b24a:	e6b1      	b.n	1000afb0 <__gethex+0x118>
1000b24c:	46ab      	mov	fp, r5
1000b24e:	e65e      	b.n	1000af0e <__gethex+0x76>
1000b250:	1bae      	subs	r6, r5, r6
1000b252:	4651      	mov	r1, sl
1000b254:	9801      	ldr	r0, [sp, #4]
1000b256:	4632      	mov	r2, r6
1000b258:	ebab 0b06 	sub.w	fp, fp, r6
1000b25c:	f000 fca2 	bl	1000bba4 <__lshift>
1000b260:	9b00      	ldr	r3, [sp, #0]
1000b262:	4682      	mov	sl, r0
1000b264:	689a      	ldr	r2, [r3, #8]
1000b266:	4593      	cmp	fp, r2
1000b268:	dce5      	bgt.n	1000b236 <__gethex+0x39e>
1000b26a:	685a      	ldr	r2, [r3, #4]
1000b26c:	4593      	cmp	fp, r2
1000b26e:	da97      	bge.n	1000b1a0 <__gethex+0x308>
1000b270:	eba2 0b0b 	sub.w	fp, r2, fp
1000b274:	f100 0314 	add.w	r3, r0, #20
1000b278:	45ab      	cmp	fp, r5
1000b27a:	9302      	str	r3, [sp, #8]
1000b27c:	f6bf af4a 	bge.w	1000b114 <__gethex+0x27c>
1000b280:	e6d4      	b.n	1000b02c <__gethex+0x194>
1000b282:	7872      	ldrb	r2, [r6, #1]
1000b284:	1c75      	adds	r5, r6, #1
1000b286:	f818 1002 	ldrb.w	r1, [r8, r2]
1000b28a:	462e      	mov	r6, r5
1000b28c:	2900      	cmp	r1, #0
1000b28e:	f43f ae3e 	beq.w	1000af0e <__gethex+0x76>
1000b292:	f816 2f01 	ldrb.w	r2, [r6, #1]!
1000b296:	f818 3002 	ldrb.w	r3, [r8, r2]
1000b29a:	2b00      	cmp	r3, #0
1000b29c:	d1f9      	bne.n	1000b292 <__gethex+0x3fa>
1000b29e:	e633      	b.n	1000af08 <__gethex+0x70>
1000b2a0:	1c8c      	adds	r4, r1, #2
1000b2a2:	f04f 0900 	mov.w	r9, #0
1000b2a6:	e60d      	b.n	1000aec4 <__gethex+0x2c>
1000b2a8:	2401      	movs	r4, #1
1000b2aa:	2f00      	cmp	r7, #0
1000b2ac:	f43f af79 	beq.w	1000b1a2 <__gethex+0x30a>
1000b2b0:	9b00      	ldr	r3, [sp, #0]
1000b2b2:	68da      	ldr	r2, [r3, #12]
1000b2b4:	2a02      	cmp	r2, #2
1000b2b6:	d006      	beq.n	1000b2c6 <__gethex+0x42e>
1000b2b8:	2a03      	cmp	r2, #3
1000b2ba:	d008      	beq.n	1000b2ce <__gethex+0x436>
1000b2bc:	2a01      	cmp	r2, #1
1000b2be:	d033      	beq.n	1000b328 <__gethex+0x490>
1000b2c0:	f044 0410 	orr.w	r4, r4, #16
1000b2c4:	e76d      	b.n	1000b1a2 <__gethex+0x30a>
1000b2c6:	9b0f      	ldr	r3, [sp, #60]	@ 0x3c
1000b2c8:	f1c3 0301 	rsb	r3, r3, #1
1000b2cc:	930f      	str	r3, [sp, #60]	@ 0x3c
1000b2ce:	9b0f      	ldr	r3, [sp, #60]	@ 0x3c
1000b2d0:	2b00      	cmp	r3, #0
1000b2d2:	d0f5      	beq.n	1000b2c0 <__gethex+0x428>
1000b2d4:	9b02      	ldr	r3, [sp, #8]
1000b2d6:	2600      	movs	r6, #0
1000b2d8:	f8da 7010 	ldr.w	r7, [sl, #16]
1000b2dc:	4698      	mov	r8, r3
1000b2de:	461a      	mov	r2, r3
1000b2e0:	ea4f 0987 	mov.w	r9, r7, lsl #2
1000b2e4:	eb03 0087 	add.w	r0, r3, r7, lsl #2
1000b2e8:	e003      	b.n	1000b2f2 <__gethex+0x45a>
1000b2ea:	4290      	cmp	r0, r2
1000b2ec:	f842 6c04 	str.w	r6, [r2, #-4]
1000b2f0:	d981      	bls.n	1000b1f6 <__gethex+0x35e>
1000b2f2:	4694      	mov	ip, r2
1000b2f4:	f852 1b04 	ldr.w	r1, [r2], #4
1000b2f8:	1c4b      	adds	r3, r1, #1
1000b2fa:	d0f6      	beq.n	1000b2ea <__gethex+0x452>
1000b2fc:	3101      	adds	r1, #1
1000b2fe:	2c02      	cmp	r4, #2
1000b300:	f8cc 1000 	str.w	r1, [ip]
1000b304:	d037      	beq.n	1000b376 <__gethex+0x4de>
1000b306:	f015 051f 	ands.w	r5, r5, #31
1000b30a:	f040 8097 	bne.w	1000b43c <__gethex+0x5a4>
1000b30e:	2421      	movs	r4, #33	@ 0x21
1000b310:	e747      	b.n	1000b1a2 <__gethex+0x30a>
1000b312:	9e02      	ldr	r6, [sp, #8]
1000b314:	f04f 0900 	mov.w	r9, #0
1000b318:	e669      	b.n	1000afee <__gethex+0x156>
1000b31a:	f10b 36ff 	add.w	r6, fp, #4294967295	@ 0xffffffff
1000b31e:	2f00      	cmp	r7, #0
1000b320:	f43f ae86 	beq.w	1000b030 <__gethex+0x198>
1000b324:	2701      	movs	r7, #1
1000b326:	e687      	b.n	1000b038 <__gethex+0x1a0>
1000b328:	07b9      	lsls	r1, r7, #30
1000b32a:	d5c9      	bpl.n	1000b2c0 <__gethex+0x428>
1000b32c:	9b02      	ldr	r3, [sp, #8]
1000b32e:	681a      	ldr	r2, [r3, #0]
1000b330:	4317      	orrs	r7, r2
1000b332:	07fa      	lsls	r2, r7, #31
1000b334:	d4ce      	bmi.n	1000b2d4 <__gethex+0x43c>
1000b336:	e7c3      	b.n	1000b2c0 <__gethex+0x428>
1000b338:	4631      	mov	r1, r6
1000b33a:	4650      	mov	r0, sl
1000b33c:	f000 febe 	bl	1000c0bc <__any_on>
1000b340:	4607      	mov	r7, r0
1000b342:	e679      	b.n	1000b038 <__gethex+0x1a0>
1000b344:	1eb1      	subs	r1, r6, #2
1000b346:	4650      	mov	r0, sl
1000b348:	f000 feb8 	bl	1000c0bc <__any_on>
1000b34c:	2800      	cmp	r0, #0
1000b34e:	f43f aecc 	beq.w	1000b0ea <__gethex+0x252>
1000b352:	2703      	movs	r7, #3
1000b354:	e6ca      	b.n	1000b0ec <__gethex+0x254>
1000b356:	f7ff fd49 	bl	1000adec <rshift>
1000b35a:	9b00      	ldr	r3, [sp, #0]
1000b35c:	2402      	movs	r4, #2
1000b35e:	f8d3 b004 	ldr.w	fp, [r3, #4]
1000b362:	e7a2      	b.n	1000b2aa <__gethex+0x412>
1000b364:	f04f 0b00 	mov.w	fp, #0
1000b368:	2701      	movs	r7, #1
1000b36a:	e619      	b.n	1000afa0 <__gethex+0x108>
1000b36c:	9b0f      	ldr	r3, [sp, #60]	@ 0x3c
1000b36e:	2b00      	cmp	r3, #0
1000b370:	f47f aee7 	bne.w	1000b142 <__gethex+0x2aa>
1000b374:	e733      	b.n	1000b1de <__gethex+0x346>
1000b376:	9b00      	ldr	r3, [sp, #0]
1000b378:	681a      	ldr	r2, [r3, #0]
1000b37a:	3a01      	subs	r2, #1
1000b37c:	42aa      	cmp	r2, r5
1000b37e:	d06a      	beq.n	1000b456 <__gethex+0x5be>
1000b380:	2422      	movs	r4, #34	@ 0x22
1000b382:	e70e      	b.n	1000b1a2 <__gethex+0x30a>
1000b384:	f047 0702 	orr.w	r7, r7, #2
1000b388:	2402      	movs	r4, #2
1000b38a:	e7cf      	b.n	1000b32c <__gethex+0x494>
1000b38c:	2402      	movs	r4, #2
1000b38e:	e79e      	b.n	1000b2ce <__gethex+0x436>
1000b390:	f04f 0901 	mov.w	r9, #1
1000b394:	e5a5      	b.n	1000aee2 <__gethex+0x4a>
1000b396:	f8da 1004 	ldr.w	r1, [sl, #4]
1000b39a:	9801      	ldr	r0, [sp, #4]
1000b39c:	3101      	adds	r1, #1
1000b39e:	f000 f97b 	bl	1000b698 <_Balloc>
1000b3a2:	4606      	mov	r6, r0
1000b3a4:	2800      	cmp	r0, #0
1000b3a6:	d06a      	beq.n	1000b47e <__gethex+0x5e6>
1000b3a8:	f8da 2010 	ldr.w	r2, [sl, #16]
1000b3ac:	f10a 010c 	add.w	r1, sl, #12
1000b3b0:	300c      	adds	r0, #12
1000b3b2:	f106 0814 	add.w	r8, r6, #20
1000b3b6:	3202      	adds	r2, #2
1000b3b8:	0092      	lsls	r2, r2, #2
1000b3ba:	f7fc fa19 	bl	100077f0 <memcpy>
1000b3be:	4651      	mov	r1, sl
1000b3c0:	9801      	ldr	r0, [sp, #4]
1000b3c2:	46b2      	mov	sl, r6
1000b3c4:	f000 f98e 	bl	1000b6e4 <_Bfree>
1000b3c8:	6931      	ldr	r1, [r6, #16]
1000b3ca:	2001      	movs	r0, #1
1000b3cc:	2c02      	cmp	r4, #2
1000b3ce:	eb01 0200 	add.w	r2, r1, r0
1000b3d2:	eb06 0181 	add.w	r1, r6, r1, lsl #2
1000b3d6:	6132      	str	r2, [r6, #16]
1000b3d8:	6148      	str	r0, [r1, #20]
1000b3da:	d0cc      	beq.n	1000b376 <__gethex+0x4de>
1000b3dc:	4297      	cmp	r7, r2
1000b3de:	da92      	bge.n	1000b306 <__gethex+0x46e>
1000b3e0:	e71a      	b.n	1000b218 <__gethex+0x380>
1000b3e2:	eb08 0482 	add.w	r4, r8, r2, lsl #2
1000b3e6:	f10a 0018 	add.w	r0, sl, #24
1000b3ea:	f8da 2014 	ldr.w	r2, [sl, #20]
1000b3ee:	4284      	cmp	r4, r0
1000b3f0:	ea4f 0252 	mov.w	r2, r2, lsr #1
1000b3f4:	d93b      	bls.n	1000b46e <__gethex+0x5d6>
1000b3f6:	4645      	mov	r5, r8
1000b3f8:	6803      	ldr	r3, [r0, #0]
1000b3fa:	ea42 72c3 	orr.w	r2, r2, r3, lsl #31
1000b3fe:	f845 2b04 	str.w	r2, [r5], #4
1000b402:	f850 2b04 	ldr.w	r2, [r0], #4
1000b406:	4284      	cmp	r4, r0
1000b408:	ea4f 0252 	mov.w	r2, r2, lsr #1
1000b40c:	d8f4      	bhi.n	1000b3f8 <__gethex+0x560>
1000b40e:	eba4 010a 	sub.w	r1, r4, sl
1000b412:	f108 0004 	add.w	r0, r8, #4
1000b416:	3919      	subs	r1, #25
1000b418:	088c      	lsrs	r4, r1, #2
1000b41a:	f021 0103 	bic.w	r1, r1, #3
1000b41e:	f840 2024 	str.w	r2, [r0, r4, lsl #2]
1000b422:	4401      	add	r1, r0
1000b424:	b102      	cbz	r2, 1000b428 <__gethex+0x590>
1000b426:	3104      	adds	r1, #4
1000b428:	eba1 0208 	sub.w	r2, r1, r8
1000b42c:	4541      	cmp	r1, r8
1000b42e:	ea4f 02a2 	mov.w	r2, r2, asr #2
1000b432:	f8ca 2010 	str.w	r2, [sl, #16]
1000b436:	f47f aef8 	bne.w	1000b22a <__gethex+0x392>
1000b43a:	e6f3      	b.n	1000b224 <__gethex+0x38c>
1000b43c:	44c1      	add	r9, r8
1000b43e:	f1c5 0520 	rsb	r5, r5, #32
1000b442:	f859 0c04 	ldr.w	r0, [r9, #-4]
1000b446:	f000 fa01 	bl	1000b84c <__hi0bits>
1000b44a:	42a8      	cmp	r0, r5
1000b44c:	f6bf af5f 	bge.w	1000b30e <__gethex+0x476>
1000b450:	f8da 2010 	ldr.w	r2, [sl, #16]
1000b454:	e6e0      	b.n	1000b218 <__gethex+0x380>
1000b456:	116a      	asrs	r2, r5, #5
1000b458:	f005 051f 	and.w	r5, r5, #31
1000b45c:	f858 1022 	ldr.w	r1, [r8, r2, lsl #2]
1000b460:	2201      	movs	r2, #1
1000b462:	40aa      	lsls	r2, r5
1000b464:	420a      	tst	r2, r1
1000b466:	bf14      	ite	ne
1000b468:	2421      	movne	r4, #33	@ 0x21
1000b46a:	2422      	moveq	r4, #34	@ 0x22
1000b46c:	e699      	b.n	1000b1a2 <__gethex+0x30a>
1000b46e:	f8c8 2000 	str.w	r2, [r8]
1000b472:	b10a      	cbz	r2, 1000b478 <__gethex+0x5e0>
1000b474:	4641      	mov	r1, r8
1000b476:	e7d6      	b.n	1000b426 <__gethex+0x58e>
1000b478:	f8ca 2010 	str.w	r2, [sl, #16]
1000b47c:	e6d2      	b.n	1000b224 <__gethex+0x38c>
1000b47e:	4602      	mov	r2, r0
1000b480:	4b05      	ldr	r3, [pc, #20]	@ (1000b498 <__gethex+0x600>)
1000b482:	2184      	movs	r1, #132	@ 0x84
1000b484:	4805      	ldr	r0, [pc, #20]	@ (1000b49c <__gethex+0x604>)
1000b486:	f7f8 fc95 	bl	10003db4 <__assert_func>
1000b48a:	4602      	mov	r2, r0
1000b48c:	4b02      	ldr	r3, [pc, #8]	@ (1000b498 <__gethex+0x600>)
1000b48e:	21e4      	movs	r1, #228	@ 0xe4
1000b490:	4802      	ldr	r0, [pc, #8]	@ (1000b49c <__gethex+0x604>)
1000b492:	f7f8 fc8f 	bl	10003db4 <__assert_func>
1000b496:	bf00      	nop
1000b498:	1000c94c 	.word	0x1000c94c
1000b49c:	1000c960 	.word	0x1000c960

1000b4a0 <__match>:
1000b4a0:	b510      	push	{r4, lr}
1000b4a2:	6804      	ldr	r4, [r0, #0]
1000b4a4:	4686      	mov	lr, r0
1000b4a6:	3401      	adds	r4, #1
1000b4a8:	e009      	b.n	1000b4be <__match+0x1e>
1000b4aa:	f814 3b01 	ldrb.w	r3, [r4], #1
1000b4ae:	f1a3 0c41 	sub.w	ip, r3, #65	@ 0x41
1000b4b2:	f1bc 0f19 	cmp.w	ip, #25
1000b4b6:	bf98      	it	ls
1000b4b8:	3320      	addls	r3, #32
1000b4ba:	4293      	cmp	r3, r2
1000b4bc:	d107      	bne.n	1000b4ce <__match+0x2e>
1000b4be:	f811 2b01 	ldrb.w	r2, [r1], #1
1000b4c2:	2a00      	cmp	r2, #0
1000b4c4:	d1f1      	bne.n	1000b4aa <__match+0xa>
1000b4c6:	2001      	movs	r0, #1
1000b4c8:	f8ce 4000 	str.w	r4, [lr]
1000b4cc:	bd10      	pop	{r4, pc}
1000b4ce:	2000      	movs	r0, #0
1000b4d0:	bd10      	pop	{r4, pc}
1000b4d2:	bf00      	nop

1000b4d4 <__hexnan>:
1000b4d4:	6809      	ldr	r1, [r1, #0]
1000b4d6:	e92d 4ff0 	stmdb	sp!, {r4, r5, r6, r7, r8, r9, sl, fp, lr}
1000b4da:	114b      	asrs	r3, r1, #5
1000b4dc:	b085      	sub	sp, #20
1000b4de:	f011 011f 	ands.w	r1, r1, #31
1000b4e2:	4604      	mov	r4, r0
1000b4e4:	eb02 0383 	add.w	r3, r2, r3, lsl #2
1000b4e8:	9102      	str	r1, [sp, #8]
1000b4ea:	f040 809b 	bne.w	1000b624 <__hexnan+0x150>
1000b4ee:	1f18      	subs	r0, r3, #4
1000b4f0:	4619      	mov	r1, r3
1000b4f2:	6825      	ldr	r5, [r4, #0]
1000b4f4:	2600      	movs	r6, #0
1000b4f6:	f841 6c04 	str.w	r6, [r1, #-4]
1000b4fa:	3501      	adds	r5, #1
1000b4fc:	782b      	ldrb	r3, [r5, #0]
1000b4fe:	2b00      	cmp	r3, #0
1000b500:	f000 80a8 	beq.w	1000b654 <__hexnan+0x180>
1000b504:	46b4      	mov	ip, r6
1000b506:	9101      	str	r1, [sp, #4]
1000b508:	4606      	mov	r6, r0
1000b50a:	4686      	mov	lr, r0
1000b50c:	f8df 8184 	ldr.w	r8, [pc, #388]	@ 1000b694 <__hexnan+0x1c0>
1000b510:	46e1      	mov	r9, ip
1000b512:	4667      	mov	r7, ip
1000b514:	46e3      	mov	fp, ip
1000b516:	46aa      	mov	sl, r5
1000b518:	4601      	mov	r1, r0
1000b51a:	9403      	str	r4, [sp, #12]
1000b51c:	f818 0003 	ldrb.w	r0, [r8, r3]
1000b520:	2800      	cmp	r0, #0
1000b522:	d15d      	bne.n	1000b5e0 <__hexnan+0x10c>
1000b524:	2b20      	cmp	r3, #32
1000b526:	f200 808f 	bhi.w	1000b648 <__hexnan+0x174>
1000b52a:	454f      	cmp	r7, r9
1000b52c:	dd20      	ble.n	1000b570 <__hexnan+0x9c>
1000b52e:	45b6      	cmp	lr, r6
1000b530:	d21a      	bcs.n	1000b568 <__hexnan+0x94>
1000b532:	f1bc 0f07 	cmp.w	ip, #7
1000b536:	dc17      	bgt.n	1000b568 <__hexnan+0x94>
1000b538:	f1cc 0408 	rsb	r4, ip, #8
1000b53c:	f8de 3000 	ldr.w	r3, [lr]
1000b540:	4670      	mov	r0, lr
1000b542:	f8cd e000 	str.w	lr, [sp]
1000b546:	00a4      	lsls	r4, r4, #2
1000b548:	f1c4 0c20 	rsb	ip, r4, #32
1000b54c:	46a6      	mov	lr, r4
1000b54e:	6844      	ldr	r4, [r0, #4]
1000b550:	fa04 f50c 	lsl.w	r5, r4, ip
1000b554:	431d      	orrs	r5, r3
1000b556:	fa24 f30e 	lsr.w	r3, r4, lr
1000b55a:	6005      	str	r5, [r0, #0]
1000b55c:	f840 3f04 	str.w	r3, [r0, #4]!
1000b560:	42b0      	cmp	r0, r6
1000b562:	d3f4      	bcc.n	1000b54e <__hexnan+0x7a>
1000b564:	f8dd e000 	ldr.w	lr, [sp]
1000b568:	4572      	cmp	r2, lr
1000b56a:	d352      	bcc.n	1000b612 <__hexnan+0x13e>
1000b56c:	f04f 0c08 	mov.w	ip, #8
1000b570:	f81a 3f01 	ldrb.w	r3, [sl, #1]!
1000b574:	2b00      	cmp	r3, #0
1000b576:	d1d1      	bne.n	1000b51c <__hexnan+0x48>
1000b578:	4608      	mov	r0, r1
1000b57a:	9901      	ldr	r1, [sp, #4]
1000b57c:	2f00      	cmp	r7, #0
1000b57e:	d069      	beq.n	1000b654 <__hexnan+0x180>
1000b580:	45b6      	cmp	lr, r6
1000b582:	d202      	bcs.n	1000b58a <__hexnan+0xb6>
1000b584:	f1bc 0f07 	cmp.w	ip, #7
1000b588:	dd68      	ble.n	1000b65c <__hexnan+0x188>
1000b58a:	4572      	cmp	r2, lr
1000b58c:	d24d      	bcs.n	1000b62a <__hexnan+0x156>
1000b58e:	1f14      	subs	r4, r2, #4
1000b590:	4673      	mov	r3, lr
1000b592:	f853 5b04 	ldr.w	r5, [r3], #4
1000b596:	4283      	cmp	r3, r0
1000b598:	f844 5f04 	str.w	r5, [r4, #4]!
1000b59c:	d9f9      	bls.n	1000b592 <__hexnan+0xbe>
1000b59e:	eba0 030e 	sub.w	r3, r0, lr
1000b5a2:	1c44      	adds	r4, r0, #1
1000b5a4:	f10e 0e01 	add.w	lr, lr, #1
1000b5a8:	2500      	movs	r5, #0
1000b5aa:	f023 0303 	bic.w	r3, r3, #3
1000b5ae:	45a6      	cmp	lr, r4
1000b5b0:	bf88      	it	hi
1000b5b2:	2300      	movhi	r3, #0
1000b5b4:	1d14      	adds	r4, r2, #4
1000b5b6:	4423      	add	r3, r4
1000b5b8:	461c      	mov	r4, r3
1000b5ba:	3304      	adds	r3, #4
1000b5bc:	4283      	cmp	r3, r0
1000b5be:	6025      	str	r5, [r4, #0]
1000b5c0:	d9fa      	bls.n	1000b5b8 <__hexnan+0xe4>
1000b5c2:	f851 4c04 	ldr.w	r4, [r1, #-4]
1000b5c6:	b11c      	cbz	r4, 1000b5d0 <__hexnan+0xfc>
1000b5c8:	e006      	b.n	1000b5d8 <__hexnan+0x104>
1000b5ca:	f850 3d04 	ldr.w	r3, [r0, #-4]!
1000b5ce:	b91b      	cbnz	r3, 1000b5d8 <__hexnan+0x104>
1000b5d0:	4282      	cmp	r2, r0
1000b5d2:	d1fa      	bne.n	1000b5ca <__hexnan+0xf6>
1000b5d4:	2301      	movs	r3, #1
1000b5d6:	6013      	str	r3, [r2, #0]
1000b5d8:	2005      	movs	r0, #5
1000b5da:	b005      	add	sp, #20
1000b5dc:	e8bd 8ff0 	ldmia.w	sp!, {r4, r5, r6, r7, r8, r9, sl, fp, pc}
1000b5e0:	f10c 0c01 	add.w	ip, ip, #1
1000b5e4:	3701      	adds	r7, #1
1000b5e6:	f1bc 0f08 	cmp.w	ip, #8
1000b5ea:	dc08      	bgt.n	1000b5fe <__hexnan+0x12a>
1000b5ec:	f8de 3000 	ldr.w	r3, [lr]
1000b5f0:	011b      	lsls	r3, r3, #4
1000b5f2:	f000 000f 	and.w	r0, r0, #15
1000b5f6:	4318      	orrs	r0, r3
1000b5f8:	f8ce 0000 	str.w	r0, [lr]
1000b5fc:	e7b8      	b.n	1000b570 <__hexnan+0x9c>
1000b5fe:	4572      	cmp	r2, lr
1000b600:	d2b6      	bcs.n	1000b570 <__hexnan+0x9c>
1000b602:	f84e bc04 	str.w	fp, [lr, #-4]
1000b606:	2300      	movs	r3, #0
1000b608:	f1ae 0e04 	sub.w	lr, lr, #4
1000b60c:	f04f 0c01 	mov.w	ip, #1
1000b610:	e7ef      	b.n	1000b5f2 <__hexnan+0x11e>
1000b612:	f1ae 0604 	sub.w	r6, lr, #4
1000b616:	f84e bc04 	str.w	fp, [lr, #-4]
1000b61a:	46b9      	mov	r9, r7
1000b61c:	f04f 0c00 	mov.w	ip, #0
1000b620:	46b6      	mov	lr, r6
1000b622:	e7a5      	b.n	1000b570 <__hexnan+0x9c>
1000b624:	1d19      	adds	r1, r3, #4
1000b626:	4618      	mov	r0, r3
1000b628:	e763      	b.n	1000b4f2 <__hexnan+0x1e>
1000b62a:	9b02      	ldr	r3, [sp, #8]
1000b62c:	f851 4c04 	ldr.w	r4, [r1, #-4]
1000b630:	2b00      	cmp	r3, #0
1000b632:	d0c8      	beq.n	1000b5c6 <__hexnan+0xf2>
1000b634:	f1c3 0320 	rsb	r3, r3, #32
1000b638:	f04f 35ff 	mov.w	r5, #4294967295	@ 0xffffffff
1000b63c:	fa25 f303 	lsr.w	r3, r5, r3
1000b640:	401c      	ands	r4, r3
1000b642:	f841 4c04 	str.w	r4, [r1, #-4]
1000b646:	e7be      	b.n	1000b5c6 <__hexnan+0xf2>
1000b648:	2b29      	cmp	r3, #41	@ 0x29
1000b64a:	4608      	mov	r0, r1
1000b64c:	4655      	mov	r5, sl
1000b64e:	9901      	ldr	r1, [sp, #4]
1000b650:	9c03      	ldr	r4, [sp, #12]
1000b652:	d01b      	beq.n	1000b68c <__hexnan+0x1b8>
1000b654:	2004      	movs	r0, #4
1000b656:	b005      	add	sp, #20
1000b658:	e8bd 8ff0 	ldmia.w	sp!, {r4, r5, r6, r7, r8, r9, sl, fp, pc}
1000b65c:	f1cc 0308 	rsb	r3, ip, #8
1000b660:	f8de 4000 	ldr.w	r4, [lr]
1000b664:	4677      	mov	r7, lr
1000b666:	009b      	lsls	r3, r3, #2
1000b668:	4625      	mov	r5, r4
1000b66a:	f1c3 0820 	rsb	r8, r3, #32
1000b66e:	469c      	mov	ip, r3
1000b670:	687b      	ldr	r3, [r7, #4]
1000b672:	fa03 f408 	lsl.w	r4, r3, r8
1000b676:	432c      	orrs	r4, r5
1000b678:	fa23 f50c 	lsr.w	r5, r3, ip
1000b67c:	603c      	str	r4, [r7, #0]
1000b67e:	f847 5f04 	str.w	r5, [r7, #4]!
1000b682:	42b7      	cmp	r7, r6
1000b684:	d3f4      	bcc.n	1000b670 <__hexnan+0x19c>
1000b686:	4572      	cmp	r2, lr
1000b688:	d381      	bcc.n	1000b58e <__hexnan+0xba>
1000b68a:	e7ce      	b.n	1000b62a <__hexnan+0x156>
1000b68c:	3501      	adds	r5, #1
1000b68e:	6025      	str	r5, [r4, #0]
1000b690:	e774      	b.n	1000b57c <__hexnan+0xa8>
1000b692:	bf00      	nop
1000b694:	1000ce30 	.word	0x1000ce30

1000b698 <_Balloc>:
1000b698:	b538      	push	{r3, r4, r5, lr}
1000b69a:	6c43      	ldr	r3, [r0, #68]	@ 0x44
1000b69c:	4605      	mov	r5, r0
1000b69e:	460c      	mov	r4, r1
1000b6a0:	b14b      	cbz	r3, 1000b6b6 <_Balloc+0x1e>
1000b6a2:	f853 0024 	ldr.w	r0, [r3, r4, lsl #2]
1000b6a6:	b180      	cbz	r0, 1000b6ca <_Balloc+0x32>
1000b6a8:	6802      	ldr	r2, [r0, #0]
1000b6aa:	f843 2024 	str.w	r2, [r3, r4, lsl #2]
1000b6ae:	2300      	movs	r3, #0
1000b6b0:	e9c0 3303 	strd	r3, r3, [r0, #12]
1000b6b4:	bd38      	pop	{r3, r4, r5, pc}
1000b6b6:	2221      	movs	r2, #33	@ 0x21
1000b6b8:	2104      	movs	r1, #4
1000b6ba:	f7fb f8cf 	bl	1000685c <_calloc_r>
1000b6be:	4603      	mov	r3, r0
1000b6c0:	6468      	str	r0, [r5, #68]	@ 0x44
1000b6c2:	2800      	cmp	r0, #0
1000b6c4:	d1ed      	bne.n	1000b6a2 <_Balloc+0xa>
1000b6c6:	2000      	movs	r0, #0
1000b6c8:	bd38      	pop	{r3, r4, r5, pc}
1000b6ca:	2101      	movs	r1, #1
1000b6cc:	4628      	mov	r0, r5
1000b6ce:	fa01 f504 	lsl.w	r5, r1, r4
1000b6d2:	1d6a      	adds	r2, r5, #5
1000b6d4:	0092      	lsls	r2, r2, #2
1000b6d6:	f7fb f8c1 	bl	1000685c <_calloc_r>
1000b6da:	2800      	cmp	r0, #0
1000b6dc:	d0f3      	beq.n	1000b6c6 <_Balloc+0x2e>
1000b6de:	e9c0 4501 	strd	r4, r5, [r0, #4]
1000b6e2:	e7e4      	b.n	1000b6ae <_Balloc+0x16>

1000b6e4 <_Bfree>:
1000b6e4:	b131      	cbz	r1, 1000b6f4 <_Bfree+0x10>
1000b6e6:	6c43      	ldr	r3, [r0, #68]	@ 0x44
1000b6e8:	684a      	ldr	r2, [r1, #4]
1000b6ea:	f853 0022 	ldr.w	r0, [r3, r2, lsl #2]
1000b6ee:	6008      	str	r0, [r1, #0]
1000b6f0:	f843 1022 	str.w	r1, [r3, r2, lsl #2]
1000b6f4:	4770      	bx	lr
1000b6f6:	bf00      	nop

1000b6f8 <__multadd>:
1000b6f8:	e92d 41f0 	stmdb	sp!, {r4, r5, r6, r7, r8, lr}
1000b6fc:	4607      	mov	r7, r0
1000b6fe:	460e      	mov	r6, r1
1000b700:	461c      	mov	r4, r3
1000b702:	690d      	ldr	r5, [r1, #16]
1000b704:	f101 0e14 	add.w	lr, r1, #20
1000b708:	2000      	movs	r0, #0
1000b70a:	f8de 1000 	ldr.w	r1, [lr]
1000b70e:	3001      	adds	r0, #1
1000b710:	b28b      	uxth	r3, r1
1000b712:	4285      	cmp	r5, r0
1000b714:	ea4f 4111 	mov.w	r1, r1, lsr #16
1000b718:	fb02 4303 	mla	r3, r2, r3, r4
1000b71c:	ea4f 4c13 	mov.w	ip, r3, lsr #16
1000b720:	b29b      	uxth	r3, r3
1000b722:	fb02 cc01 	mla	ip, r2, r1, ip
1000b726:	eb03 430c 	add.w	r3, r3, ip, lsl #16
1000b72a:	ea4f 441c 	mov.w	r4, ip, lsr #16
1000b72e:	f84e 3b04 	str.w	r3, [lr], #4
1000b732:	dcea      	bgt.n	1000b70a <__multadd+0x12>
1000b734:	b13c      	cbz	r4, 1000b746 <__multadd+0x4e>
1000b736:	68b3      	ldr	r3, [r6, #8]
1000b738:	42ab      	cmp	r3, r5
1000b73a:	dd07      	ble.n	1000b74c <__multadd+0x54>
1000b73c:	eb06 0385 	add.w	r3, r6, r5, lsl #2
1000b740:	3501      	adds	r5, #1
1000b742:	615c      	str	r4, [r3, #20]
1000b744:	6135      	str	r5, [r6, #16]
1000b746:	4630      	mov	r0, r6
1000b748:	e8bd 81f0 	ldmia.w	sp!, {r4, r5, r6, r7, r8, pc}
1000b74c:	6871      	ldr	r1, [r6, #4]
1000b74e:	4638      	mov	r0, r7
1000b750:	3101      	adds	r1, #1
1000b752:	f7ff ffa1 	bl	1000b698 <_Balloc>
1000b756:	4680      	mov	r8, r0
1000b758:	b1a8      	cbz	r0, 1000b786 <__multadd+0x8e>
1000b75a:	6932      	ldr	r2, [r6, #16]
1000b75c:	f106 010c 	add.w	r1, r6, #12
1000b760:	300c      	adds	r0, #12
1000b762:	3202      	adds	r2, #2
1000b764:	0092      	lsls	r2, r2, #2
1000b766:	f7fc f843 	bl	100077f0 <memcpy>
1000b76a:	6c7b      	ldr	r3, [r7, #68]	@ 0x44
1000b76c:	6872      	ldr	r2, [r6, #4]
1000b76e:	f853 1022 	ldr.w	r1, [r3, r2, lsl #2]
1000b772:	6031      	str	r1, [r6, #0]
1000b774:	f843 6022 	str.w	r6, [r3, r2, lsl #2]
1000b778:	4646      	mov	r6, r8
1000b77a:	eb06 0385 	add.w	r3, r6, r5, lsl #2
1000b77e:	3501      	adds	r5, #1
1000b780:	615c      	str	r4, [r3, #20]
1000b782:	6135      	str	r5, [r6, #16]
1000b784:	e7df      	b.n	1000b746 <__multadd+0x4e>
1000b786:	4602      	mov	r2, r0
1000b788:	4b02      	ldr	r3, [pc, #8]	@ (1000b794 <__multadd+0x9c>)
1000b78a:	21ba      	movs	r1, #186	@ 0xba
1000b78c:	4802      	ldr	r0, [pc, #8]	@ (1000b798 <__multadd+0xa0>)
1000b78e:	f7f8 fb11 	bl	10003db4 <__assert_func>
1000b792:	bf00      	nop
1000b794:	1000c94c 	.word	0x1000c94c
1000b798:	1000c9c0 	.word	0x1000c9c0

1000b79c <__s2b>:
1000b79c:	e92d 43f8 	stmdb	sp!, {r3, r4, r5, r6, r7, r8, r9, lr}
1000b7a0:	461e      	mov	r6, r3
1000b7a2:	4617      	mov	r7, r2
1000b7a4:	3308      	adds	r3, #8
1000b7a6:	4a26      	ldr	r2, [pc, #152]	@ (1000b840 <__s2b+0xa4>)
1000b7a8:	460c      	mov	r4, r1
1000b7aa:	2e09      	cmp	r6, #9
1000b7ac:	fb82 1203 	smull	r1, r2, r2, r3
1000b7b0:	ea4f 73e3 	mov.w	r3, r3, asr #31
1000b7b4:	4605      	mov	r5, r0
1000b7b6:	ebc3 0362 	rsb	r3, r3, r2, asr #1
1000b7ba:	dd38      	ble.n	1000b82e <__s2b+0x92>
1000b7bc:	f04f 0c01 	mov.w	ip, #1
1000b7c0:	2100      	movs	r1, #0
1000b7c2:	ea4f 0c4c 	mov.w	ip, ip, lsl #1
1000b7c6:	3101      	adds	r1, #1
1000b7c8:	4563      	cmp	r3, ip
1000b7ca:	dcfa      	bgt.n	1000b7c2 <__s2b+0x26>
1000b7cc:	4628      	mov	r0, r5
1000b7ce:	f7ff ff63 	bl	1000b698 <_Balloc>
1000b7d2:	4601      	mov	r1, r0
1000b7d4:	b368      	cbz	r0, 1000b832 <__s2b+0x96>
1000b7d6:	9b08      	ldr	r3, [sp, #32]
1000b7d8:	2f09      	cmp	r7, #9
1000b7da:	6143      	str	r3, [r0, #20]
1000b7dc:	f04f 0301 	mov.w	r3, #1
1000b7e0:	6103      	str	r3, [r0, #16]
1000b7e2:	dc12      	bgt.n	1000b80a <__s2b+0x6e>
1000b7e4:	340a      	adds	r4, #10
1000b7e6:	2709      	movs	r7, #9
1000b7e8:	42be      	cmp	r6, r7
1000b7ea:	dd0b      	ble.n	1000b804 <__s2b+0x68>
1000b7ec:	1bf6      	subs	r6, r6, r7
1000b7ee:	4426      	add	r6, r4
1000b7f0:	f814 3b01 	ldrb.w	r3, [r4], #1
1000b7f4:	220a      	movs	r2, #10
1000b7f6:	4628      	mov	r0, r5
1000b7f8:	3b30      	subs	r3, #48	@ 0x30
1000b7fa:	f7ff ff7d 	bl	1000b6f8 <__multadd>
1000b7fe:	42b4      	cmp	r4, r6
1000b800:	4601      	mov	r1, r0
1000b802:	d1f5      	bne.n	1000b7f0 <__s2b+0x54>
1000b804:	4608      	mov	r0, r1
1000b806:	e8bd 83f8 	ldmia.w	sp!, {r3, r4, r5, r6, r7, r8, r9, pc}
1000b80a:	f104 0909 	add.w	r9, r4, #9
1000b80e:	443c      	add	r4, r7
1000b810:	46c8      	mov	r8, r9
1000b812:	f818 3b01 	ldrb.w	r3, [r8], #1
1000b816:	220a      	movs	r2, #10
1000b818:	4628      	mov	r0, r5
1000b81a:	3b30      	subs	r3, #48	@ 0x30
1000b81c:	f7ff ff6c 	bl	1000b6f8 <__multadd>
1000b820:	45a0      	cmp	r8, r4
1000b822:	4601      	mov	r1, r0
1000b824:	d1f5      	bne.n	1000b812 <__s2b+0x76>
1000b826:	44b9      	add	r9, r7
1000b828:	f1a9 0408 	sub.w	r4, r9, #8
1000b82c:	e7dc      	b.n	1000b7e8 <__s2b+0x4c>
1000b82e:	2100      	movs	r1, #0
1000b830:	e7cc      	b.n	1000b7cc <__s2b+0x30>
1000b832:	4602      	mov	r2, r0
1000b834:	4b03      	ldr	r3, [pc, #12]	@ (1000b844 <__s2b+0xa8>)
1000b836:	21d3      	movs	r1, #211	@ 0xd3
1000b838:	4803      	ldr	r0, [pc, #12]	@ (1000b848 <__s2b+0xac>)
1000b83a:	f7f8 fabb 	bl	10003db4 <__assert_func>
1000b83e:	bf00      	nop
1000b840:	38e38e39 	.word	0x38e38e39
1000b844:	1000c94c 	.word	0x1000c94c
1000b848:	1000c9c0 	.word	0x1000c9c0

1000b84c <__hi0bits>:
1000b84c:	f5b0 3f80 	cmp.w	r0, #65536	@ 0x10000
1000b850:	4603      	mov	r3, r0
1000b852:	d210      	bcs.n	1000b876 <__hi0bits+0x2a>
1000b854:	0403      	lsls	r3, r0, #16
1000b856:	2010      	movs	r0, #16
1000b858:	f1b3 7f80 	cmp.w	r3, #16777216	@ 0x1000000
1000b85c:	d201      	bcs.n	1000b862 <__hi0bits+0x16>
1000b85e:	3008      	adds	r0, #8
1000b860:	021b      	lsls	r3, r3, #8
1000b862:	f1b3 5f80 	cmp.w	r3, #268435456	@ 0x10000000
1000b866:	d308      	bcc.n	1000b87a <__hi0bits+0x2e>
1000b868:	f1b3 4f80 	cmp.w	r3, #1073741824	@ 0x40000000
1000b86c:	d210      	bcs.n	1000b890 <__hi0bits+0x44>
1000b86e:	009a      	lsls	r2, r3, #2
1000b870:	d413      	bmi.n	1000b89a <__hi0bits+0x4e>
1000b872:	3003      	adds	r0, #3
1000b874:	4770      	bx	lr
1000b876:	2000      	movs	r0, #0
1000b878:	e7ee      	b.n	1000b858 <__hi0bits+0xc>
1000b87a:	011a      	lsls	r2, r3, #4
1000b87c:	3004      	adds	r0, #4
1000b87e:	f1b2 4f80 	cmp.w	r2, #1073741824	@ 0x40000000
1000b882:	d206      	bcs.n	1000b892 <__hi0bits+0x46>
1000b884:	019b      	lsls	r3, r3, #6
1000b886:	d408      	bmi.n	1000b89a <__hi0bits+0x4e>
1000b888:	005b      	lsls	r3, r3, #1
1000b88a:	d4f2      	bmi.n	1000b872 <__hi0bits+0x26>
1000b88c:	2020      	movs	r0, #32
1000b88e:	4770      	bx	lr
1000b890:	461a      	mov	r2, r3
1000b892:	2a00      	cmp	r2, #0
1000b894:	dbfb      	blt.n	1000b88e <__hi0bits+0x42>
1000b896:	3001      	adds	r0, #1
1000b898:	4770      	bx	lr
1000b89a:	3002      	adds	r0, #2
1000b89c:	4770      	bx	lr
1000b89e:	bf00      	nop

1000b8a0 <__lo0bits>:
1000b8a0:	6803      	ldr	r3, [r0, #0]
1000b8a2:	4602      	mov	r2, r0
1000b8a4:	0759      	lsls	r1, r3, #29
1000b8a6:	d007      	beq.n	1000b8b8 <__lo0bits+0x18>
1000b8a8:	07d8      	lsls	r0, r3, #31
1000b8aa:	d41d      	bmi.n	1000b8e8 <__lo0bits+0x48>
1000b8ac:	0799      	lsls	r1, r3, #30
1000b8ae:	d52a      	bpl.n	1000b906 <__lo0bits+0x66>
1000b8b0:	085b      	lsrs	r3, r3, #1
1000b8b2:	2001      	movs	r0, #1
1000b8b4:	6013      	str	r3, [r2, #0]
1000b8b6:	4770      	bx	lr
1000b8b8:	b299      	uxth	r1, r3
1000b8ba:	b979      	cbnz	r1, 1000b8dc <__lo0bits+0x3c>
1000b8bc:	0c1b      	lsrs	r3, r3, #16
1000b8be:	b2d9      	uxtb	r1, r3
1000b8c0:	b1a1      	cbz	r1, 1000b8ec <__lo0bits+0x4c>
1000b8c2:	2010      	movs	r0, #16
1000b8c4:	0719      	lsls	r1, r3, #28
1000b8c6:	d101      	bne.n	1000b8cc <__lo0bits+0x2c>
1000b8c8:	3004      	adds	r0, #4
1000b8ca:	091b      	lsrs	r3, r3, #4
1000b8cc:	0799      	lsls	r1, r3, #30
1000b8ce:	d012      	beq.n	1000b8f6 <__lo0bits+0x56>
1000b8d0:	07d9      	lsls	r1, r3, #31
1000b8d2:	d401      	bmi.n	1000b8d8 <__lo0bits+0x38>
1000b8d4:	3001      	adds	r0, #1
1000b8d6:	085b      	lsrs	r3, r3, #1
1000b8d8:	6013      	str	r3, [r2, #0]
1000b8da:	4770      	bx	lr
1000b8dc:	b2d9      	uxtb	r1, r3
1000b8de:	b141      	cbz	r1, 1000b8f2 <__lo0bits+0x52>
1000b8e0:	0718      	lsls	r0, r3, #28
1000b8e2:	d118      	bne.n	1000b916 <__lo0bits+0x76>
1000b8e4:	2004      	movs	r0, #4
1000b8e6:	e7f0      	b.n	1000b8ca <__lo0bits+0x2a>
1000b8e8:	2000      	movs	r0, #0
1000b8ea:	4770      	bx	lr
1000b8ec:	2018      	movs	r0, #24
1000b8ee:	0a1b      	lsrs	r3, r3, #8
1000b8f0:	e7e8      	b.n	1000b8c4 <__lo0bits+0x24>
1000b8f2:	2008      	movs	r0, #8
1000b8f4:	e7fb      	b.n	1000b8ee <__lo0bits+0x4e>
1000b8f6:	f013 0f04 	tst.w	r3, #4
1000b8fa:	ea4f 0193 	mov.w	r1, r3, lsr #2
1000b8fe:	d006      	beq.n	1000b90e <__lo0bits+0x6e>
1000b900:	3002      	adds	r0, #2
1000b902:	460b      	mov	r3, r1
1000b904:	e7e8      	b.n	1000b8d8 <__lo0bits+0x38>
1000b906:	089b      	lsrs	r3, r3, #2
1000b908:	2002      	movs	r0, #2
1000b90a:	6013      	str	r3, [r2, #0]
1000b90c:	4770      	bx	lr
1000b90e:	08db      	lsrs	r3, r3, #3
1000b910:	d104      	bne.n	1000b91c <__lo0bits+0x7c>
1000b912:	2020      	movs	r0, #32
1000b914:	4770      	bx	lr
1000b916:	08db      	lsrs	r3, r3, #3
1000b918:	2003      	movs	r0, #3
1000b91a:	e7dd      	b.n	1000b8d8 <__lo0bits+0x38>
1000b91c:	3003      	adds	r0, #3
1000b91e:	e7db      	b.n	1000b8d8 <__lo0bits+0x38>

1000b920 <__i2b>:
1000b920:	b538      	push	{r3, r4, r5, lr}
1000b922:	6c43      	ldr	r3, [r0, #68]	@ 0x44
1000b924:	4604      	mov	r4, r0
1000b926:	460d      	mov	r5, r1
1000b928:	b14b      	cbz	r3, 1000b93e <__i2b+0x1e>
1000b92a:	6858      	ldr	r0, [r3, #4]
1000b92c:	b1b0      	cbz	r0, 1000b95c <__i2b+0x3c>
1000b92e:	6802      	ldr	r2, [r0, #0]
1000b930:	605a      	str	r2, [r3, #4]
1000b932:	2200      	movs	r2, #0
1000b934:	2301      	movs	r3, #1
1000b936:	6145      	str	r5, [r0, #20]
1000b938:	e9c0 2303 	strd	r2, r3, [r0, #12]
1000b93c:	bd38      	pop	{r3, r4, r5, pc}
1000b93e:	2221      	movs	r2, #33	@ 0x21
1000b940:	2104      	movs	r1, #4
1000b942:	f7fa ff8b 	bl	1000685c <_calloc_r>
1000b946:	4603      	mov	r3, r0
1000b948:	6460      	str	r0, [r4, #68]	@ 0x44
1000b94a:	2800      	cmp	r0, #0
1000b94c:	d1ed      	bne.n	1000b92a <__i2b+0xa>
1000b94e:	4b09      	ldr	r3, [pc, #36]	@ (1000b974 <__i2b+0x54>)
1000b950:	2200      	movs	r2, #0
1000b952:	f240 1145 	movw	r1, #325	@ 0x145
1000b956:	4808      	ldr	r0, [pc, #32]	@ (1000b978 <__i2b+0x58>)
1000b958:	f7f8 fa2c 	bl	10003db4 <__assert_func>
1000b95c:	221c      	movs	r2, #28
1000b95e:	2101      	movs	r1, #1
1000b960:	4620      	mov	r0, r4
1000b962:	f7fa ff7b 	bl	1000685c <_calloc_r>
1000b966:	2800      	cmp	r0, #0
1000b968:	d0f1      	beq.n	1000b94e <__i2b+0x2e>
1000b96a:	2201      	movs	r2, #1
1000b96c:	2302      	movs	r3, #2
1000b96e:	e9c0 2301 	strd	r2, r3, [r0, #4]
1000b972:	e7de      	b.n	1000b932 <__i2b+0x12>
1000b974:	1000c94c 	.word	0x1000c94c
1000b978:	1000c9c0 	.word	0x1000c9c0

1000b97c <__multiply>:
1000b97c:	e92d 4ff0 	stmdb	sp!, {r4, r5, r6, r7, r8, r9, sl, fp, lr}
1000b980:	f8d1 8010 	ldr.w	r8, [r1, #16]
1000b984:	b085      	sub	sp, #20
1000b986:	6915      	ldr	r5, [r2, #16]
1000b988:	460e      	mov	r6, r1
1000b98a:	4692      	mov	sl, r2
1000b98c:	45a8      	cmp	r8, r5
1000b98e:	db05      	blt.n	1000b99c <__multiply+0x20>
1000b990:	462a      	mov	r2, r5
1000b992:	4653      	mov	r3, sl
1000b994:	4645      	mov	r5, r8
1000b996:	468a      	mov	sl, r1
1000b998:	4690      	mov	r8, r2
1000b99a:	461e      	mov	r6, r3
1000b99c:	eb05 0408 	add.w	r4, r5, r8
1000b9a0:	e9da 1301 	ldrd	r1, r3, [sl, #4]
1000b9a4:	42a3      	cmp	r3, r4
1000b9a6:	bfb8      	it	lt
1000b9a8:	3101      	addlt	r1, #1
1000b9aa:	f7ff fe75 	bl	1000b698 <_Balloc>
1000b9ae:	2800      	cmp	r0, #0
1000b9b0:	f000 808c 	beq.w	1000bacc <__multiply+0x150>
1000b9b4:	f100 0714 	add.w	r7, r0, #20
1000b9b8:	eb07 0e84 	add.w	lr, r7, r4, lsl #2
1000b9bc:	4577      	cmp	r7, lr
1000b9be:	d205      	bcs.n	1000b9cc <__multiply+0x50>
1000b9c0:	463b      	mov	r3, r7
1000b9c2:	2200      	movs	r2, #0
1000b9c4:	f843 2b04 	str.w	r2, [r3], #4
1000b9c8:	459e      	cmp	lr, r3
1000b9ca:	d8fb      	bhi.n	1000b9c4 <__multiply+0x48>
1000b9cc:	3614      	adds	r6, #20
1000b9ce:	f10a 0914 	add.w	r9, sl, #20
1000b9d2:	eb06 0888 	add.w	r8, r6, r8, lsl #2
1000b9d6:	eb09 0585 	add.w	r5, r9, r5, lsl #2
1000b9da:	4546      	cmp	r6, r8
1000b9dc:	d269      	bcs.n	1000bab2 <__multiply+0x136>
1000b9de:	eba5 030a 	sub.w	r3, r5, sl
1000b9e2:	f10a 0a15 	add.w	sl, sl, #21
1000b9e6:	f8cd e008 	str.w	lr, [sp, #8]
1000b9ea:	46ae      	mov	lr, r5
1000b9ec:	3b15      	subs	r3, #21
1000b9ee:	9403      	str	r4, [sp, #12]
1000b9f0:	f023 0303 	bic.w	r3, r3, #3
1000b9f4:	45aa      	cmp	sl, r5
1000b9f6:	bf94      	ite	ls
1000b9f8:	469b      	movls	fp, r3
1000b9fa:	f04f 0b00 	movhi.w	fp, #0
1000b9fe:	4682      	mov	sl, r0
1000ba00:	e005      	b.n	1000ba0e <__multiply+0x92>
1000ba02:	0c09      	lsrs	r1, r1, #16
1000ba04:	d12d      	bne.n	1000ba62 <__multiply+0xe6>
1000ba06:	45b0      	cmp	r8, r6
1000ba08:	f107 0704 	add.w	r7, r7, #4
1000ba0c:	d94e      	bls.n	1000baac <__multiply+0x130>
1000ba0e:	f856 1b04 	ldr.w	r1, [r6], #4
1000ba12:	b28d      	uxth	r5, r1
1000ba14:	2d00      	cmp	r5, #0
1000ba16:	d0f4      	beq.n	1000ba02 <__multiply+0x86>
1000ba18:	46cc      	mov	ip, r9
1000ba1a:	463c      	mov	r4, r7
1000ba1c:	2300      	movs	r3, #0
1000ba1e:	9601      	str	r6, [sp, #4]
1000ba20:	f85c 0b04 	ldr.w	r0, [ip], #4
1000ba24:	6821      	ldr	r1, [r4, #0]
1000ba26:	b286      	uxth	r6, r0
1000ba28:	45e6      	cmp	lr, ip
1000ba2a:	b28a      	uxth	r2, r1
1000ba2c:	ea4f 4010 	mov.w	r0, r0, lsr #16
1000ba30:	fb05 2206 	mla	r2, r5, r6, r2
1000ba34:	ea4f 4111 	mov.w	r1, r1, lsr #16
1000ba38:	441a      	add	r2, r3
1000ba3a:	fb05 1100 	mla	r1, r5, r0, r1
1000ba3e:	eb01 4112 	add.w	r1, r1, r2, lsr #16
1000ba42:	b292      	uxth	r2, r2
1000ba44:	ea4f 4311 	mov.w	r3, r1, lsr #16
1000ba48:	ea42 4201 	orr.w	r2, r2, r1, lsl #16
1000ba4c:	f844 2b04 	str.w	r2, [r4], #4
1000ba50:	d8e6      	bhi.n	1000ba20 <__multiply+0xa4>
1000ba52:	9e01      	ldr	r6, [sp, #4]
1000ba54:	eb07 020b 	add.w	r2, r7, fp
1000ba58:	6053      	str	r3, [r2, #4]
1000ba5a:	f856 1c04 	ldr.w	r1, [r6, #-4]
1000ba5e:	0c09      	lsrs	r1, r1, #16
1000ba60:	d0d1      	beq.n	1000ba06 <__multiply+0x8a>
1000ba62:	683b      	ldr	r3, [r7, #0]
1000ba64:	2200      	movs	r2, #0
1000ba66:	4648      	mov	r0, r9
1000ba68:	463d      	mov	r5, r7
1000ba6a:	461c      	mov	r4, r3
1000ba6c:	4694      	mov	ip, r2
1000ba6e:	8802      	ldrh	r2, [r0, #0]
1000ba70:	b29b      	uxth	r3, r3
1000ba72:	fb01 c202 	mla	r2, r1, r2, ip
1000ba76:	eb02 4214 	add.w	r2, r2, r4, lsr #16
1000ba7a:	ea43 4302 	orr.w	r3, r3, r2, lsl #16
1000ba7e:	f845 3b04 	str.w	r3, [r5], #4
1000ba82:	f850 3b04 	ldr.w	r3, [r0], #4
1000ba86:	682c      	ldr	r4, [r5, #0]
1000ba88:	ea4f 4c13 	mov.w	ip, r3, lsr #16
1000ba8c:	4586      	cmp	lr, r0
1000ba8e:	b2a3      	uxth	r3, r4
1000ba90:	fb01 330c 	mla	r3, r1, ip, r3
1000ba94:	eb03 4312 	add.w	r3, r3, r2, lsr #16
1000ba98:	ea4f 4c13 	mov.w	ip, r3, lsr #16
1000ba9c:	d8e7      	bhi.n	1000ba6e <__multiply+0xf2>
1000ba9e:	eb07 020b 	add.w	r2, r7, fp
1000baa2:	45b0      	cmp	r8, r6
1000baa4:	f107 0704 	add.w	r7, r7, #4
1000baa8:	6053      	str	r3, [r2, #4]
1000baaa:	d8b0      	bhi.n	1000ba0e <__multiply+0x92>
1000baac:	4650      	mov	r0, sl
1000baae:	e9dd e402 	ldrd	lr, r4, [sp, #8]
1000bab2:	2c00      	cmp	r4, #0
1000bab4:	dc02      	bgt.n	1000babc <__multiply+0x140>
1000bab6:	e005      	b.n	1000bac4 <__multiply+0x148>
1000bab8:	3c01      	subs	r4, #1
1000baba:	d003      	beq.n	1000bac4 <__multiply+0x148>
1000babc:	f85e 3d04 	ldr.w	r3, [lr, #-4]!
1000bac0:	2b00      	cmp	r3, #0
1000bac2:	d0f9      	beq.n	1000bab8 <__multiply+0x13c>
1000bac4:	6104      	str	r4, [r0, #16]
1000bac6:	b005      	add	sp, #20
1000bac8:	e8bd 8ff0 	ldmia.w	sp!, {r4, r5, r6, r7, r8, r9, sl, fp, pc}
1000bacc:	4602      	mov	r2, r0
1000bace:	4b03      	ldr	r3, [pc, #12]	@ (1000badc <__multiply+0x160>)
1000bad0:	f44f 71b1 	mov.w	r1, #354	@ 0x162
1000bad4:	4802      	ldr	r0, [pc, #8]	@ (1000bae0 <__multiply+0x164>)
1000bad6:	f7f8 f96d 	bl	10003db4 <__assert_func>
1000bada:	bf00      	nop
1000badc:	1000c94c 	.word	0x1000c94c
1000bae0:	1000c9c0 	.word	0x1000c9c0

1000bae4 <__pow5mult>:
1000bae4:	f012 0303 	ands.w	r3, r2, #3
1000bae8:	e92d 41f0 	stmdb	sp!, {r4, r5, r6, r7, r8, lr}
1000baec:	4614      	mov	r4, r2
1000baee:	4607      	mov	r7, r0
1000baf0:	d132      	bne.n	1000bb58 <__pow5mult+0x74>
1000baf2:	460e      	mov	r6, r1
1000baf4:	10a4      	asrs	r4, r4, #2
1000baf6:	d02c      	beq.n	1000bb52 <__pow5mult+0x6e>
1000baf8:	6c3d      	ldr	r5, [r7, #64]	@ 0x40
1000bafa:	2d00      	cmp	r5, #0
1000bafc:	d035      	beq.n	1000bb6a <__pow5mult+0x86>
1000bafe:	f004 0301 	and.w	r3, r4, #1
1000bb02:	f04f 0800 	mov.w	r8, #0
1000bb06:	1064      	asrs	r4, r4, #1
1000bb08:	b93b      	cbnz	r3, 1000bb1a <__pow5mult+0x36>
1000bb0a:	6828      	ldr	r0, [r5, #0]
1000bb0c:	b1b8      	cbz	r0, 1000bb3e <__pow5mult+0x5a>
1000bb0e:	4605      	mov	r5, r0
1000bb10:	f004 0301 	and.w	r3, r4, #1
1000bb14:	1064      	asrs	r4, r4, #1
1000bb16:	2b00      	cmp	r3, #0
1000bb18:	d0f7      	beq.n	1000bb0a <__pow5mult+0x26>
1000bb1a:	462a      	mov	r2, r5
1000bb1c:	4631      	mov	r1, r6
1000bb1e:	4638      	mov	r0, r7
1000bb20:	f7ff ff2c 	bl	1000b97c <__multiply>
1000bb24:	b136      	cbz	r6, 1000bb34 <__pow5mult+0x50>
1000bb26:	6c7b      	ldr	r3, [r7, #68]	@ 0x44
1000bb28:	6871      	ldr	r1, [r6, #4]
1000bb2a:	f853 2021 	ldr.w	r2, [r3, r1, lsl #2]
1000bb2e:	6032      	str	r2, [r6, #0]
1000bb30:	f843 6021 	str.w	r6, [r3, r1, lsl #2]
1000bb34:	b174      	cbz	r4, 1000bb54 <__pow5mult+0x70>
1000bb36:	4606      	mov	r6, r0
1000bb38:	6828      	ldr	r0, [r5, #0]
1000bb3a:	2800      	cmp	r0, #0
1000bb3c:	d1e7      	bne.n	1000bb0e <__pow5mult+0x2a>
1000bb3e:	462a      	mov	r2, r5
1000bb40:	4629      	mov	r1, r5
1000bb42:	4638      	mov	r0, r7
1000bb44:	f7ff ff1a 	bl	1000b97c <__multiply>
1000bb48:	6028      	str	r0, [r5, #0]
1000bb4a:	4605      	mov	r5, r0
1000bb4c:	f8c0 8000 	str.w	r8, [r0]
1000bb50:	e7de      	b.n	1000bb10 <__pow5mult+0x2c>
1000bb52:	4630      	mov	r0, r6
1000bb54:	e8bd 81f0 	ldmia.w	sp!, {r4, r5, r6, r7, r8, pc}
1000bb58:	3b01      	subs	r3, #1
1000bb5a:	4a0f      	ldr	r2, [pc, #60]	@ (1000bb98 <__pow5mult+0xb4>)
1000bb5c:	f852 2023 	ldr.w	r2, [r2, r3, lsl #2]
1000bb60:	2300      	movs	r3, #0
1000bb62:	f7ff fdc9 	bl	1000b6f8 <__multadd>
1000bb66:	4606      	mov	r6, r0
1000bb68:	e7c4      	b.n	1000baf4 <__pow5mult+0x10>
1000bb6a:	2101      	movs	r1, #1
1000bb6c:	4638      	mov	r0, r7
1000bb6e:	f7ff fd93 	bl	1000b698 <_Balloc>
1000bb72:	4605      	mov	r5, r0
1000bb74:	b140      	cbz	r0, 1000bb88 <__pow5mult+0xa4>
1000bb76:	2301      	movs	r3, #1
1000bb78:	f240 2271 	movw	r2, #625	@ 0x271
1000bb7c:	e9c0 3204 	strd	r3, r2, [r0, #16]
1000bb80:	2300      	movs	r3, #0
1000bb82:	6438      	str	r0, [r7, #64]	@ 0x40
1000bb84:	6003      	str	r3, [r0, #0]
1000bb86:	e7ba      	b.n	1000bafe <__pow5mult+0x1a>
1000bb88:	4602      	mov	r2, r0
1000bb8a:	4b04      	ldr	r3, [pc, #16]	@ (1000bb9c <__pow5mult+0xb8>)
1000bb8c:	f240 1145 	movw	r1, #325	@ 0x145
1000bb90:	4803      	ldr	r0, [pc, #12]	@ (1000bba0 <__pow5mult+0xbc>)
1000bb92:	f7f8 f90f 	bl	10003db4 <__assert_func>
1000bb96:	bf00      	nop
1000bb98:	1000cf30 	.word	0x1000cf30
1000bb9c:	1000c94c 	.word	0x1000c94c
1000bba0:	1000c9c0 	.word	0x1000c9c0

1000bba4 <__lshift>:
1000bba4:	e92d 47f0 	stmdb	sp!, {r4, r5, r6, r7, r8, r9, sl, lr}
1000bba8:	460c      	mov	r4, r1
1000bbaa:	4690      	mov	r8, r2
1000bbac:	4606      	mov	r6, r0
1000bbae:	ea4f 1962 	mov.w	r9, r2, asr #5
1000bbb2:	6927      	ldr	r7, [r4, #16]
1000bbb4:	68a3      	ldr	r3, [r4, #8]
1000bbb6:	eb07 1762 	add.w	r7, r7, r2, asr #5
1000bbba:	6849      	ldr	r1, [r1, #4]
1000bbbc:	1c7d      	adds	r5, r7, #1
1000bbbe:	429d      	cmp	r5, r3
1000bbc0:	dd03      	ble.n	1000bbca <__lshift+0x26>
1000bbc2:	005b      	lsls	r3, r3, #1
1000bbc4:	3101      	adds	r1, #1
1000bbc6:	429d      	cmp	r5, r3
1000bbc8:	dcfb      	bgt.n	1000bbc2 <__lshift+0x1e>
1000bbca:	4630      	mov	r0, r6
1000bbcc:	f7ff fd64 	bl	1000b698 <_Balloc>
1000bbd0:	2800      	cmp	r0, #0
1000bbd2:	d04d      	beq.n	1000bc70 <__lshift+0xcc>
1000bbd4:	f1b9 0f00 	cmp.w	r9, #0
1000bbd8:	f100 0c14 	add.w	ip, r0, #20
1000bbdc:	dd0b      	ble.n	1000bbf6 <__lshift+0x52>
1000bbde:	f109 0205 	add.w	r2, r9, #5
1000bbe2:	4663      	mov	r3, ip
1000bbe4:	2100      	movs	r1, #0
1000bbe6:	eb00 0282 	add.w	r2, r0, r2, lsl #2
1000bbea:	f843 1b04 	str.w	r1, [r3], #4
1000bbee:	4293      	cmp	r3, r2
1000bbf0:	d1fb      	bne.n	1000bbea <__lshift+0x46>
1000bbf2:	eb0c 0c89 	add.w	ip, ip, r9, lsl #2
1000bbf6:	f104 0314 	add.w	r3, r4, #20
1000bbfa:	6921      	ldr	r1, [r4, #16]
1000bbfc:	f018 081f 	ands.w	r8, r8, #31
1000bc00:	eb03 0181 	add.w	r1, r3, r1, lsl #2
1000bc04:	d02b      	beq.n	1000bc5e <__lshift+0xba>
1000bc06:	f1c8 0920 	rsb	r9, r8, #32
1000bc0a:	46e6      	mov	lr, ip
1000bc0c:	f04f 0a00 	mov.w	sl, #0
1000bc10:	681a      	ldr	r2, [r3, #0]
1000bc12:	fa02 f208 	lsl.w	r2, r2, r8
1000bc16:	ea42 020a 	orr.w	r2, r2, sl
1000bc1a:	f84e 2b04 	str.w	r2, [lr], #4
1000bc1e:	f853 2b04 	ldr.w	r2, [r3], #4
1000bc22:	4299      	cmp	r1, r3
1000bc24:	fa22 fa09 	lsr.w	sl, r2, r9
1000bc28:	d8f2      	bhi.n	1000bc10 <__lshift+0x6c>
1000bc2a:	1b0b      	subs	r3, r1, r4
1000bc2c:	f104 0215 	add.w	r2, r4, #21
1000bc30:	3b15      	subs	r3, #21
1000bc32:	f023 0303 	bic.w	r3, r3, #3
1000bc36:	4291      	cmp	r1, r2
1000bc38:	bf38      	it	cc
1000bc3a:	2300      	movcc	r3, #0
1000bc3c:	3304      	adds	r3, #4
1000bc3e:	f84c a003 	str.w	sl, [ip, r3]
1000bc42:	f1ba 0f00 	cmp.w	sl, #0
1000bc46:	d100      	bne.n	1000bc4a <__lshift+0xa6>
1000bc48:	463d      	mov	r5, r7
1000bc4a:	6c73      	ldr	r3, [r6, #68]	@ 0x44
1000bc4c:	6862      	ldr	r2, [r4, #4]
1000bc4e:	6105      	str	r5, [r0, #16]
1000bc50:	f853 1022 	ldr.w	r1, [r3, r2, lsl #2]
1000bc54:	6021      	str	r1, [r4, #0]
1000bc56:	f843 4022 	str.w	r4, [r3, r2, lsl #2]
1000bc5a:	e8bd 87f0 	ldmia.w	sp!, {r4, r5, r6, r7, r8, r9, sl, pc}
1000bc5e:	f1ac 0c04 	sub.w	ip, ip, #4
1000bc62:	f853 2b04 	ldr.w	r2, [r3], #4
1000bc66:	4299      	cmp	r1, r3
1000bc68:	f84c 2f04 	str.w	r2, [ip, #4]!
1000bc6c:	d8f9      	bhi.n	1000bc62 <__lshift+0xbe>
1000bc6e:	e7eb      	b.n	1000bc48 <__lshift+0xa4>
1000bc70:	4602      	mov	r2, r0
1000bc72:	4b03      	ldr	r3, [pc, #12]	@ (1000bc80 <__lshift+0xdc>)
1000bc74:	f44f 71ef 	mov.w	r1, #478	@ 0x1de
1000bc78:	4802      	ldr	r0, [pc, #8]	@ (1000bc84 <__lshift+0xe0>)
1000bc7a:	f7f8 f89b 	bl	10003db4 <__assert_func>
1000bc7e:	bf00      	nop
1000bc80:	1000c94c 	.word	0x1000c94c
1000bc84:	1000c9c0 	.word	0x1000c9c0

1000bc88 <__mcmp>:
1000bc88:	4684      	mov	ip, r0
1000bc8a:	690b      	ldr	r3, [r1, #16]
1000bc8c:	6900      	ldr	r0, [r0, #16]
1000bc8e:	1ac0      	subs	r0, r0, r3
1000bc90:	d116      	bne.n	1000bcc0 <__mcmp+0x38>
1000bc92:	f10c 0c14 	add.w	ip, ip, #20
1000bc96:	3114      	adds	r1, #20
1000bc98:	eb0c 0283 	add.w	r2, ip, r3, lsl #2
1000bc9c:	eb01 0383 	add.w	r3, r1, r3, lsl #2
1000bca0:	b410      	push	{r4}
1000bca2:	e001      	b.n	1000bca8 <__mcmp+0x20>
1000bca4:	4594      	cmp	ip, r2
1000bca6:	d208      	bcs.n	1000bcba <__mcmp+0x32>
1000bca8:	f852 4d04 	ldr.w	r4, [r2, #-4]!
1000bcac:	f853 1d04 	ldr.w	r1, [r3, #-4]!
1000bcb0:	428c      	cmp	r4, r1
1000bcb2:	d0f7      	beq.n	1000bca4 <__mcmp+0x1c>
1000bcb4:	d205      	bcs.n	1000bcc2 <__mcmp+0x3a>
1000bcb6:	f04f 30ff 	mov.w	r0, #4294967295	@ 0xffffffff
1000bcba:	f85d 4b04 	ldr.w	r4, [sp], #4
1000bcbe:	4770      	bx	lr
1000bcc0:	4770      	bx	lr
1000bcc2:	2001      	movs	r0, #1
1000bcc4:	f85d 4b04 	ldr.w	r4, [sp], #4
1000bcc8:	4770      	bx	lr
1000bcca:	bf00      	nop

1000bccc <__mdiff>:
1000bccc:	e92d 4ff0 	stmdb	sp!, {r4, r5, r6, r7, r8, r9, sl, fp, lr}
1000bcd0:	6913      	ldr	r3, [r2, #16]
1000bcd2:	b083      	sub	sp, #12
1000bcd4:	690e      	ldr	r6, [r1, #16]
1000bcd6:	4689      	mov	r9, r1
1000bcd8:	4615      	mov	r5, r2
1000bcda:	1af6      	subs	r6, r6, r3
1000bcdc:	2e00      	cmp	r6, #0
1000bcde:	d114      	bne.n	1000bd0a <__mdiff+0x3e>
1000bce0:	f101 0714 	add.w	r7, r1, #20
1000bce4:	f102 0114 	add.w	r1, r2, #20
1000bce8:	eb01 0183 	add.w	r1, r1, r3, lsl #2
1000bcec:	eb07 0383 	add.w	r3, r7, r3, lsl #2
1000bcf0:	e001      	b.n	1000bcf6 <__mdiff+0x2a>
1000bcf2:	429f      	cmp	r7, r3
1000bcf4:	d27e      	bcs.n	1000bdf4 <__mdiff+0x128>
1000bcf6:	f853 4d04 	ldr.w	r4, [r3, #-4]!
1000bcfa:	f851 2d04 	ldr.w	r2, [r1, #-4]!
1000bcfe:	4294      	cmp	r4, r2
1000bd00:	d0f7      	beq.n	1000bcf2 <__mdiff+0x26>
1000bd02:	f080 8082 	bcs.w	1000be0a <__mdiff+0x13e>
1000bd06:	2601      	movs	r6, #1
1000bd08:	e003      	b.n	1000bd12 <__mdiff+0x46>
1000bd0a:	dbfc      	blt.n	1000bd06 <__mdiff+0x3a>
1000bd0c:	2600      	movs	r6, #0
1000bd0e:	460d      	mov	r5, r1
1000bd10:	4691      	mov	r9, r2
1000bd12:	6869      	ldr	r1, [r5, #4]
1000bd14:	f7ff fcc0 	bl	1000b698 <_Balloc>
1000bd18:	2800      	cmp	r0, #0
1000bd1a:	f000 8083 	beq.w	1000be24 <__mdiff+0x158>
1000bd1e:	692f      	ldr	r7, [r5, #16]
1000bd20:	f105 0b14 	add.w	fp, r5, #20
1000bd24:	f105 0210 	add.w	r2, r5, #16
1000bd28:	f8d9 3010 	ldr.w	r3, [r9, #16]
1000bd2c:	f109 0514 	add.w	r5, r9, #20
1000bd30:	f100 0114 	add.w	r1, r0, #20
1000bd34:	eb0b 0e87 	add.w	lr, fp, r7, lsl #2
1000bd38:	4694      	mov	ip, r2
1000bd3a:	eb05 0a83 	add.w	sl, r5, r3, lsl #2
1000bd3e:	4688      	mov	r8, r1
1000bd40:	2300      	movs	r3, #0
1000bd42:	60c6      	str	r6, [r0, #12]
1000bd44:	f8cd b004 	str.w	fp, [sp, #4]
1000bd48:	f855 6b04 	ldr.w	r6, [r5], #4
1000bd4c:	f85c 2f04 	ldr.w	r2, [ip, #4]!
1000bd50:	fa1f fb86 	uxth.w	fp, r6
1000bd54:	45aa      	cmp	sl, r5
1000bd56:	b294      	uxth	r4, r2
1000bd58:	eba4 040b 	sub.w	r4, r4, fp
1000bd5c:	441c      	add	r4, r3
1000bd5e:	ea4f 4316 	mov.w	r3, r6, lsr #16
1000bd62:	ebc3 4312 	rsb	r3, r3, r2, lsr #16
1000bd66:	eb03 4324 	add.w	r3, r3, r4, asr #16
1000bd6a:	b2a4      	uxth	r4, r4
1000bd6c:	ea44 4403 	orr.w	r4, r4, r3, lsl #16
1000bd70:	ea4f 4323 	mov.w	r3, r3, asr #16
1000bd74:	f848 4b04 	str.w	r4, [r8], #4
1000bd78:	d8e6      	bhi.n	1000bd48 <__mdiff+0x7c>
1000bd7a:	ebaa 0209 	sub.w	r2, sl, r9
1000bd7e:	f109 0915 	add.w	r9, r9, #21
1000bd82:	f8dd b004 	ldr.w	fp, [sp, #4]
1000bd86:	4626      	mov	r6, r4
1000bd88:	3a15      	subs	r2, #21
1000bd8a:	f022 0203 	bic.w	r2, r2, #3
1000bd8e:	45ca      	cmp	sl, r9
1000bd90:	bf38      	it	cc
1000bd92:	2200      	movcc	r2, #0
1000bd94:	eb0b 0802 	add.w	r8, fp, r2
1000bd98:	440a      	add	r2, r1
1000bd9a:	f108 0804 	add.w	r8, r8, #4
1000bd9e:	1d14      	adds	r4, r2, #4
1000bda0:	45c6      	cmp	lr, r8
1000bda2:	4645      	mov	r5, r8
1000bda4:	d935      	bls.n	1000be12 <__mdiff+0x146>
1000bda6:	eba1 010b 	sub.w	r1, r1, fp
1000bdaa:	eb05 0c01 	add.w	ip, r5, r1
1000bdae:	f855 2b04 	ldr.w	r2, [r5], #4
1000bdb2:	fa1f f982 	uxth.w	r9, r2
1000bdb6:	18d6      	adds	r6, r2, r3
1000bdb8:	0c12      	lsrs	r2, r2, #16
1000bdba:	45ae      	cmp	lr, r5
1000bdbc:	444b      	add	r3, r9
1000bdbe:	b2b6      	uxth	r6, r6
1000bdc0:	eb02 4223 	add.w	r2, r2, r3, asr #16
1000bdc4:	ea46 4602 	orr.w	r6, r6, r2, lsl #16
1000bdc8:	ea4f 4322 	mov.w	r3, r2, asr #16
1000bdcc:	f8cc 6000 	str.w	r6, [ip]
1000bdd0:	d8eb      	bhi.n	1000bdaa <__mdiff+0xde>
1000bdd2:	f10e 33ff 	add.w	r3, lr, #4294967295	@ 0xffffffff
1000bdd6:	eba3 0308 	sub.w	r3, r3, r8
1000bdda:	f023 0303 	bic.w	r3, r3, #3
1000bdde:	4423      	add	r3, r4
1000bde0:	b926      	cbnz	r6, 1000bdec <__mdiff+0x120>
1000bde2:	f853 2d04 	ldr.w	r2, [r3, #-4]!
1000bde6:	3f01      	subs	r7, #1
1000bde8:	2a00      	cmp	r2, #0
1000bdea:	d0fa      	beq.n	1000bde2 <__mdiff+0x116>
1000bdec:	6107      	str	r7, [r0, #16]
1000bdee:	b003      	add	sp, #12
1000bdf0:	e8bd 8ff0 	ldmia.w	sp!, {r4, r5, r6, r7, r8, r9, sl, fp, pc}
1000bdf4:	2100      	movs	r1, #0
1000bdf6:	f7ff fc4f 	bl	1000b698 <_Balloc>
1000bdfa:	b160      	cbz	r0, 1000be16 <__mdiff+0x14a>
1000bdfc:	2201      	movs	r2, #1
1000bdfe:	2300      	movs	r3, #0
1000be00:	e9c0 2304 	strd	r2, r3, [r0, #16]
1000be04:	b003      	add	sp, #12
1000be06:	e8bd 8ff0 	ldmia.w	sp!, {r4, r5, r6, r7, r8, r9, sl, fp, pc}
1000be0a:	462b      	mov	r3, r5
1000be0c:	464d      	mov	r5, r9
1000be0e:	4699      	mov	r9, r3
1000be10:	e77f      	b.n	1000bd12 <__mdiff+0x46>
1000be12:	4613      	mov	r3, r2
1000be14:	e7e4      	b.n	1000bde0 <__mdiff+0x114>
1000be16:	4602      	mov	r2, r0
1000be18:	4b06      	ldr	r3, [pc, #24]	@ (1000be34 <__mdiff+0x168>)
1000be1a:	f240 2137 	movw	r1, #567	@ 0x237
1000be1e:	4806      	ldr	r0, [pc, #24]	@ (1000be38 <__mdiff+0x16c>)
1000be20:	f7f7 ffc8 	bl	10003db4 <__assert_func>
1000be24:	4602      	mov	r2, r0
1000be26:	4b03      	ldr	r3, [pc, #12]	@ (1000be34 <__mdiff+0x168>)
1000be28:	f240 2145 	movw	r1, #581	@ 0x245
1000be2c:	4802      	ldr	r0, [pc, #8]	@ (1000be38 <__mdiff+0x16c>)
1000be2e:	f7f7 ffc1 	bl	10003db4 <__assert_func>
1000be32:	bf00      	nop
1000be34:	1000c94c 	.word	0x1000c94c
1000be38:	1000c9c0 	.word	0x1000c9c0

1000be3c <__ulp>:
1000be3c:	4b11      	ldr	r3, [pc, #68]	@ (1000be84 <__ulp+0x48>)
1000be3e:	400b      	ands	r3, r1
1000be40:	f1a3 7350 	sub.w	r3, r3, #54525952	@ 0x3400000
1000be44:	2b00      	cmp	r3, #0
1000be46:	dd03      	ble.n	1000be50 <__ulp+0x14>
1000be48:	2200      	movs	r2, #0
1000be4a:	4619      	mov	r1, r3
1000be4c:	4610      	mov	r0, r2
1000be4e:	4770      	bx	lr
1000be50:	425b      	negs	r3, r3
1000be52:	f1b3 7fa0 	cmp.w	r3, #20971520	@ 0x1400000
1000be56:	ea4f 5123 	mov.w	r1, r3, asr #20
1000be5a:	da06      	bge.n	1000be6a <__ulp+0x2e>
1000be5c:	f44f 2300 	mov.w	r3, #524288	@ 0x80000
1000be60:	2200      	movs	r2, #0
1000be62:	410b      	asrs	r3, r1
1000be64:	4610      	mov	r0, r2
1000be66:	4619      	mov	r1, r3
1000be68:	4770      	bx	lr
1000be6a:	3914      	subs	r1, #20
1000be6c:	291e      	cmp	r1, #30
1000be6e:	dd04      	ble.n	1000be7a <__ulp+0x3e>
1000be70:	2201      	movs	r2, #1
1000be72:	2300      	movs	r3, #0
1000be74:	4610      	mov	r0, r2
1000be76:	4619      	mov	r1, r3
1000be78:	4770      	bx	lr
1000be7a:	f04f 4200 	mov.w	r2, #2147483648	@ 0x80000000
1000be7e:	40ca      	lsrs	r2, r1
1000be80:	e7f7      	b.n	1000be72 <__ulp+0x36>
1000be82:	bf00      	nop
1000be84:	7ff00000 	.word	0x7ff00000

1000be88 <__b2d>:
1000be88:	e92d 43f8 	stmdb	sp!, {r3, r4, r5, r6, r7, r8, r9, lr}
1000be8c:	6906      	ldr	r6, [r0, #16]
1000be8e:	f100 0814 	add.w	r8, r0, #20
1000be92:	eb08 0686 	add.w	r6, r8, r6, lsl #2
1000be96:	f856 7c04 	ldr.w	r7, [r6, #-4]
1000be9a:	f1a6 0904 	sub.w	r9, r6, #4
1000be9e:	4638      	mov	r0, r7
1000bea0:	f7ff fcd4 	bl	1000b84c <__hi0bits>
1000bea4:	f1c0 0320 	rsb	r3, r0, #32
1000bea8:	280a      	cmp	r0, #10
1000beaa:	600b      	str	r3, [r1, #0]
1000beac:	dd34      	ble.n	1000bf18 <__b2d+0x90>
1000beae:	45c8      	cmp	r8, r9
1000beb0:	f1a0 020b 	sub.w	r2, r0, #11
1000beb4:	d21a      	bcs.n	1000beec <__b2d+0x64>
1000beb6:	f856 3c08 	ldr.w	r3, [r6, #-8]
1000beba:	b32a      	cbz	r2, 1000bf08 <__b2d+0x80>
1000bebc:	f1c2 0020 	rsb	r0, r2, #32
1000bec0:	4097      	lsls	r7, r2
1000bec2:	f1a6 0108 	sub.w	r1, r6, #8
1000bec6:	fa23 f400 	lsr.w	r4, r3, r0
1000beca:	4093      	lsls	r3, r2
1000becc:	4588      	cmp	r8, r1
1000bece:	ea47 0704 	orr.w	r7, r7, r4
1000bed2:	f047 557f 	orr.w	r5, r7, #1069547520	@ 0x3fc00000
1000bed6:	f445 1540 	orr.w	r5, r5, #3145728	@ 0x300000
1000beda:	d219      	bcs.n	1000bf10 <__b2d+0x88>
1000bedc:	f856 2c0c 	ldr.w	r2, [r6, #-12]
1000bee0:	4629      	mov	r1, r5
1000bee2:	40c2      	lsrs	r2, r0
1000bee4:	4313      	orrs	r3, r2
1000bee6:	4618      	mov	r0, r3
1000bee8:	e8bd 83f8 	ldmia.w	sp!, {r3, r4, r5, r6, r7, r8, r9, pc}
1000beec:	280b      	cmp	r0, #11
1000beee:	d00a      	beq.n	1000bf06 <__b2d+0x7e>
1000bef0:	fa07 f202 	lsl.w	r2, r7, r2
1000bef4:	2300      	movs	r3, #0
1000bef6:	f042 557f 	orr.w	r5, r2, #1069547520	@ 0x3fc00000
1000befa:	4618      	mov	r0, r3
1000befc:	f445 1540 	orr.w	r5, r5, #3145728	@ 0x300000
1000bf00:	4629      	mov	r1, r5
1000bf02:	e8bd 83f8 	ldmia.w	sp!, {r3, r4, r5, r6, r7, r8, r9, pc}
1000bf06:	2300      	movs	r3, #0
1000bf08:	f047 557f 	orr.w	r5, r7, #1069547520	@ 0x3fc00000
1000bf0c:	f445 1540 	orr.w	r5, r5, #3145728	@ 0x300000
1000bf10:	4618      	mov	r0, r3
1000bf12:	4629      	mov	r1, r5
1000bf14:	e8bd 83f8 	ldmia.w	sp!, {r3, r4, r5, r6, r7, r8, r9, pc}
1000bf18:	f1c0 030b 	rsb	r3, r0, #11
1000bf1c:	45c8      	cmp	r8, r9
1000bf1e:	fa27 f203 	lsr.w	r2, r7, r3
1000bf22:	f042 557f 	orr.w	r5, r2, #1069547520	@ 0x3fc00000
1000bf26:	f445 1540 	orr.w	r5, r5, #3145728	@ 0x300000
1000bf2a:	d309      	bcc.n	1000bf40 <__b2d+0xb8>
1000bf2c:	2200      	movs	r2, #0
1000bf2e:	f100 0315 	add.w	r3, r0, #21
1000bf32:	4629      	mov	r1, r5
1000bf34:	fa07 f303 	lsl.w	r3, r7, r3
1000bf38:	4313      	orrs	r3, r2
1000bf3a:	4618      	mov	r0, r3
1000bf3c:	e8bd 83f8 	ldmia.w	sp!, {r3, r4, r5, r6, r7, r8, r9, pc}
1000bf40:	f856 2c08 	ldr.w	r2, [r6, #-8]
1000bf44:	40da      	lsrs	r2, r3
1000bf46:	e7f2      	b.n	1000bf2e <__b2d+0xa6>

1000bf48 <__d2b>:
1000bf48:	b5f0      	push	{r4, r5, r6, r7, lr}
1000bf4a:	2101      	movs	r1, #1
1000bf4c:	b083      	sub	sp, #12
1000bf4e:	4616      	mov	r6, r2
1000bf50:	461f      	mov	r7, r3
1000bf52:	f7ff fba1 	bl	1000b698 <_Balloc>
1000bf56:	4605      	mov	r5, r0
1000bf58:	2800      	cmp	r0, #0
1000bf5a:	d047      	beq.n	1000bfec <__d2b+0xa4>
1000bf5c:	f3c7 540a 	ubfx	r4, r7, #20, #11
1000bf60:	f3c7 0313 	ubfx	r3, r7, #0, #20
1000bf64:	b10c      	cbz	r4, 1000bf6a <__d2b+0x22>
1000bf66:	f443 1380 	orr.w	r3, r3, #1048576	@ 0x100000
1000bf6a:	2e00      	cmp	r6, #0
1000bf6c:	9301      	str	r3, [sp, #4]
1000bf6e:	d115      	bne.n	1000bf9c <__d2b+0x54>
1000bf70:	a801      	add	r0, sp, #4
1000bf72:	f7ff fc95 	bl	1000b8a0 <__lo0bits>
1000bf76:	9a01      	ldr	r2, [sp, #4]
1000bf78:	2101      	movs	r1, #1
1000bf7a:	f100 0320 	add.w	r3, r0, #32
1000bf7e:	616a      	str	r2, [r5, #20]
1000bf80:	6129      	str	r1, [r5, #16]
1000bf82:	b31c      	cbz	r4, 1000bfcc <__d2b+0x84>
1000bf84:	f2a4 4433 	subw	r4, r4, #1075	@ 0x433
1000bf88:	f1c3 0035 	rsb	r0, r3, #53	@ 0x35
1000bf8c:	441c      	add	r4, r3
1000bf8e:	9b08      	ldr	r3, [sp, #32]
1000bf90:	601c      	str	r4, [r3, #0]
1000bf92:	9b09      	ldr	r3, [sp, #36]	@ 0x24
1000bf94:	6018      	str	r0, [r3, #0]
1000bf96:	4628      	mov	r0, r5
1000bf98:	b003      	add	sp, #12
1000bf9a:	bdf0      	pop	{r4, r5, r6, r7, pc}
1000bf9c:	4668      	mov	r0, sp
1000bf9e:	9600      	str	r6, [sp, #0]
1000bfa0:	f7ff fc7e 	bl	1000b8a0 <__lo0bits>
1000bfa4:	4603      	mov	r3, r0
1000bfa6:	e9dd 1200 	ldrd	r1, r2, [sp]
1000bfaa:	b130      	cbz	r0, 1000bfba <__d2b+0x72>
1000bfac:	f1c0 0020 	rsb	r0, r0, #32
1000bfb0:	fa02 f000 	lsl.w	r0, r2, r0
1000bfb4:	40da      	lsrs	r2, r3
1000bfb6:	4301      	orrs	r1, r0
1000bfb8:	9201      	str	r2, [sp, #4]
1000bfba:	2a00      	cmp	r2, #0
1000bfbc:	e9c5 1205 	strd	r1, r2, [r5, #20]
1000bfc0:	bf0c      	ite	eq
1000bfc2:	2101      	moveq	r1, #1
1000bfc4:	2102      	movne	r1, #2
1000bfc6:	6129      	str	r1, [r5, #16]
1000bfc8:	2c00      	cmp	r4, #0
1000bfca:	d1db      	bne.n	1000bf84 <__d2b+0x3c>
1000bfcc:	f2a3 4332 	subw	r3, r3, #1074	@ 0x432
1000bfd0:	eb05 0281 	add.w	r2, r5, r1, lsl #2
1000bfd4:	9808      	ldr	r0, [sp, #32]
1000bfd6:	6003      	str	r3, [r0, #0]
1000bfd8:	6910      	ldr	r0, [r2, #16]
1000bfda:	f7ff fc37 	bl	1000b84c <__hi0bits>
1000bfde:	9b09      	ldr	r3, [sp, #36]	@ 0x24
1000bfe0:	ebc0 1041 	rsb	r0, r0, r1, lsl #5
1000bfe4:	6018      	str	r0, [r3, #0]
1000bfe6:	4628      	mov	r0, r5
1000bfe8:	b003      	add	sp, #12
1000bfea:	bdf0      	pop	{r4, r5, r6, r7, pc}
1000bfec:	4602      	mov	r2, r0
1000bfee:	4b03      	ldr	r3, [pc, #12]	@ (1000bffc <__d2b+0xb4>)
1000bff0:	f240 310f 	movw	r1, #783	@ 0x30f
1000bff4:	4802      	ldr	r0, [pc, #8]	@ (1000c000 <__d2b+0xb8>)
1000bff6:	f7f7 fedd 	bl	10003db4 <__assert_func>
1000bffa:	bf00      	nop
1000bffc:	1000c94c 	.word	0x1000c94c
1000c000:	1000c9c0 	.word	0x1000c9c0

1000c004 <__ratio>:
1000c004:	e92d 43f0 	stmdb	sp!, {r4, r5, r6, r7, r8, r9, lr}
1000c008:	b083      	sub	sp, #12
1000c00a:	4688      	mov	r8, r1
1000c00c:	4681      	mov	r9, r0
1000c00e:	4669      	mov	r1, sp
1000c010:	f7ff ff3a 	bl	1000be88 <__b2d>
1000c014:	4604      	mov	r4, r0
1000c016:	460d      	mov	r5, r1
1000c018:	4640      	mov	r0, r8
1000c01a:	a901      	add	r1, sp, #4
1000c01c:	f7ff ff34 	bl	1000be88 <__b2d>
1000c020:	f8d9 3010 	ldr.w	r3, [r9, #16]
1000c024:	f8d8 2010 	ldr.w	r2, [r8, #16]
1000c028:	eba3 0c02 	sub.w	ip, r3, r2
1000c02c:	e9dd 3200 	ldrd	r3, r2, [sp]
1000c030:	1a9b      	subs	r3, r3, r2
1000c032:	eb03 134c 	add.w	r3, r3, ip, lsl #5
1000c036:	2b00      	cmp	r3, #0
1000c038:	dd0b      	ble.n	1000c052 <__ratio+0x4e>
1000c03a:	eb05 5703 	add.w	r7, r5, r3, lsl #20
1000c03e:	463d      	mov	r5, r7
1000c040:	4602      	mov	r2, r0
1000c042:	460b      	mov	r3, r1
1000c044:	4620      	mov	r0, r4
1000c046:	4629      	mov	r1, r5
1000c048:	f7f6 f9c8 	bl	100023dc <__wrap___aeabi_ddiv>
1000c04c:	b003      	add	sp, #12
1000c04e:	e8bd 83f0 	ldmia.w	sp!, {r4, r5, r6, r7, r8, r9, pc}
1000c052:	ebc3 3303 	rsb	r3, r3, r3, lsl #12
1000c056:	eb01 5903 	add.w	r9, r1, r3, lsl #20
1000c05a:	4649      	mov	r1, r9
1000c05c:	e7f0      	b.n	1000c040 <__ratio+0x3c>
1000c05e:	bf00      	nop

1000c060 <__copybits>:
1000c060:	3901      	subs	r1, #1
1000c062:	f102 0314 	add.w	r3, r2, #20
1000c066:	ea4f 1c61 	mov.w	ip, r1, asr #5
1000c06a:	6911      	ldr	r1, [r2, #16]
1000c06c:	eb03 0181 	add.w	r1, r3, r1, lsl #2
1000c070:	f10c 0c01 	add.w	ip, ip, #1
1000c074:	428b      	cmp	r3, r1
1000c076:	eb00 0c8c 	add.w	ip, r0, ip, lsl #2
1000c07a:	d216      	bcs.n	1000c0aa <__copybits+0x4a>
1000c07c:	b510      	push	{r4, lr}
1000c07e:	f1a0 0e04 	sub.w	lr, r0, #4
1000c082:	f853 4b04 	ldr.w	r4, [r3], #4
1000c086:	4299      	cmp	r1, r3
1000c088:	f84e 4f04 	str.w	r4, [lr, #4]!
1000c08c:	d8f9      	bhi.n	1000c082 <__copybits+0x22>
1000c08e:	1a89      	subs	r1, r1, r2
1000c090:	3004      	adds	r0, #4
1000c092:	3915      	subs	r1, #21
1000c094:	f021 0103 	bic.w	r1, r1, #3
1000c098:	4408      	add	r0, r1
1000c09a:	4584      	cmp	ip, r0
1000c09c:	d904      	bls.n	1000c0a8 <__copybits+0x48>
1000c09e:	2300      	movs	r3, #0
1000c0a0:	f840 3b04 	str.w	r3, [r0], #4
1000c0a4:	4584      	cmp	ip, r0
1000c0a6:	d8fb      	bhi.n	1000c0a0 <__copybits+0x40>
1000c0a8:	bd10      	pop	{r4, pc}
1000c0aa:	4584      	cmp	ip, r0
1000c0ac:	d905      	bls.n	1000c0ba <__copybits+0x5a>
1000c0ae:	2300      	movs	r3, #0
1000c0b0:	f840 3b04 	str.w	r3, [r0], #4
1000c0b4:	4584      	cmp	ip, r0
1000c0b6:	d8fb      	bhi.n	1000c0b0 <__copybits+0x50>
1000c0b8:	4770      	bx	lr
1000c0ba:	4770      	bx	lr

1000c0bc <__any_on>:
1000c0bc:	6903      	ldr	r3, [r0, #16]
1000c0be:	114a      	asrs	r2, r1, #5
1000c0c0:	3014      	adds	r0, #20
1000c0c2:	4293      	cmp	r3, r2
1000c0c4:	da09      	bge.n	1000c0da <__any_on+0x1e>
1000c0c6:	eb00 0383 	add.w	r3, r0, r3, lsl #2
1000c0ca:	e002      	b.n	1000c0d2 <__any_on+0x16>
1000c0cc:	f853 2d04 	ldr.w	r2, [r3, #-4]!
1000c0d0:	b9aa      	cbnz	r2, 1000c0fe <__any_on+0x42>
1000c0d2:	4283      	cmp	r3, r0
1000c0d4:	d8fa      	bhi.n	1000c0cc <__any_on+0x10>
1000c0d6:	2000      	movs	r0, #0
1000c0d8:	4770      	bx	lr
1000c0da:	eb00 0382 	add.w	r3, r0, r2, lsl #2
1000c0de:	ddf8      	ble.n	1000c0d2 <__any_on+0x16>
1000c0e0:	f011 011f 	ands.w	r1, r1, #31
1000c0e4:	d0f5      	beq.n	1000c0d2 <__any_on+0x16>
1000c0e6:	b410      	push	{r4}
1000c0e8:	f850 4022 	ldr.w	r4, [r0, r2, lsl #2]
1000c0ec:	fa24 f201 	lsr.w	r2, r4, r1
1000c0f0:	408a      	lsls	r2, r1
1000c0f2:	4294      	cmp	r4, r2
1000c0f4:	d009      	beq.n	1000c10a <__any_on+0x4e>
1000c0f6:	2001      	movs	r0, #1
1000c0f8:	f85d 4b04 	ldr.w	r4, [sp], #4
1000c0fc:	4770      	bx	lr
1000c0fe:	2001      	movs	r0, #1
1000c100:	4770      	bx	lr
1000c102:	f853 2d04 	ldr.w	r2, [r3, #-4]!
1000c106:	2a00      	cmp	r2, #0
1000c108:	d1f5      	bne.n	1000c0f6 <__any_on+0x3a>
1000c10a:	4283      	cmp	r3, r0
1000c10c:	d8f9      	bhi.n	1000c102 <__any_on+0x46>
1000c10e:	2000      	movs	r0, #0
1000c110:	f85d 4b04 	ldr.w	r4, [sp], #4
1000c114:	4770      	bx	lr
1000c116:	bf00      	nop

1000c118 <_fini>:
1000c118:	b5f8      	push	{r3, r4, r5, r6, r7, lr}
1000c11a:	bf00      	nop
1000c11c:	0000      	movs	r0, r0
	...

1000c120 <__e15_is_critical_frame_period_veneer>:
1000c120:	f85f f000 	ldr.w	pc, [pc]	@ 1000c124 <__e15_is_critical_frame_period_veneer+0x4>
1000c124:	2000069d 	.word	0x2000069d

1000c128 <__mutex_enter_timeout_ms_veneer>:
1000c128:	f85f f000 	ldr.w	pc, [pc]	@ 1000c12c <__mutex_enter_timeout_ms_veneer+0x4>
1000c12c:	20000235 	.word	0x20000235

1000c130 <__hw_endpoint_start_next_buffer_veneer>:
1000c130:	f85f f000 	ldr.w	pc, [pc]	@ 1000c134 <__hw_endpoint_start_next_buffer_veneer+0x4>
1000c134:	20000715 	.word	0x20000715

1000c138 <__e15_is_bulkin_ep_veneer>:
1000c138:	f85f f000 	ldr.w	pc, [pc]	@ 1000c13c <__e15_is_bulkin_ep_veneer+0x4>
1000c13c:	20000675 	.word	0x20000675

1000c140 <____aeabi_uldivmod_veneer>:
1000c140:	f85f f000 	ldr.w	pc, [pc]	@ 1000c144 <____aeabi_uldivmod_veneer+0x4>
1000c144:	20000a6d 	.word	0x20000a6d

1000c148 <__mutex_exit_veneer>:
1000c148:	f85f f000 	ldr.w	pc, [pc]	@ 1000c14c <__mutex_exit_veneer+0x4>
1000c14c:	2000026d 	.word	0x2000026d

1000c150 <__spi_write_read_blocking_veneer>:
1000c150:	f85f f000 	ldr.w	pc, [pc]	@ 1000c154 <__spi_write_read_blocking_veneer+0x4>
1000c154:	200009dd 	.word	0x200009dd

1000c158 <___hw_endpoint_buffer_control_update32_veneer>:
1000c158:	f85f f000 	ldr.w	pc, [pc]	@ 1000c15c <___hw_endpoint_buffer_control_update32_veneer+0x4>
1000c15c:	200006d1 	.word	0x200006d1

1000c160 <__mutex_try_enter_block_until_veneer>:
1000c160:	f85f f000 	ldr.w	pc, [pc]	@ 1000c164 <__mutex_try_enter_block_until_veneer+0x4>
1000c164:	200001cd 	.word	0x200001cd

1000c168 <__mutex_try_enter_veneer>:
1000c168:	f85f f000 	ldr.w	pc, [pc]	@ 1000c16c <__mutex_try_enter_veneer+0x4>
1000c16c:	20000111 	.word	0x20000111

1000c170 <__reset_non_control_endpoints_veneer>:
1000c170:	f85f f000 	ldr.w	pc, [pc]	@ 1000c174 <__reset_non_control_endpoints_veneer+0x4>
1000c174:	200002a9 	.word	0x200002a9

1000c178 <__pre_init_runtime_init_bootrom_reset>:
1000c178:	100021d5                                .!..

1000c17c <__pre_init_runtime_init_early_resets>:
1000c17c:	10002149                                I!..

1000c180 <__pre_init_runtime_init_usb_power_down>:
1000c180:	1000217d                                }!..

1000c184 <__pre_init_runtime_init_clocks>:
1000c184:	10002221                                !"..

1000c188 <__pre_init_runtime_init_post_clock_resets>:
1000c188:	100021b5                                .!..

1000c18c <__pre_init_runtime_init_boot_locks_reset>:
1000c18c:	100020cd                                . ..

1000c190 <__pre_init_runtime_init_spin_locks_reset>:
1000c190:	100021fd                                .!..

1000c194 <__pre_init_runtime_init_bootrom_locking_enable>:
1000c194:	100020b9                                . ..

1000c198 <__pre_init_runtime_init_mutex>:
1000c198:	100015b1                                ....

1000c19c <__pre_init_runtime_init_install_ram_vector_table>:
1000c19c:	10002201                                ."..

1000c1a0 <__pre_init_runtime_init_default_alarm_pool>:
1000c1a0:	10001969                                i...

1000c1a4 <__pre_init_first_per_core_initializer>:
1000c1a4:	10002119                                .!..

1000c1a8 <__pre_init_runtime_init_per_core_bootrom_reset>:
1000c1a8:	100021e9                                .!..

1000c1ac <__pre_init_runtime_init_per_core_enable_coprocessors>:
1000c1ac:	10002199                                .!..

1000c1b0 <__pre_init_spinlock_set_extexclall>:
1000c1b0:	100011c5                                ....

1000c1b4 <__pre_init_runtime_init_per_core_irq_priorities>:
1000c1b4:	100011ed                                ....

1000c1b8 <__frame_dummy_init_array_entry>:
1000c1b8:	10000215 10004785                       .....G..

Disassembly of section .data:

20000110 <mutex_try_enter>:
20000110:	b500      	push	{lr}
20000112:	4603      	mov	r3, r0
20000114:	6802      	ldr	r2, [r0, #0]
20000116:	f3ef 8c10 	mrs	ip, PRIMASK
2000011a:	b672      	cpsid	i
2000011c:	e8d2 efcf 	ldaexb	lr, [r2]
20000120:	2001      	movs	r0, #1
20000122:	f1be 0f00 	cmp.w	lr, #0
20000126:	d1f9      	bne.n	2000011c <mutex_try_enter+0xc>
20000128:	e8c2 0f4e 	strexb	lr, r0, [r2]
2000012c:	f1be 0f00 	cmp.w	lr, #0
20000130:	d1f4      	bne.n	2000011c <mutex_try_enter+0xc>
20000132:	f3bf 8f5f 	dmb	sy
20000136:	f993 2004 	ldrsb.w	r2, [r3, #4]
2000013a:	2a00      	cmp	r2, #0
2000013c:	db09      	blt.n	20000152 <mutex_try_enter+0x42>
2000013e:	b101      	cbz	r1, 20000142 <mutex_try_enter+0x32>
20000140:	600a      	str	r2, [r1, #0]
20000142:	2000      	movs	r0, #0
20000144:	2200      	movs	r2, #0
20000146:	681b      	ldr	r3, [r3, #0]
20000148:	e8c3 2f8f 	stlb	r2, [r3]
2000014c:	f38c 8810 	msr	PRIMASK, ip
20000150:	bd00      	pop	{pc}
20000152:	f04f 4250 	mov.w	r2, #3489660928	@ 0xd0000000
20000156:	6812      	ldr	r2, [r2, #0]
20000158:	2001      	movs	r0, #1
2000015a:	711a      	strb	r2, [r3, #4]
2000015c:	e7f2      	b.n	20000144 <mutex_try_enter+0x34>
2000015e:	bf00      	nop

20000160 <mutex_enter_block_until>:
20000160:	f04f 4150 	mov.w	r1, #3489660928	@ 0xd0000000
20000164:	e92d 41f0 	stmdb	sp!, {r4, r5, r6, r7, r8, lr}
20000168:	2700      	movs	r7, #0
2000016a:	4604      	mov	r4, r0
2000016c:	4616      	mov	r6, r2
2000016e:	461d      	mov	r5, r3
20000170:	f8d1 8000 	ldr.w	r8, [r1]
20000174:	e008      	b.n	20000188 <mutex_enter_block_until+0x28>
20000176:	e8c1 7f8f 	stlb	r7, [r1]
2000017a:	f38c 8810 	msr	PRIMASK, ip
2000017e:	4630      	mov	r0, r6
20000180:	4629      	mov	r1, r5
20000182:	f000 fe35 	bl	20000df0 <__best_effort_wfe_or_timeout_veneer>
20000186:	b9e8      	cbnz	r0, 200001c4 <mutex_enter_block_until+0x64>
20000188:	6821      	ldr	r1, [r4, #0]
2000018a:	f3ef 8c10 	mrs	ip, PRIMASK
2000018e:	b672      	cpsid	i
20000190:	e8d1 2fcf 	ldaexb	r2, [r1]
20000194:	2301      	movs	r3, #1
20000196:	2a00      	cmp	r2, #0
20000198:	d1fa      	bne.n	20000190 <mutex_enter_block_until+0x30>
2000019a:	e8c1 3f42 	strexb	r2, r3, [r1]
2000019e:	2a00      	cmp	r2, #0
200001a0:	d1f6      	bne.n	20000190 <mutex_enter_block_until+0x30>
200001a2:	f3bf 8f5f 	dmb	sy
200001a6:	f994 3004 	ldrsb.w	r3, [r4, #4]
200001aa:	6821      	ldr	r1, [r4, #0]
200001ac:	2b00      	cmp	r3, #0
200001ae:	dae2      	bge.n	20000176 <mutex_enter_block_until+0x16>
200001b0:	2300      	movs	r3, #0
200001b2:	f884 8004 	strb.w	r8, [r4, #4]
200001b6:	e8c1 3f8f 	stlb	r3, [r1]
200001ba:	f38c 8810 	msr	PRIMASK, ip
200001be:	2001      	movs	r0, #1
200001c0:	e8bd 81f0 	ldmia.w	sp!, {r4, r5, r6, r7, r8, pc}
200001c4:	2000      	movs	r0, #0
200001c6:	e8bd 81f0 	ldmia.w	sp!, {r4, r5, r6, r7, r8, pc}
200001ca:	bf00      	nop

200001cc <mutex_try_enter_block_until>:
200001cc:	b530      	push	{r4, r5, lr}
200001ce:	6804      	ldr	r4, [r0, #0]
200001d0:	f3ef 8c10 	mrs	ip, PRIMASK
200001d4:	b672      	cpsid	i
200001d6:	e8d4 efcf 	ldaexb	lr, [r4]
200001da:	2501      	movs	r5, #1
200001dc:	f1be 0f00 	cmp.w	lr, #0
200001e0:	d1f9      	bne.n	200001d6 <mutex_try_enter_block_until+0xa>
200001e2:	e8c4 5f4e 	strexb	lr, r5, [r4]
200001e6:	f1be 0f00 	cmp.w	lr, #0
200001ea:	d1f4      	bne.n	200001d6 <mutex_try_enter_block_until+0xa>
200001ec:	f3bf 8f5f 	dmb	sy
200001f0:	f990 4004 	ldrsb.w	r4, [r0, #4]
200001f4:	6805      	ldr	r5, [r0, #0]
200001f6:	2c00      	cmp	r4, #0
200001f8:	db10      	blt.n	2000021c <mutex_try_enter_block_until+0x50>
200001fa:	2100      	movs	r1, #0
200001fc:	e8c5 1f8f 	stlb	r1, [r5]
20000200:	f38c 8810 	msr	PRIMASK, ip
20000204:	f04f 4550 	mov.w	r5, #3489660928	@ 0xd0000000
20000208:	f995 5000 	ldrsb.w	r5, [r5]
2000020c:	42a5      	cmp	r5, r4
2000020e:	d101      	bne.n	20000214 <mutex_try_enter_block_until+0x48>
20000210:	4608      	mov	r0, r1
20000212:	bd30      	pop	{r4, r5, pc}
20000214:	e8bd 4030 	ldmia.w	sp!, {r4, r5, lr}
20000218:	f7ff bfa2 	b.w	20000160 <mutex_enter_block_until>
2000021c:	f04f 4250 	mov.w	r2, #3489660928	@ 0xd0000000
20000220:	6812      	ldr	r2, [r2, #0]
20000222:	2300      	movs	r3, #0
20000224:	7102      	strb	r2, [r0, #4]
20000226:	e8c5 3f8f 	stlb	r3, [r5]
2000022a:	f38c 8810 	msr	PRIMASK, ip
2000022e:	2001      	movs	r0, #1
20000230:	bd30      	pop	{r4, r5, pc}
20000232:	bf00      	nop

20000234 <mutex_enter_timeout_ms>:
20000234:	b570      	push	{r4, r5, r6, lr}
20000236:	4605      	mov	r5, r0
20000238:	460c      	mov	r4, r1
2000023a:	f000 fde9 	bl	20000e10 <__time_us_64_veneer>
2000023e:	4602      	mov	r2, r0
20000240:	460b      	mov	r3, r1
20000242:	f44f 707a 	mov.w	r0, #1000	@ 0x3e8
20000246:	f04f 3eff 	mov.w	lr, #4294967295	@ 0xffffffff
2000024a:	f06f 4c00 	mvn.w	ip, #2147483648	@ 0x80000000
2000024e:	fbe4 2300 	umlal	r2, r3, r4, r0
20000252:	4596      	cmp	lr, r2
20000254:	eb7c 0103 	sbcs.w	r1, ip, r3
20000258:	bf38      	it	cc
2000025a:	4672      	movcc	r2, lr
2000025c:	4628      	mov	r0, r5
2000025e:	e8bd 4070 	ldmia.w	sp!, {r4, r5, r6, lr}
20000262:	bf38      	it	cc
20000264:	4663      	movcc	r3, ip
20000266:	f7ff bf7b 	b.w	20000160 <mutex_enter_block_until>
2000026a:	bf00      	nop

2000026c <mutex_exit>:
2000026c:	6803      	ldr	r3, [r0, #0]
2000026e:	f3ef 8210 	mrs	r2, PRIMASK
20000272:	b672      	cpsid	i
20000274:	e8d3 cfcf 	ldaexb	ip, [r3]
20000278:	2101      	movs	r1, #1
2000027a:	f1bc 0f00 	cmp.w	ip, #0
2000027e:	d1f9      	bne.n	20000274 <mutex_exit+0x8>
20000280:	e8c3 1f4c 	strexb	ip, r1, [r3]
20000284:	f1bc 0f00 	cmp.w	ip, #0
20000288:	d1f4      	bne.n	20000274 <mutex_exit+0x8>
2000028a:	f3bf 8f5f 	dmb	sy
2000028e:	f04f 0cff 	mov.w	ip, #255	@ 0xff
20000292:	2300      	movs	r3, #0
20000294:	6801      	ldr	r1, [r0, #0]
20000296:	f880 c004 	strb.w	ip, [r0, #4]
2000029a:	e8c1 3f8f 	stlb	r3, [r1]
2000029e:	f382 8810 	msr	PRIMASK, r2
200002a2:	bf40      	sev
200002a4:	4770      	bx	lr
200002a6:	bf00      	nop

200002a8 <reset_non_control_endpoints>:
200002a8:	2200      	movs	r2, #0
200002aa:	4611      	mov	r1, r2
200002ac:	b508      	push	{r3, lr}
200002ae:	00d3      	lsls	r3, r2, #3
200002b0:	f103 43a0 	add.w	r3, r3, #1342177280	@ 0x50000000
200002b4:	3201      	adds	r2, #1
200002b6:	f503 1380 	add.w	r3, r3, #1048576	@ 0x100000
200002ba:	2a0f      	cmp	r2, #15
200002bc:	6099      	str	r1, [r3, #8]
200002be:	60d9      	str	r1, [r3, #12]
200002c0:	d1f5      	bne.n	200002ae <reset_non_control_endpoints+0x6>
200002c2:	f44f 7270 	mov.w	r2, #960	@ 0x3c0
200002c6:	2100      	movs	r1, #0
200002c8:	4803      	ldr	r0, [pc, #12]	@ (200002d8 <reset_non_control_endpoints+0x30>)
200002ca:	f000 fda5 	bl	20000e18 <__memset_veneer>
200002ce:	4b03      	ldr	r3, [pc, #12]	@ (200002dc <reset_non_control_endpoints+0x34>)
200002d0:	4a03      	ldr	r2, [pc, #12]	@ (200002e0 <reset_non_control_endpoints+0x38>)
200002d2:	601a      	str	r2, [r3, #0]
200002d4:	bd08      	pop	{r3, pc}
200002d6:	bf00      	nop
200002d8:	20001f94 	.word	0x20001f94
200002dc:	20002360 	.word	0x20002360
200002e0:	50100180 	.word	0x50100180

200002e4 <hw_handle_buff_status>:
200002e4:	e92d 4ff0 	stmdb	sp!, {r4, r5, r6, r7, r8, r9, sl, fp, lr}
200002e8:	4b1f      	ldr	r3, [pc, #124]	@ (20000368 <hw_handle_buff_status+0x84>)
200002ea:	b085      	sub	sp, #20
200002ec:	f8d3 a058 	ldr.w	sl, [r3, #88]	@ 0x58
200002f0:	f1ba 0f00 	cmp.w	sl, #0
200002f4:	d022      	beq.n	2000033c <hw_handle_buff_status+0x58>
200002f6:	2400      	movs	r4, #0
200002f8:	2501      	movs	r5, #1
200002fa:	f44f 69e0 	mov.w	r9, #1792	@ 0x700
200002fe:	f8df 8070 	ldr.w	r8, [pc, #112]	@ 20000370 <hw_handle_buff_status+0x8c>
20000302:	4f1a      	ldr	r7, [pc, #104]	@ (2000036c <hw_handle_buff_status+0x88>)
20000304:	e001      	b.n	2000030a <hw_handle_buff_status+0x26>
20000306:	2c20      	cmp	r4, #32
20000308:	d018      	beq.n	2000033c <hw_handle_buff_status+0x58>
2000030a:	ea0a 0205 	and.w	r2, sl, r5
2000030e:	1c61      	adds	r1, r4, #1
20000310:	4623      	mov	r3, r4
20000312:	46ab      	mov	fp, r5
20000314:	b2cc      	uxtb	r4, r1
20000316:	006d      	lsls	r5, r5, #1
20000318:	2a00      	cmp	r2, #0
2000031a:	d0f4      	beq.n	20000306 <hw_handle_buff_status+0x22>
2000031c:	f004 0201 	and.w	r2, r4, #1
20000320:	f003 06fe 	and.w	r6, r3, #254	@ 0xfe
20000324:	4416      	add	r6, r2
20000326:	eb07 1646 	add.w	r6, r7, r6, lsl #5
2000032a:	4630      	mov	r0, r6
2000032c:	f8c8 b058 	str.w	fp, [r8, #88]	@ 0x58
20000330:	f000 fa22 	bl	20000778 <hw_endpoint_xfer_continue>
20000334:	b928      	cbnz	r0, 20000342 <hw_handle_buff_status+0x5e>
20000336:	ea3a 0a0b 	bics.w	sl, sl, fp
2000033a:	d1e4      	bne.n	20000306 <hw_handle_buff_status+0x22>
2000033c:	b005      	add	sp, #20
2000033e:	e8bd 8ff0 	ldmia.w	sp!, {r4, r5, r6, r7, r8, r9, sl, fp, pc}
20000342:	2300      	movs	r3, #0
20000344:	f88d 3009 	strb.w	r3, [sp, #9]
20000348:	78b3      	ldrb	r3, [r6, #2]
2000034a:	a801      	add	r0, sp, #4
2000034c:	f88d 3008 	strb.w	r3, [sp, #8]
20000350:	8af3      	ldrh	r3, [r6, #22]
20000352:	2101      	movs	r1, #1
20000354:	f8ad 9004 	strh.w	r9, [sp, #4]
20000358:	9303      	str	r3, [sp, #12]
2000035a:	f000 fa2b 	bl	200007b4 <dcd_event_handler>
2000035e:	4630      	mov	r0, r6
20000360:	f000 f9b0 	bl	200006c4 <hw_endpoint_reset_transfer>
20000364:	e7e7      	b.n	20000336 <hw_handle_buff_status+0x52>
20000366:	bf00      	nop
20000368:	50110000 	.word	0x50110000
2000036c:	20001f54 	.word	0x20001f54
20000370:	50113000 	.word	0x50113000

20000374 <dcd_rp2040_irq>:
20000374:	b5f0      	push	{r4, r5, r6, r7, lr}
20000376:	4b6e      	ldr	r3, [pc, #440]	@ (20000530 <dcd_rp2040_irq+0x1bc>)
20000378:	b085      	sub	sp, #20
2000037a:	f8d3 5098 	ldr.w	r5, [r3, #152]	@ 0x98
2000037e:	f415 3400 	ands.w	r4, r5, #131072	@ 0x20000
20000382:	d030      	beq.n	200003e6 <dcd_rp2040_irq+0x72>
20000384:	496b      	ldr	r1, [pc, #428]	@ (20000534 <dcd_rp2040_irq+0x1c0>)
20000386:	4b6c      	ldr	r3, [pc, #432]	@ (20000538 <dcd_rp2040_irq+0x1c4>)
20000388:	6a89      	ldr	r1, [r1, #40]	@ 0x28
2000038a:	4c6c      	ldr	r4, [pc, #432]	@ (2000053c <dcd_rp2040_irq+0x1c8>)
2000038c:	2200      	movs	r2, #0
2000038e:	6019      	str	r1, [r3, #0]
20000390:	f504 6680 	add.w	r6, r4, #1024	@ 0x400
20000394:	e002      	b.n	2000039c <dcd_rp2040_irq+0x28>
20000396:	3440      	adds	r4, #64	@ 0x40
20000398:	42a6      	cmp	r6, r4
2000039a:	d00c      	beq.n	200003b6 <dcd_rp2040_irq+0x42>
2000039c:	7ee3      	ldrb	r3, [r4, #27]
2000039e:	2b02      	cmp	r3, #2
200003a0:	d1f9      	bne.n	20000396 <dcd_rp2040_irq+0x22>
200003a2:	7ea7      	ldrb	r7, [r4, #26]
200003a4:	2f00      	cmp	r7, #0
200003a6:	d0f6      	beq.n	20000396 <dcd_rp2040_irq+0x22>
200003a8:	7f23      	ldrb	r3, [r4, #28]
200003aa:	2b00      	cmp	r3, #0
200003ac:	d14a      	bne.n	20000444 <dcd_rp2040_irq+0xd0>
200003ae:	463a      	mov	r2, r7
200003b0:	3440      	adds	r4, #64	@ 0x40
200003b2:	42a6      	cmp	r6, r4
200003b4:	d1f2      	bne.n	2000039c <dcd_rp2040_irq+0x28>
200003b6:	b93a      	cbnz	r2, 200003c8 <dcd_rp2040_irq+0x54>
200003b8:	4b61      	ldr	r3, [pc, #388]	@ (20000540 <dcd_rp2040_irq+0x1cc>)
200003ba:	781b      	ldrb	r3, [r3, #0]
200003bc:	b923      	cbnz	r3, 200003c8 <dcd_rp2040_irq+0x54>
200003be:	f44f 3200 	mov.w	r2, #131072	@ 0x20000
200003c2:	4b60      	ldr	r3, [pc, #384]	@ (20000544 <dcd_rp2040_irq+0x1d0>)
200003c4:	f8c3 2090 	str.w	r2, [r3, #144]	@ 0x90
200003c8:	f44f 7240 	mov.w	r2, #768	@ 0x300
200003cc:	4b58      	ldr	r3, [pc, #352]	@ (20000530 <dcd_rp2040_irq+0x1bc>)
200003ce:	2101      	movs	r1, #1
200003d0:	6c9b      	ldr	r3, [r3, #72]	@ 0x48
200003d2:	a801      	add	r0, sp, #4
200003d4:	f3c3 030a 	ubfx	r3, r3, #0, #11
200003d8:	9302      	str	r3, [sp, #8]
200003da:	f8ad 2004 	strh.w	r2, [sp, #4]
200003de:	f44f 3400 	mov.w	r4, #131072	@ 0x20000
200003e2:	f000 f9e7 	bl	200007b4 <dcd_event_handler>
200003e6:	06ea      	lsls	r2, r5, #27
200003e8:	d433      	bmi.n	20000452 <dcd_rp2040_irq+0xde>
200003ea:	03eb      	lsls	r3, r5, #15
200003ec:	d520      	bpl.n	20000430 <dcd_rp2040_irq+0xbc>
200003ee:	4e56      	ldr	r6, [pc, #344]	@ (20000548 <dcd_rp2040_irq+0x1d4>)
200003f0:	f444 3480 	orr.w	r4, r4, #65536	@ 0x10000
200003f4:	7eb3      	ldrb	r3, [r6, #26]
200003f6:	2b00      	cmp	r3, #0
200003f8:	d178      	bne.n	200004ec <dcd_rp2040_irq+0x178>
200003fa:	2301      	movs	r3, #1
200003fc:	f896 203a 	ldrb.w	r2, [r6, #58]	@ 0x3a
20000400:	70f3      	strb	r3, [r6, #3]
20000402:	2a00      	cmp	r2, #0
20000404:	d15d      	bne.n	200004c2 <dcd_rp2040_irq+0x14e>
20000406:	2301      	movs	r3, #1
20000408:	f44f 61c0 	mov.w	r1, #1536	@ 0x600
2000040c:	4a4f      	ldr	r2, [pc, #316]	@ (2000054c <dcd_rp2040_irq+0x1d8>)
2000040e:	f8ad 1004 	strh.w	r1, [sp, #4]
20000412:	f886 3023 	strb.w	r3, [r6, #35]	@ 0x23
20000416:	e892 0003 	ldmia.w	r2, {r0, r1}
2000041a:	aa04      	add	r2, sp, #16
2000041c:	e902 0003 	stmdb	r2, {r0, r1}
20000420:	4619      	mov	r1, r3
20000422:	a801      	add	r0, sp, #4
20000424:	f000 f9c6 	bl	200007b4 <dcd_event_handler>
20000428:	f44f 3200 	mov.w	r2, #131072	@ 0x20000
2000042c:	4b45      	ldr	r3, [pc, #276]	@ (20000544 <dcd_rp2040_irq+0x1d0>)
2000042e:	651a      	str	r2, [r3, #80]	@ 0x50
20000430:	04e9      	lsls	r1, r5, #19
20000432:	d430      	bmi.n	20000496 <dcd_rp2040_irq+0x122>
20000434:	046a      	lsls	r2, r5, #17
20000436:	d420      	bmi.n	2000047a <dcd_rp2040_irq+0x106>
20000438:	042b      	lsls	r3, r5, #16
2000043a:	d40f      	bmi.n	2000045c <dcd_rp2040_irq+0xe8>
2000043c:	42ac      	cmp	r4, r5
2000043e:	d171      	bne.n	20000524 <dcd_rp2040_irq+0x1b0>
20000440:	b005      	add	sp, #20
20000442:	bdf0      	pop	{r4, r5, r6, r7, pc}
20000444:	2300      	movs	r3, #0
20000446:	4620      	mov	r0, r4
20000448:	7723      	strb	r3, [r4, #28]
2000044a:	f000 f963 	bl	20000714 <hw_endpoint_start_next_buffer>
2000044e:	463a      	mov	r2, r7
20000450:	e7ae      	b.n	200003b0 <dcd_rp2040_irq+0x3c>
20000452:	f044 0410 	orr.w	r4, r4, #16
20000456:	f7ff ff45 	bl	200002e4 <hw_handle_buff_status>
2000045a:	e7c6      	b.n	200003ea <dcd_rp2040_irq+0x76>
2000045c:	f44f 63a0 	mov.w	r3, #1280	@ 0x500
20000460:	2101      	movs	r1, #1
20000462:	a801      	add	r0, sp, #4
20000464:	f8ad 3004 	strh.w	r3, [sp, #4]
20000468:	f000 f9a4 	bl	200007b4 <dcd_event_handler>
2000046c:	f44f 6200 	mov.w	r2, #2048	@ 0x800
20000470:	4b34      	ldr	r3, [pc, #208]	@ (20000544 <dcd_rp2040_irq+0x1d0>)
20000472:	f444 4400 	orr.w	r4, r4, #32768	@ 0x8000
20000476:	651a      	str	r2, [r3, #80]	@ 0x50
20000478:	e7e0      	b.n	2000043c <dcd_rp2040_irq+0xc8>
2000047a:	f44f 6380 	mov.w	r3, #1024	@ 0x400
2000047e:	2101      	movs	r1, #1
20000480:	a801      	add	r0, sp, #4
20000482:	f8ad 3004 	strh.w	r3, [sp, #4]
20000486:	f000 f995 	bl	200007b4 <dcd_event_handler>
2000048a:	2210      	movs	r2, #16
2000048c:	4b2d      	ldr	r3, [pc, #180]	@ (20000544 <dcd_rp2040_irq+0x1d0>)
2000048e:	f444 4480 	orr.w	r4, r4, #16384	@ 0x4000
20000492:	651a      	str	r2, [r3, #80]	@ 0x50
20000494:	e7d0      	b.n	20000438 <dcd_rp2040_irq+0xc4>
20000496:	2600      	movs	r6, #0
20000498:	4b25      	ldr	r3, [pc, #148]	@ (20000530 <dcd_rp2040_irq+0x1bc>)
2000049a:	f444 5480 	orr.w	r4, r4, #4096	@ 0x1000
2000049e:	601e      	str	r6, [r3, #0]
200004a0:	f7ff ff02 	bl	200002a8 <reset_non_control_endpoints>
200004a4:	f44f 7380 	mov.w	r3, #256	@ 0x100
200004a8:	2101      	movs	r1, #1
200004aa:	a801      	add	r0, sp, #4
200004ac:	f8ad 3004 	strh.w	r3, [sp, #4]
200004b0:	f88d 6008 	strb.w	r6, [sp, #8]
200004b4:	f000 f97e 	bl	200007b4 <dcd_event_handler>
200004b8:	f44f 2200 	mov.w	r2, #524288	@ 0x80000
200004bc:	4b21      	ldr	r3, [pc, #132]	@ (20000544 <dcd_rp2040_irq+0x1d0>)
200004be:	651a      	str	r2, [r3, #80]	@ 0x50
200004c0:	e7b8      	b.n	20000434 <dcd_rp2040_irq+0xc0>
200004c2:	4a23      	ldr	r2, [pc, #140]	@ (20000550 <dcd_rp2040_irq+0x1dc>)
200004c4:	6613      	str	r3, [r2, #96]	@ 0x60
200004c6:	f5a2 5200 	sub.w	r2, r2, #8192	@ 0x2000
200004ca:	6e53      	ldr	r3, [r2, #100]	@ 0x64
200004cc:	07d8      	lsls	r0, r3, #31
200004ce:	d5fc      	bpl.n	200004ca <dcd_rp2040_irq+0x156>
200004d0:	f44f 5240 	mov.w	r2, #12288	@ 0x3000
200004d4:	2100      	movs	r1, #0
200004d6:	4819      	ldr	r0, [pc, #100]	@ (2000053c <dcd_rp2040_irq+0x1c8>)
200004d8:	f000 f8fa 	bl	200006d0 <_hw_endpoint_buffer_control_update32>
200004dc:	4817      	ldr	r0, [pc, #92]	@ (2000053c <dcd_rp2040_irq+0x1c8>)
200004de:	f000 f8f1 	bl	200006c4 <hw_endpoint_reset_transfer>
200004e2:	2201      	movs	r2, #1
200004e4:	4b17      	ldr	r3, [pc, #92]	@ (20000544 <dcd_rp2040_irq+0x1d0>)
200004e6:	665a      	str	r2, [r3, #100]	@ 0x64
200004e8:	661a      	str	r2, [r3, #96]	@ 0x60
200004ea:	e78c      	b.n	20000406 <dcd_rp2040_irq+0x92>
200004ec:	2102      	movs	r1, #2
200004ee:	4b18      	ldr	r3, [pc, #96]	@ (20000550 <dcd_rp2040_irq+0x1dc>)
200004f0:	4a0f      	ldr	r2, [pc, #60]	@ (20000530 <dcd_rp2040_irq+0x1bc>)
200004f2:	6619      	str	r1, [r3, #96]	@ 0x60
200004f4:	6e53      	ldr	r3, [r2, #100]	@ 0x64
200004f6:	079f      	lsls	r7, r3, #30
200004f8:	d5fc      	bpl.n	200004f4 <dcd_rp2040_irq+0x180>
200004fa:	f44f 5240 	mov.w	r2, #12288	@ 0x3000
200004fe:	2100      	movs	r1, #0
20000500:	4811      	ldr	r0, [pc, #68]	@ (20000548 <dcd_rp2040_irq+0x1d4>)
20000502:	f000 f8e5 	bl	200006d0 <_hw_endpoint_buffer_control_update32>
20000506:	4810      	ldr	r0, [pc, #64]	@ (20000548 <dcd_rp2040_irq+0x1d4>)
20000508:	f000 f8dc 	bl	200006c4 <hw_endpoint_reset_transfer>
2000050c:	2202      	movs	r2, #2
2000050e:	4b0d      	ldr	r3, [pc, #52]	@ (20000544 <dcd_rp2040_irq+0x1d0>)
20000510:	665a      	str	r2, [r3, #100]	@ 0x64
20000512:	661a      	str	r2, [r3, #96]	@ 0x60
20000514:	2301      	movs	r3, #1
20000516:	f896 203a 	ldrb.w	r2, [r6, #58]	@ 0x3a
2000051a:	70f3      	strb	r3, [r6, #3]
2000051c:	2a00      	cmp	r2, #0
2000051e:	f43f af72 	beq.w	20000406 <dcd_rp2040_irq+0x92>
20000522:	e7ce      	b.n	200004c2 <dcd_rp2040_irq+0x14e>
20000524:	480b      	ldr	r0, [pc, #44]	@ (20000554 <dcd_rp2040_irq+0x1e0>)
20000526:	ea84 0105 	eor.w	r1, r4, r5
2000052a:	f000 fc6d 	bl	20000e08 <__panic_veneer>
2000052e:	bf00      	nop
20000530:	50110000 	.word	0x50110000
20000534:	400b0000 	.word	0x400b0000
20000538:	20001f28 	.word	0x20001f28
2000053c:	20001f74 	.word	0x20001f74
20000540:	200023b2 	.word	0x200023b2
20000544:	50113000 	.word	0x50113000
20000548:	20001f54 	.word	0x20001f54
2000054c:	50100000 	.word	0x50100000
20000550:	50112000 	.word	0x50112000
20000554:	1000c8cc 	.word	0x1000c8cc

20000558 <prepare_ep_buffer>:
20000558:	b470      	push	{r4, r5, r6}
2000055a:	8a85      	ldrh	r5, [r0, #20]
2000055c:	8b06      	ldrh	r6, [r0, #24]
2000055e:	78c3      	ldrb	r3, [r0, #3]
20000560:	42ae      	cmp	r6, r5
20000562:	bf28      	it	cs
20000564:	462e      	movcs	r6, r5
20000566:	f1b3 0c00 	subs.w	ip, r3, #0
2000056a:	bf18      	it	ne
2000056c:	f04f 0c01 	movne.w	ip, #1
20000570:	1bad      	subs	r5, r5, r6
20000572:	7844      	ldrb	r4, [r0, #1]
20000574:	f083 0301 	eor.w	r3, r3, #1
20000578:	b2ad      	uxth	r5, r5
2000057a:	4602      	mov	r2, r0
2000057c:	70c3      	strb	r3, [r0, #3]
2000057e:	8285      	strh	r5, [r0, #20]
20000580:	f446 6080 	orr.w	r0, r6, #1024	@ 0x400
20000584:	ea40 304c 	orr.w	r0, r0, ip, lsl #13
20000588:	b9a4      	cbnz	r4, 200005b4 <prepare_ep_buffer+0x5c>
2000058a:	e9d2 4303 	ldrd	r4, r3, [r2, #12]
2000058e:	ea4f 1c81 	mov.w	ip, r1, lsl #6
20000592:	b15e      	cbz	r6, 200005ac <prepare_ep_buffer+0x54>
20000594:	f10c 3cff 	add.w	ip, ip, #4294967295	@ 0xffffffff
20000598:	44a4      	add	ip, r4
2000059a:	199d      	adds	r5, r3, r6
2000059c:	f813 4b01 	ldrb.w	r4, [r3], #1
200005a0:	42ab      	cmp	r3, r5
200005a2:	f80c 4f01 	strb.w	r4, [ip, #1]!
200005a6:	d1f9      	bne.n	2000059c <prepare_ep_buffer+0x44>
200005a8:	6913      	ldr	r3, [r2, #16]
200005aa:	8a95      	ldrh	r5, [r2, #20]
200005ac:	4433      	add	r3, r6
200005ae:	6113      	str	r3, [r2, #16]
200005b0:	f440 4000 	orr.w	r0, r0, #32768	@ 0x8000
200005b4:	b90d      	cbnz	r5, 200005ba <prepare_ep_buffer+0x62>
200005b6:	f440 4080 	orr.w	r0, r0, #16384	@ 0x4000
200005ba:	b101      	cbz	r1, 200005be <prepare_ep_buffer+0x66>
200005bc:	0400      	lsls	r0, r0, #16
200005be:	bc70      	pop	{r4, r5, r6}
200005c0:	4770      	bx	lr
200005c2:	bf00      	nop

200005c4 <sync_ep_buffer>:
200005c4:	6883      	ldr	r3, [r0, #8]
200005c6:	4684      	mov	ip, r0
200005c8:	6818      	ldr	r0, [r3, #0]
200005ca:	b101      	cbz	r1, 200005ce <sync_ep_buffer+0xa>
200005cc:	0c00      	lsrs	r0, r0, #16
200005ce:	f89c 3001 	ldrb.w	r3, [ip, #1]
200005d2:	f3c0 0009 	ubfx	r0, r0, #0, #10
200005d6:	b963      	cbnz	r3, 200005f2 <sync_ep_buffer+0x2e>
200005d8:	f8bc 3016 	ldrh.w	r3, [ip, #22]
200005dc:	4403      	add	r3, r0
200005de:	f8ac 3016 	strh.w	r3, [ip, #22]
200005e2:	f8bc 3018 	ldrh.w	r3, [ip, #24]
200005e6:	4283      	cmp	r3, r0
200005e8:	bf84      	itt	hi
200005ea:	2300      	movhi	r3, #0
200005ec:	f8ac 3014 	strhhi.w	r3, [ip, #20]
200005f0:	4770      	bx	lr
200005f2:	e9dc 3203 	ldrd	r3, r2, [ip, #12]
200005f6:	eb03 1381 	add.w	r3, r3, r1, lsl #6
200005fa:	b1e0      	cbz	r0, 20000636 <sync_ep_buffer+0x72>
200005fc:	b500      	push	{lr}
200005fe:	3a01      	subs	r2, #1
20000600:	eb03 0e00 	add.w	lr, r3, r0
20000604:	f813 1b01 	ldrb.w	r1, [r3], #1
20000608:	4573      	cmp	r3, lr
2000060a:	f802 1f01 	strb.w	r1, [r2, #1]!
2000060e:	d1f9      	bne.n	20000604 <sync_ep_buffer+0x40>
20000610:	f8bc 3016 	ldrh.w	r3, [ip, #22]
20000614:	f8dc 2010 	ldr.w	r2, [ip, #16]
20000618:	4403      	add	r3, r0
2000061a:	f8ac 3016 	strh.w	r3, [ip, #22]
2000061e:	f8bc 3018 	ldrh.w	r3, [ip, #24]
20000622:	4402      	add	r2, r0
20000624:	4283      	cmp	r3, r0
20000626:	bf88      	it	hi
20000628:	2300      	movhi	r3, #0
2000062a:	f8cc 2010 	str.w	r2, [ip, #16]
2000062e:	bf88      	it	hi
20000630:	f8ac 3014 	strhhi.w	r3, [ip, #20]
20000634:	bd00      	pop	{pc}
20000636:	f8bc 3016 	ldrh.w	r3, [ip, #22]
2000063a:	4402      	add	r2, r0
2000063c:	4403      	add	r3, r0
2000063e:	f8ac 3016 	strh.w	r3, [ip, #22]
20000642:	f8cc 2010 	str.w	r2, [ip, #16]
20000646:	e7cc      	b.n	200005e2 <sync_ep_buffer+0x1e>

20000648 <_hw_endpoint_xfer_sync>:
20000648:	b510      	push	{r4, lr}
2000064a:	4604      	mov	r4, r0
2000064c:	6883      	ldr	r3, [r0, #8]
2000064e:	2100      	movs	r1, #0
20000650:	681b      	ldr	r3, [r3, #0]
20000652:	f7ff ffb7 	bl	200005c4 <sync_ep_buffer>
20000656:	6863      	ldr	r3, [r4, #4]
20000658:	681b      	ldr	r3, [r3, #0]
2000065a:	005b      	lsls	r3, r3, #1
2000065c:	d502      	bpl.n	20000664 <_hw_endpoint_xfer_sync+0x1c>
2000065e:	8b23      	ldrh	r3, [r4, #24]
20000660:	4283      	cmp	r3, r0
20000662:	d000      	beq.n	20000666 <_hw_endpoint_xfer_sync+0x1e>
20000664:	bd10      	pop	{r4, pc}
20000666:	4620      	mov	r0, r4
20000668:	e8bd 4010 	ldmia.w	sp!, {r4, lr}
2000066c:	2101      	movs	r1, #1
2000066e:	f7ff bfa9 	b.w	200005c4 <sync_ep_buffer>
20000672:	bf00      	nop

20000674 <e15_is_bulkin_ep>:
20000674:	4b08      	ldr	r3, [pc, #32]	@ (20000698 <e15_is_bulkin_ep+0x24>)
20000676:	6c1b      	ldr	r3, [r3, #64]	@ 0x40
20000678:	f013 0302 	ands.w	r3, r3, #2
2000067c:	d102      	bne.n	20000684 <e15_is_bulkin_ep+0x10>
2000067e:	7882      	ldrb	r2, [r0, #2]
20000680:	09d2      	lsrs	r2, r2, #7
20000682:	d101      	bne.n	20000688 <e15_is_bulkin_ep+0x14>
20000684:	2000      	movs	r0, #0
20000686:	4770      	bx	lr
20000688:	7ec0      	ldrb	r0, [r0, #27]
2000068a:	f1a0 0002 	sub.w	r0, r0, #2
2000068e:	fab0 f080 	clz	r0, r0
20000692:	0940      	lsrs	r0, r0, #5
20000694:	4770      	bx	lr
20000696:	bf00      	nop
20000698:	50110000 	.word	0x50110000

2000069c <e15_is_critical_frame_period>:
2000069c:	b508      	push	{r3, lr}
2000069e:	f7ff ffe9 	bl	20000674 <e15_is_bulkin_ep>
200006a2:	b150      	cbz	r0, 200006ba <e15_is_critical_frame_period+0x1e>
200006a4:	4a05      	ldr	r2, [pc, #20]	@ (200006bc <e15_is_critical_frame_period+0x20>)
200006a6:	4b06      	ldr	r3, [pc, #24]	@ (200006c0 <e15_is_critical_frame_period+0x24>)
200006a8:	6a90      	ldr	r0, [r2, #40]	@ 0x28
200006aa:	681b      	ldr	r3, [r3, #0]
200006ac:	f5a0 7048 	sub.w	r0, r0, #800	@ 0x320
200006b0:	1ac0      	subs	r0, r0, r3
200006b2:	28c6      	cmp	r0, #198	@ 0xc6
200006b4:	bf8c      	ite	hi
200006b6:	2000      	movhi	r0, #0
200006b8:	2001      	movls	r0, #1
200006ba:	bd08      	pop	{r3, pc}
200006bc:	400b0000 	.word	0x400b0000
200006c0:	20001f28 	.word	0x20001f28

200006c4 <hw_endpoint_reset_transfer>:
200006c4:	2300      	movs	r3, #0
200006c6:	e9c0 3304 	strd	r3, r3, [r0, #16]
200006ca:	7683      	strb	r3, [r0, #26]
200006cc:	4770      	bx	lr
200006ce:	bf00      	nop

200006d0 <_hw_endpoint_buffer_control_update32>:
200006d0:	b510      	push	{r4, lr}
200006d2:	6883      	ldr	r3, [r0, #8]
200006d4:	b109      	cbz	r1, 200006da <_hw_endpoint_buffer_control_update32+0xa>
200006d6:	681c      	ldr	r4, [r3, #0]
200006d8:	4021      	ands	r1, r4
200006da:	b18a      	cbz	r2, 20000700 <_hw_endpoint_buffer_control_update32+0x30>
200006dc:	0554      	lsls	r4, r2, #21
200006de:	ea41 0102 	orr.w	r1, r1, r2
200006e2:	d50d      	bpl.n	20000700 <_hw_endpoint_buffer_control_update32+0x30>
200006e4:	681a      	ldr	r2, [r3, #0]
200006e6:	0552      	lsls	r2, r2, #21
200006e8:	d40c      	bmi.n	20000704 <_hw_endpoint_buffer_control_update32+0x34>
200006ea:	4a08      	ldr	r2, [pc, #32]	@ (2000070c <_hw_endpoint_buffer_control_update32+0x3c>)
200006ec:	f421 6480 	bic.w	r4, r1, #1024	@ 0x400
200006f0:	601c      	str	r4, [r3, #0]
200006f2:	6c13      	ldr	r3, [r2, #64]	@ 0x40
200006f4:	079b      	lsls	r3, r3, #30
200006f6:	d402      	bmi.n	200006fe <_hw_endpoint_buffer_control_update32+0x2e>
200006f8:	230c      	movs	r3, #12
200006fa:	3b03      	subs	r3, #3
200006fc:	d2fd      	bcs.n	200006fa <_hw_endpoint_buffer_control_update32+0x2a>
200006fe:	6883      	ldr	r3, [r0, #8]
20000700:	6019      	str	r1, [r3, #0]
20000702:	bd10      	pop	{r4, pc}
20000704:	7881      	ldrb	r1, [r0, #2]
20000706:	4802      	ldr	r0, [pc, #8]	@ (20000710 <_hw_endpoint_buffer_control_update32+0x40>)
20000708:	f000 fb7e 	bl	20000e08 <__panic_veneer>
2000070c:	50110000 	.word	0x50110000
20000710:	1000c8e0 	.word	0x1000c8e0

20000714 <hw_endpoint_start_next_buffer>:
20000714:	b530      	push	{r4, r5, lr}
20000716:	6843      	ldr	r3, [r0, #4]
20000718:	2100      	movs	r1, #0
2000071a:	b083      	sub	sp, #12
2000071c:	4604      	mov	r4, r0
2000071e:	681d      	ldr	r5, [r3, #0]
20000720:	f7ff ff1a 	bl	20000558 <prepare_ep_buffer>
20000724:	4b13      	ldr	r3, [pc, #76]	@ (20000774 <hw_endpoint_start_next_buffer+0x60>)
20000726:	f440 5280 	orr.w	r2, r0, #4096	@ 0x1000
2000072a:	6c19      	ldr	r1, [r3, #64]	@ 0x40
2000072c:	78a3      	ldrb	r3, [r4, #2]
2000072e:	0789      	lsls	r1, r1, #30
20000730:	d50e      	bpl.n	20000750 <hw_endpoint_start_next_buffer+0x3c>
20000732:	065b      	lsls	r3, r3, #25
20000734:	d00e      	beq.n	20000754 <hw_endpoint_start_next_buffer+0x40>
20000736:	f025 45a0 	bic.w	r5, r5, #1342177280	@ 0x50000000
2000073a:	f045 5500 	orr.w	r5, r5, #536870912	@ 0x20000000
2000073e:	2100      	movs	r1, #0
20000740:	4620      	mov	r0, r4
20000742:	6863      	ldr	r3, [r4, #4]
20000744:	601d      	str	r5, [r3, #0]
20000746:	b003      	add	sp, #12
20000748:	e8bd 4030 	ldmia.w	sp!, {r4, r5, lr}
2000074c:	f7ff bfc0 	b.w	200006d0 <_hw_endpoint_buffer_control_update32>
20000750:	09db      	lsrs	r3, r3, #7
20000752:	d0f0      	beq.n	20000736 <hw_endpoint_start_next_buffer+0x22>
20000754:	8aa3      	ldrh	r3, [r4, #20]
20000756:	2b00      	cmp	r3, #0
20000758:	d0ed      	beq.n	20000736 <hw_endpoint_start_next_buffer+0x22>
2000075a:	2101      	movs	r1, #1
2000075c:	4620      	mov	r0, r4
2000075e:	9201      	str	r2, [sp, #4]
20000760:	f7ff fefa 	bl	20000558 <prepare_ep_buffer>
20000764:	9a01      	ldr	r2, [sp, #4]
20000766:	f025 5500 	bic.w	r5, r5, #536870912	@ 0x20000000
2000076a:	4302      	orrs	r2, r0
2000076c:	f045 45a0 	orr.w	r5, r5, #1342177280	@ 0x50000000
20000770:	e7e5      	b.n	2000073e <hw_endpoint_start_next_buffer+0x2a>
20000772:	bf00      	nop
20000774:	50110000 	.word	0x50110000

20000778 <hw_endpoint_xfer_continue>:
20000778:	b538      	push	{r3, r4, r5, lr}
2000077a:	7e85      	ldrb	r5, [r0, #26]
2000077c:	4604      	mov	r4, r0
2000077e:	b195      	cbz	r5, 200007a6 <hw_endpoint_xfer_continue+0x2e>
20000780:	f7ff ff62 	bl	20000648 <_hw_endpoint_xfer_sync>
20000784:	8aa3      	ldrh	r3, [r4, #20]
20000786:	b90b      	cbnz	r3, 2000078c <hw_endpoint_xfer_continue+0x14>
20000788:	4628      	mov	r0, r5
2000078a:	bd38      	pop	{r3, r4, r5, pc}
2000078c:	4620      	mov	r0, r4
2000078e:	f7ff ff85 	bl	2000069c <e15_is_critical_frame_period>
20000792:	b120      	cbz	r0, 2000079e <hw_endpoint_xfer_continue+0x26>
20000794:	2301      	movs	r3, #1
20000796:	7723      	strb	r3, [r4, #28]
20000798:	2500      	movs	r5, #0
2000079a:	4628      	mov	r0, r5
2000079c:	bd38      	pop	{r3, r4, r5, pc}
2000079e:	4620      	mov	r0, r4
200007a0:	f7ff ffb8 	bl	20000714 <hw_endpoint_start_next_buffer>
200007a4:	e7f8      	b.n	20000798 <hw_endpoint_xfer_continue+0x20>
200007a6:	7881      	ldrb	r1, [r0, #2]
200007a8:	4801      	ldr	r0, [pc, #4]	@ (200007b0 <hw_endpoint_xfer_continue+0x38>)
200007aa:	f000 fb2d 	bl	20000e08 <__panic_veneer>
200007ae:	bf00      	nop
200007b0:	1000c900 	.word	0x1000c900

200007b4 <dcd_event_handler>:
200007b4:	e92d 43f0 	stmdb	sp!, {r4, r5, r6, r7, r8, r9, lr}
200007b8:	7843      	ldrb	r3, [r0, #1]
200007ba:	4680      	mov	r8, r0
200007bc:	3b02      	subs	r3, #2
200007be:	460d      	mov	r5, r1
200007c0:	b085      	sub	sp, #20
200007c2:	2b04      	cmp	r3, #4
200007c4:	d813      	bhi.n	200007ee <dcd_event_handler+0x3a>
200007c6:	e8df f003 	tbb	[pc, r3]
200007ca:	4a03      	.short	0x4a03
200007cc:	756c      	.short	0x756c
200007ce:	44          	.byte	0x44
200007cf:	00          	.byte	0x00
200007d0:	2100      	movs	r1, #0
200007d2:	4b7c      	ldr	r3, [pc, #496]	@ (200009c4 <dcd_event_handler+0x210>)
200007d4:	781a      	ldrb	r2, [r3, #0]
200007d6:	f022 0201 	bic.w	r2, r2, #1
200007da:	701a      	strb	r2, [r3, #0]
200007dc:	781a      	ldrb	r2, [r3, #0]
200007de:	f022 0202 	bic.w	r2, r2, #2
200007e2:	701a      	strb	r2, [r3, #0]
200007e4:	7059      	strb	r1, [r3, #1]
200007e6:	781a      	ldrb	r2, [r3, #0]
200007e8:	f361 0282 	bfi	r2, r1, #2, #1
200007ec:	701a      	strb	r2, [r3, #0]
200007ee:	4b76      	ldr	r3, [pc, #472]	@ (200009c8 <dcd_event_handler+0x214>)
200007f0:	681c      	ldr	r4, [r3, #0]
200007f2:	6963      	ldr	r3, [r4, #20]
200007f4:	f3ef 8210 	mrs	r2, PRIMASK
200007f8:	b672      	cpsid	i
200007fa:	e8d3 0fcf 	ldaexb	r0, [r3]
200007fe:	2101      	movs	r1, #1
20000800:	2800      	cmp	r0, #0
20000802:	d1fa      	bne.n	200007fa <dcd_event_handler+0x46>
20000804:	e8c3 1f40 	strexb	r0, r1, [r3]
20000808:	2800      	cmp	r0, #0
2000080a:	d1f6      	bne.n	200007fa <dcd_event_handler+0x46>
2000080c:	f3bf 8f5f 	dmb	sy
20000810:	61a2      	str	r2, [r4, #24]
20000812:	4641      	mov	r1, r8
20000814:	4620      	mov	r0, r4
20000816:	f000 faef 	bl	20000df8 <__tu_fifo_write_veneer>
2000081a:	2300      	movs	r3, #0
2000081c:	6962      	ldr	r2, [r4, #20]
2000081e:	e8c2 3f8f 	stlb	r3, [r2]
20000822:	69a3      	ldr	r3, [r4, #24]
20000824:	f383 8810 	msr	PRIMASK, r3
20000828:	b948      	cbnz	r0, 2000083e <dcd_event_handler+0x8a>
2000082a:	f04f 23e0 	mov.w	r3, #3758153728	@ 0xe000e000
2000082e:	f8d3 3df0 	ldr.w	r3, [r3, #3568]	@ 0xdf0
20000832:	07db      	lsls	r3, r3, #31
20000834:	d50a      	bpl.n	2000084c <dcd_event_handler+0x98>
20000836:	be00      	bkpt	0x0000
20000838:	b005      	add	sp, #20
2000083a:	e8bd 83f0 	ldmia.w	sp!, {r4, r5, r6, r7, r8, r9, pc}
2000083e:	462a      	mov	r2, r5
20000840:	f898 1001 	ldrb.w	r1, [r8, #1]
20000844:	f898 0000 	ldrb.w	r0, [r8]
20000848:	f000 fada 	bl	20000e00 <__tud_event_hook_cb_veneer>
2000084c:	b005      	add	sp, #20
2000084e:	e8bd 83f0 	ldmia.w	sp!, {r4, r5, r6, r7, r8, r9, pc}
20000852:	4a5e      	ldr	r2, [pc, #376]	@ (200009cc <dcd_event_handler+0x218>)
20000854:	7813      	ldrb	r3, [r2, #0]
20000856:	3301      	adds	r3, #1
20000858:	b2db      	uxtb	r3, r3
2000085a:	7013      	strb	r3, [r2, #0]
2000085c:	e7c7      	b.n	200007ee <dcd_event_handler+0x3a>
2000085e:	2400      	movs	r4, #0
20000860:	f8df 9174 	ldr.w	r9, [pc, #372]	@ 200009d8 <dcd_event_handler+0x224>
20000864:	4623      	mov	r3, r4
20000866:	f899 2000 	ldrb.w	r2, [r9]
2000086a:	4f59      	ldr	r7, [pc, #356]	@ (200009d0 <dcd_event_handler+0x21c>)
2000086c:	4e59      	ldr	r6, [pc, #356]	@ (200009d4 <dcd_event_handler+0x220>)
2000086e:	e012      	b.n	20000896 <dcd_event_handler+0xe2>
20000870:	6833      	ldr	r3, [r6, #0]
20000872:	eb13 1344 	adds.w	r3, r3, r4, lsl #5
20000876:	d006      	beq.n	20000886 <dcd_event_handler+0xd2>
20000878:	69db      	ldr	r3, [r3, #28]
2000087a:	b123      	cbz	r3, 20000886 <dcd_event_handler+0xd2>
2000087c:	f8d8 1004 	ldr.w	r1, [r8, #4]
20000880:	f898 0000 	ldrb.w	r0, [r8]
20000884:	4798      	blx	r3
20000886:	f899 2000 	ldrb.w	r2, [r9]
2000088a:	3401      	adds	r4, #1
2000088c:	b2e4      	uxtb	r4, r4
2000088e:	1c51      	adds	r1, r2, #1
20000890:	42a1      	cmp	r1, r4
20000892:	4623      	mov	r3, r4
20000894:	db17      	blt.n	200008c6 <dcd_event_handler+0x112>
20000896:	42a2      	cmp	r2, r4
20000898:	d8ea      	bhi.n	20000870 <dcd_event_handler+0xbc>
2000089a:	1a9b      	subs	r3, r3, r2
2000089c:	eb07 1343 	add.w	r3, r7, r3, lsl #5
200008a0:	e7ea      	b.n	20000878 <dcd_event_handler+0xc4>
200008a2:	4b48      	ldr	r3, [pc, #288]	@ (200009c4 <dcd_event_handler+0x210>)
200008a4:	781a      	ldrb	r2, [r3, #0]
200008a6:	07d6      	lsls	r6, r2, #31
200008a8:	d5d0      	bpl.n	2000084c <dcd_event_handler+0x98>
200008aa:	781a      	ldrb	r2, [r3, #0]
200008ac:	f042 0204 	orr.w	r2, r2, #4
200008b0:	701a      	strb	r2, [r3, #0]
200008b2:	e79c      	b.n	200007ee <dcd_event_handler+0x3a>
200008b4:	4b43      	ldr	r3, [pc, #268]	@ (200009c4 <dcd_event_handler+0x210>)
200008b6:	781a      	ldrb	r2, [r3, #0]
200008b8:	07d4      	lsls	r4, r2, #31
200008ba:	d5c7      	bpl.n	2000084c <dcd_event_handler+0x98>
200008bc:	781a      	ldrb	r2, [r3, #0]
200008be:	f022 0204 	bic.w	r2, r2, #4
200008c2:	701a      	strb	r2, [r3, #0]
200008c4:	e793      	b.n	200007ee <dcd_event_handler+0x3a>
200008c6:	4c3f      	ldr	r4, [pc, #252]	@ (200009c4 <dcd_event_handler+0x210>)
200008c8:	7823      	ldrb	r3, [r4, #0]
200008ca:	0758      	lsls	r0, r3, #29
200008cc:	d43a      	bmi.n	20000944 <dcd_event_handler+0x190>
200008ce:	78e3      	ldrb	r3, [r4, #3]
200008d0:	07da      	lsls	r2, r3, #31
200008d2:	d5bb      	bpl.n	2000084c <dcd_event_handler+0x98>
200008d4:	2600      	movs	r6, #0
200008d6:	2203      	movs	r2, #3
200008d8:	f898 3000 	ldrb.w	r3, [r8]
200008dc:	493a      	ldr	r1, [pc, #232]	@ (200009c8 <dcd_event_handler+0x214>)
200008de:	f88d 3004 	strb.w	r3, [sp, #4]
200008e2:	f8d8 3004 	ldr.w	r3, [r8, #4]
200008e6:	680c      	ldr	r4, [r1, #0]
200008e8:	f8cd 6006 	str.w	r6, [sp, #6]
200008ec:	f8cd 600a 	str.w	r6, [sp, #10]
200008f0:	f8ad 600e 	strh.w	r6, [sp, #14]
200008f4:	f88d 2005 	strb.w	r2, [sp, #5]
200008f8:	9302      	str	r3, [sp, #8]
200008fa:	6963      	ldr	r3, [r4, #20]
200008fc:	f3ef 8210 	mrs	r2, PRIMASK
20000900:	b672      	cpsid	i
20000902:	e8d3 0fcf 	ldaexb	r0, [r3]
20000906:	2101      	movs	r1, #1
20000908:	2800      	cmp	r0, #0
2000090a:	d1fa      	bne.n	20000902 <dcd_event_handler+0x14e>
2000090c:	e8c3 1f40 	strexb	r0, r1, [r3]
20000910:	2800      	cmp	r0, #0
20000912:	d1f6      	bne.n	20000902 <dcd_event_handler+0x14e>
20000914:	f3bf 8f5f 	dmb	sy
20000918:	4620      	mov	r0, r4
2000091a:	61a2      	str	r2, [r4, #24]
2000091c:	a901      	add	r1, sp, #4
2000091e:	f000 fa6b 	bl	20000df8 <__tu_fifo_write_veneer>
20000922:	6963      	ldr	r3, [r4, #20]
20000924:	e8c3 6f8f 	stlb	r6, [r3]
20000928:	69a3      	ldr	r3, [r4, #24]
2000092a:	f383 8810 	msr	PRIMASK, r3
2000092e:	2800      	cmp	r0, #0
20000930:	f43f af7b 	beq.w	2000082a <dcd_event_handler+0x76>
20000934:	462a      	mov	r2, r5
20000936:	f89d 1005 	ldrb.w	r1, [sp, #5]
2000093a:	f89d 0004 	ldrb.w	r0, [sp, #4]
2000093e:	f000 fa5f 	bl	20000e00 <__tud_event_hook_cb_veneer>
20000942:	e783      	b.n	2000084c <dcd_event_handler+0x98>
20000944:	7823      	ldrb	r3, [r4, #0]
20000946:	2700      	movs	r7, #0
20000948:	f023 0304 	bic.w	r3, r3, #4
2000094c:	7023      	strb	r3, [r4, #0]
2000094e:	2305      	movs	r3, #5
20000950:	4a1d      	ldr	r2, [pc, #116]	@ (200009c8 <dcd_event_handler+0x214>)
20000952:	f8ad 700e 	strh.w	r7, [sp, #14]
20000956:	6816      	ldr	r6, [r2, #0]
20000958:	f898 2000 	ldrb.w	r2, [r8]
2000095c:	f8cd 7006 	str.w	r7, [sp, #6]
20000960:	f8cd 700a 	str.w	r7, [sp, #10]
20000964:	f88d 2004 	strb.w	r2, [sp, #4]
20000968:	f88d 3005 	strb.w	r3, [sp, #5]
2000096c:	6973      	ldr	r3, [r6, #20]
2000096e:	f3ef 8210 	mrs	r2, PRIMASK
20000972:	b672      	cpsid	i
20000974:	e8d3 0fcf 	ldaexb	r0, [r3]
20000978:	2101      	movs	r1, #1
2000097a:	2800      	cmp	r0, #0
2000097c:	d1fa      	bne.n	20000974 <dcd_event_handler+0x1c0>
2000097e:	e8c3 1f40 	strexb	r0, r1, [r3]
20000982:	2800      	cmp	r0, #0
20000984:	d1f6      	bne.n	20000974 <dcd_event_handler+0x1c0>
20000986:	f3bf 8f5f 	dmb	sy
2000098a:	4630      	mov	r0, r6
2000098c:	61b2      	str	r2, [r6, #24]
2000098e:	a901      	add	r1, sp, #4
20000990:	f000 fa32 	bl	20000df8 <__tu_fifo_write_veneer>
20000994:	6973      	ldr	r3, [r6, #20]
20000996:	e8c3 7f8f 	stlb	r7, [r3]
2000099a:	69b3      	ldr	r3, [r6, #24]
2000099c:	f383 8810 	msr	PRIMASK, r3
200009a0:	b938      	cbnz	r0, 200009b2 <dcd_event_handler+0x1fe>
200009a2:	f04f 23e0 	mov.w	r3, #3758153728	@ 0xe000e000
200009a6:	f8d3 3df0 	ldr.w	r3, [r3, #3568]	@ 0xdf0
200009aa:	07d9      	lsls	r1, r3, #31
200009ac:	d58f      	bpl.n	200008ce <dcd_event_handler+0x11a>
200009ae:	be00      	bkpt	0x0000
200009b0:	e78d      	b.n	200008ce <dcd_event_handler+0x11a>
200009b2:	462a      	mov	r2, r5
200009b4:	f89d 1005 	ldrb.w	r1, [sp, #5]
200009b8:	f89d 0004 	ldrb.w	r0, [sp, #4]
200009bc:	f000 fa20 	bl	20000e00 <__tud_event_hook_cb_veneer>
200009c0:	e785      	b.n	200008ce <dcd_event_handler+0x11a>
200009c2:	bf00      	nop
200009c4:	20001a5c 	.word	0x20001a5c
200009c8:	20001ab4 	.word	0x20001ab4
200009cc:	200023b3 	.word	0x200023b3
200009d0:	1000cc74 	.word	0x1000cc74
200009d4:	2000188c 	.word	0x2000188c
200009d8:	200023b1 	.word	0x200023b1

200009dc <spi_write_read_blocking>:
200009dc:	b570      	push	{r4, r5, r6, lr}
200009de:	461d      	mov	r5, r3
200009e0:	4684      	mov	ip, r0
200009e2:	461c      	mov	r4, r3
200009e4:	b315      	cbz	r5, 20000a2c <spi_write_read_blocking+0x50>
200009e6:	b1c4      	cbz	r4, 20000a1a <spi_write_read_blocking+0x3e>
200009e8:	f8dc 600c 	ldr.w	r6, [ip, #12]
200009ec:	f104 0e08 	add.w	lr, r4, #8
200009f0:	07b6      	lsls	r6, r6, #30
200009f2:	d506      	bpl.n	20000a02 <spi_write_read_blocking+0x26>
200009f4:	4575      	cmp	r5, lr
200009f6:	d233      	bcs.n	20000a60 <spi_write_read_blocking+0x84>
200009f8:	f811 0b01 	ldrb.w	r0, [r1], #1
200009fc:	3c01      	subs	r4, #1
200009fe:	f8cc 0008 	str.w	r0, [ip, #8]
20000a02:	f8dc 000c 	ldr.w	r0, [ip, #12]
20000a06:	0740      	lsls	r0, r0, #29
20000a08:	d5ed      	bpl.n	200009e6 <spi_write_read_blocking+0xa>
20000a0a:	f8dc 6008 	ldr.w	r6, [ip, #8]
20000a0e:	3d01      	subs	r5, #1
20000a10:	f802 6b01 	strb.w	r6, [r2], #1
20000a14:	2d00      	cmp	r5, #0
20000a16:	d1e6      	bne.n	200009e6 <spi_write_read_blocking+0xa>
20000a18:	e008      	b.n	20000a2c <spi_write_read_blocking+0x50>
20000a1a:	f8dc 600c 	ldr.w	r6, [ip, #12]
20000a1e:	0776      	lsls	r6, r6, #29
20000a20:	d4f3      	bmi.n	20000a0a <spi_write_read_blocking+0x2e>
20000a22:	f8dc 600c 	ldr.w	r6, [ip, #12]
20000a26:	0776      	lsls	r6, r6, #29
20000a28:	d4ef      	bmi.n	20000a0a <spi_write_read_blocking+0x2e>
20000a2a:	e7f6      	b.n	20000a1a <spi_write_read_blocking+0x3e>
20000a2c:	b16c      	cbz	r4, 20000a4a <spi_write_read_blocking+0x6e>
20000a2e:	f8dc 200c 	ldr.w	r2, [ip, #12]
20000a32:	0790      	lsls	r0, r2, #30
20000a34:	d5fb      	bpl.n	20000a2e <spi_write_read_blocking+0x52>
20000a36:	f114 0f08 	cmn.w	r4, #8
20000a3a:	d008      	beq.n	20000a4e <spi_write_read_blocking+0x72>
20000a3c:	f811 2b01 	ldrb.w	r2, [r1], #1
20000a40:	3c01      	subs	r4, #1
20000a42:	f8cc 2008 	str.w	r2, [ip, #8]
20000a46:	2c00      	cmp	r4, #0
20000a48:	d1f1      	bne.n	20000a2e <spi_write_read_blocking+0x52>
20000a4a:	4618      	mov	r0, r3
20000a4c:	bd70      	pop	{r4, r5, r6, pc}
20000a4e:	f8dc 200c 	ldr.w	r2, [ip, #12]
20000a52:	0792      	lsls	r2, r2, #30
20000a54:	d5eb      	bpl.n	20000a2e <spi_write_read_blocking+0x52>
20000a56:	f8dc 200c 	ldr.w	r2, [ip, #12]
20000a5a:	0792      	lsls	r2, r2, #30
20000a5c:	d4f7      	bmi.n	20000a4e <spi_write_read_blocking+0x72>
20000a5e:	e7e6      	b.n	20000a2e <spi_write_read_blocking+0x52>
20000a60:	f8dc 000c 	ldr.w	r0, [ip, #12]
20000a64:	0740      	lsls	r0, r0, #29
20000a66:	d4d0      	bmi.n	20000a0a <spi_write_read_blocking+0x2e>
20000a68:	e7be      	b.n	200009e8 <spi_write_read_blocking+0xc>
20000a6a:	bf00      	nop

20000a6c <__aeabi_uldivmod>:
20000a6c:	b953      	cbnz	r3, 20000a84 <__aeabi_uldivmod+0x18>
20000a6e:	b94a      	cbnz	r2, 20000a84 <__aeabi_uldivmod+0x18>
20000a70:	2900      	cmp	r1, #0
20000a72:	bf08      	it	eq
20000a74:	2800      	cmpeq	r0, #0
20000a76:	bf1c      	itt	ne
20000a78:	f04f 31ff 	movne.w	r1, #4294967295	@ 0xffffffff
20000a7c:	f04f 30ff 	movne.w	r0, #4294967295	@ 0xffffffff
20000a80:	f000 b9b2 	b.w	20000de8 <__aeabi_idiv0>
20000a84:	f1ad 0c08 	sub.w	ip, sp, #8
20000a88:	e96d ce04 	strd	ip, lr, [sp, #-16]!
20000a8c:	f000 f806 	bl	20000a9c <__udivmoddi4>
20000a90:	f8dd e004 	ldr.w	lr, [sp, #4]
20000a94:	e9dd 2302 	ldrd	r2, r3, [sp, #8]
20000a98:	b004      	add	sp, #16
20000a9a:	4770      	bx	lr

20000a9c <__udivmoddi4>:
20000a9c:	e92d 4ff0 	stmdb	sp!, {r4, r5, r6, r7, r8, r9, sl, fp, lr}
20000aa0:	468c      	mov	ip, r1
20000aa2:	9e09      	ldr	r6, [sp, #36]	@ 0x24
20000aa4:	4604      	mov	r4, r0
20000aa6:	460f      	mov	r7, r1
20000aa8:	2b00      	cmp	r3, #0
20000aaa:	d148      	bne.n	20000b3e <__udivmoddi4+0xa2>
20000aac:	428a      	cmp	r2, r1
20000aae:	4615      	mov	r5, r2
20000ab0:	d95e      	bls.n	20000b70 <__udivmoddi4+0xd4>
20000ab2:	fab2 f382 	clz	r3, r2
20000ab6:	b13b      	cbz	r3, 20000ac8 <__udivmoddi4+0x2c>
20000ab8:	f1c3 0220 	rsb	r2, r3, #32
20000abc:	409f      	lsls	r7, r3
20000abe:	409d      	lsls	r5, r3
20000ac0:	409c      	lsls	r4, r3
20000ac2:	fa20 f202 	lsr.w	r2, r0, r2
20000ac6:	4317      	orrs	r7, r2
20000ac8:	ea4f 4e15 	mov.w	lr, r5, lsr #16
20000acc:	fa1f fc85 	uxth.w	ip, r5
20000ad0:	0c22      	lsrs	r2, r4, #16
20000ad2:	fbb7 f1fe 	udiv	r1, r7, lr
20000ad6:	fb0e 7711 	mls	r7, lr, r1, r7
20000ada:	fb01 f00c 	mul.w	r0, r1, ip
20000ade:	ea42 4207 	orr.w	r2, r2, r7, lsl #16
20000ae2:	4290      	cmp	r0, r2
20000ae4:	d907      	bls.n	20000af6 <__udivmoddi4+0x5a>
20000ae6:	18aa      	adds	r2, r5, r2
20000ae8:	f101 37ff 	add.w	r7, r1, #4294967295	@ 0xffffffff
20000aec:	d202      	bcs.n	20000af4 <__udivmoddi4+0x58>
20000aee:	4290      	cmp	r0, r2
20000af0:	f200 8158 	bhi.w	20000da4 <__udivmoddi4+0x308>
20000af4:	4639      	mov	r1, r7
20000af6:	1a12      	subs	r2, r2, r0
20000af8:	b2a4      	uxth	r4, r4
20000afa:	fbb2 f0fe 	udiv	r0, r2, lr
20000afe:	fb0e 2210 	mls	r2, lr, r0, r2
20000b02:	fb00 fc0c 	mul.w	ip, r0, ip
20000b06:	ea44 4402 	orr.w	r4, r4, r2, lsl #16
20000b0a:	45a4      	cmp	ip, r4
20000b0c:	d90b      	bls.n	20000b26 <__udivmoddi4+0x8a>
20000b0e:	192c      	adds	r4, r5, r4
20000b10:	f100 32ff 	add.w	r2, r0, #4294967295	@ 0xffffffff
20000b14:	bf2c      	ite	cs
20000b16:	2701      	movcs	r7, #1
20000b18:	2700      	movcc	r7, #0
20000b1a:	45a4      	cmp	ip, r4
20000b1c:	d902      	bls.n	20000b24 <__udivmoddi4+0x88>
20000b1e:	2f00      	cmp	r7, #0
20000b20:	f000 8143 	beq.w	20000daa <__udivmoddi4+0x30e>
20000b24:	4610      	mov	r0, r2
20000b26:	ea40 4001 	orr.w	r0, r0, r1, lsl #16
20000b2a:	eba4 040c 	sub.w	r4, r4, ip
20000b2e:	2100      	movs	r1, #0
20000b30:	b11e      	cbz	r6, 20000b3a <__udivmoddi4+0x9e>
20000b32:	40dc      	lsrs	r4, r3
20000b34:	2300      	movs	r3, #0
20000b36:	e9c6 4300 	strd	r4, r3, [r6]
20000b3a:	e8bd 8ff0 	ldmia.w	sp!, {r4, r5, r6, r7, r8, r9, sl, fp, pc}
20000b3e:	428b      	cmp	r3, r1
20000b40:	d906      	bls.n	20000b50 <__udivmoddi4+0xb4>
20000b42:	b10e      	cbz	r6, 20000b48 <__udivmoddi4+0xac>
20000b44:	e9c6 0100 	strd	r0, r1, [r6]
20000b48:	2100      	movs	r1, #0
20000b4a:	4608      	mov	r0, r1
20000b4c:	e8bd 8ff0 	ldmia.w	sp!, {r4, r5, r6, r7, r8, r9, sl, fp, pc}
20000b50:	fab3 f183 	clz	r1, r3
20000b54:	2900      	cmp	r1, #0
20000b56:	d151      	bne.n	20000bfc <__udivmoddi4+0x160>
20000b58:	4563      	cmp	r3, ip
20000b5a:	f0c0 8116 	bcc.w	20000d8a <__udivmoddi4+0x2ee>
20000b5e:	4282      	cmp	r2, r0
20000b60:	f240 8113 	bls.w	20000d8a <__udivmoddi4+0x2ee>
20000b64:	4608      	mov	r0, r1
20000b66:	2e00      	cmp	r6, #0
20000b68:	d0e7      	beq.n	20000b3a <__udivmoddi4+0x9e>
20000b6a:	e9c6 4700 	strd	r4, r7, [r6]
20000b6e:	e7e4      	b.n	20000b3a <__udivmoddi4+0x9e>
20000b70:	2a00      	cmp	r2, #0
20000b72:	f000 80af 	beq.w	20000cd4 <__udivmoddi4+0x238>
20000b76:	fab2 f382 	clz	r3, r2
20000b7a:	2b00      	cmp	r3, #0
20000b7c:	f040 80c2 	bne.w	20000d04 <__udivmoddi4+0x268>
20000b80:	1a8a      	subs	r2, r1, r2
20000b82:	ea4f 4e15 	mov.w	lr, r5, lsr #16
20000b86:	b2af      	uxth	r7, r5
20000b88:	2101      	movs	r1, #1
20000b8a:	0c20      	lsrs	r0, r4, #16
20000b8c:	fbb2 fcfe 	udiv	ip, r2, lr
20000b90:	fb0e 221c 	mls	r2, lr, ip, r2
20000b94:	ea40 4202 	orr.w	r2, r0, r2, lsl #16
20000b98:	fb07 f00c 	mul.w	r0, r7, ip
20000b9c:	4290      	cmp	r0, r2
20000b9e:	d90e      	bls.n	20000bbe <__udivmoddi4+0x122>
20000ba0:	18aa      	adds	r2, r5, r2
20000ba2:	f10c 38ff 	add.w	r8, ip, #4294967295	@ 0xffffffff
20000ba6:	bf2c      	ite	cs
20000ba8:	f04f 0901 	movcs.w	r9, #1
20000bac:	f04f 0900 	movcc.w	r9, #0
20000bb0:	4290      	cmp	r0, r2
20000bb2:	d903      	bls.n	20000bbc <__udivmoddi4+0x120>
20000bb4:	f1b9 0f00 	cmp.w	r9, #0
20000bb8:	f000 80f0 	beq.w	20000d9c <__udivmoddi4+0x300>
20000bbc:	46c4      	mov	ip, r8
20000bbe:	1a12      	subs	r2, r2, r0
20000bc0:	b2a4      	uxth	r4, r4
20000bc2:	fbb2 f0fe 	udiv	r0, r2, lr
20000bc6:	fb0e 2210 	mls	r2, lr, r0, r2
20000bca:	fb00 f707 	mul.w	r7, r0, r7
20000bce:	ea44 4402 	orr.w	r4, r4, r2, lsl #16
20000bd2:	42a7      	cmp	r7, r4
20000bd4:	d90e      	bls.n	20000bf4 <__udivmoddi4+0x158>
20000bd6:	192c      	adds	r4, r5, r4
20000bd8:	f100 32ff 	add.w	r2, r0, #4294967295	@ 0xffffffff
20000bdc:	bf2c      	ite	cs
20000bde:	f04f 0e01 	movcs.w	lr, #1
20000be2:	f04f 0e00 	movcc.w	lr, #0
20000be6:	42a7      	cmp	r7, r4
20000be8:	d903      	bls.n	20000bf2 <__udivmoddi4+0x156>
20000bea:	f1be 0f00 	cmp.w	lr, #0
20000bee:	f000 80d2 	beq.w	20000d96 <__udivmoddi4+0x2fa>
20000bf2:	4610      	mov	r0, r2
20000bf4:	1be4      	subs	r4, r4, r7
20000bf6:	ea40 400c 	orr.w	r0, r0, ip, lsl #16
20000bfa:	e799      	b.n	20000b30 <__udivmoddi4+0x94>
20000bfc:	f1c1 0520 	rsb	r5, r1, #32
20000c00:	408b      	lsls	r3, r1
20000c02:	fa0c f401 	lsl.w	r4, ip, r1
20000c06:	fa00 f901 	lsl.w	r9, r0, r1
20000c0a:	fa22 f705 	lsr.w	r7, r2, r5
20000c0e:	fa2c fc05 	lsr.w	ip, ip, r5
20000c12:	408a      	lsls	r2, r1
20000c14:	431f      	orrs	r7, r3
20000c16:	fa20 f305 	lsr.w	r3, r0, r5
20000c1a:	0c38      	lsrs	r0, r7, #16
20000c1c:	4323      	orrs	r3, r4
20000c1e:	fa1f fe87 	uxth.w	lr, r7
20000c22:	0c1c      	lsrs	r4, r3, #16
20000c24:	fbbc f8f0 	udiv	r8, ip, r0
20000c28:	fb00 cc18 	mls	ip, r0, r8, ip
20000c2c:	ea44 440c 	orr.w	r4, r4, ip, lsl #16
20000c30:	fb08 fc0e 	mul.w	ip, r8, lr
20000c34:	45a4      	cmp	ip, r4
20000c36:	d90e      	bls.n	20000c56 <__udivmoddi4+0x1ba>
20000c38:	193c      	adds	r4, r7, r4
20000c3a:	f108 3aff 	add.w	sl, r8, #4294967295	@ 0xffffffff
20000c3e:	bf2c      	ite	cs
20000c40:	f04f 0b01 	movcs.w	fp, #1
20000c44:	f04f 0b00 	movcc.w	fp, #0
20000c48:	45a4      	cmp	ip, r4
20000c4a:	d903      	bls.n	20000c54 <__udivmoddi4+0x1b8>
20000c4c:	f1bb 0f00 	cmp.w	fp, #0
20000c50:	f000 80b8 	beq.w	20000dc4 <__udivmoddi4+0x328>
20000c54:	46d0      	mov	r8, sl
20000c56:	eba4 040c 	sub.w	r4, r4, ip
20000c5a:	fa1f fc83 	uxth.w	ip, r3
20000c5e:	fbb4 f3f0 	udiv	r3, r4, r0
20000c62:	fb00 4413 	mls	r4, r0, r3, r4
20000c66:	fb03 fe0e 	mul.w	lr, r3, lr
20000c6a:	ea4c 4404 	orr.w	r4, ip, r4, lsl #16
20000c6e:	45a6      	cmp	lr, r4
20000c70:	d90e      	bls.n	20000c90 <__udivmoddi4+0x1f4>
20000c72:	193c      	adds	r4, r7, r4
20000c74:	f103 30ff 	add.w	r0, r3, #4294967295	@ 0xffffffff
20000c78:	bf2c      	ite	cs
20000c7a:	f04f 0c01 	movcs.w	ip, #1
20000c7e:	f04f 0c00 	movcc.w	ip, #0
20000c82:	45a6      	cmp	lr, r4
20000c84:	d903      	bls.n	20000c8e <__udivmoddi4+0x1f2>
20000c86:	f1bc 0f00 	cmp.w	ip, #0
20000c8a:	f000 809f 	beq.w	20000dcc <__udivmoddi4+0x330>
20000c8e:	4603      	mov	r3, r0
20000c90:	ea43 4008 	orr.w	r0, r3, r8, lsl #16
20000c94:	eba4 040e 	sub.w	r4, r4, lr
20000c98:	fba0 ec02 	umull	lr, ip, r0, r2
20000c9c:	4564      	cmp	r4, ip
20000c9e:	4673      	mov	r3, lr
20000ca0:	46e0      	mov	r8, ip
20000ca2:	d302      	bcc.n	20000caa <__udivmoddi4+0x20e>
20000ca4:	d107      	bne.n	20000cb6 <__udivmoddi4+0x21a>
20000ca6:	45f1      	cmp	r9, lr
20000ca8:	d205      	bcs.n	20000cb6 <__udivmoddi4+0x21a>
20000caa:	ebbe 0302 	subs.w	r3, lr, r2
20000cae:	eb6c 0c07 	sbc.w	ip, ip, r7
20000cb2:	3801      	subs	r0, #1
20000cb4:	46e0      	mov	r8, ip
20000cb6:	b15e      	cbz	r6, 20000cd0 <__udivmoddi4+0x234>
20000cb8:	ebb9 0203 	subs.w	r2, r9, r3
20000cbc:	eb64 0408 	sbc.w	r4, r4, r8
20000cc0:	fa04 f505 	lsl.w	r5, r4, r5
20000cc4:	fa22 f301 	lsr.w	r3, r2, r1
20000cc8:	40cc      	lsrs	r4, r1
20000cca:	431d      	orrs	r5, r3
20000ccc:	e9c6 5400 	strd	r5, r4, [r6]
20000cd0:	2100      	movs	r1, #0
20000cd2:	e732      	b.n	20000b3a <__udivmoddi4+0x9e>
20000cd4:	0842      	lsrs	r2, r0, #1
20000cd6:	462f      	mov	r7, r5
20000cd8:	084b      	lsrs	r3, r1, #1
20000cda:	46ac      	mov	ip, r5
20000cdc:	ea42 72c1 	orr.w	r2, r2, r1, lsl #31
20000ce0:	46ae      	mov	lr, r5
20000ce2:	07c4      	lsls	r4, r0, #31
20000ce4:	0c11      	lsrs	r1, r2, #16
20000ce6:	b292      	uxth	r2, r2
20000ce8:	ea41 4103 	orr.w	r1, r1, r3, lsl #16
20000cec:	ea42 4201 	orr.w	r2, r2, r1, lsl #16
20000cf0:	fbb1 f1f5 	udiv	r1, r1, r5
20000cf4:	fbb3 f0f5 	udiv	r0, r3, r5
20000cf8:	231f      	movs	r3, #31
20000cfa:	eba2 020c 	sub.w	r2, r2, ip
20000cfe:	ea41 4100 	orr.w	r1, r1, r0, lsl #16
20000d02:	e742      	b.n	20000b8a <__udivmoddi4+0xee>
20000d04:	409d      	lsls	r5, r3
20000d06:	f1c3 0220 	rsb	r2, r3, #32
20000d0a:	4099      	lsls	r1, r3
20000d0c:	409c      	lsls	r4, r3
20000d0e:	fa2c fc02 	lsr.w	ip, ip, r2
20000d12:	ea4f 4e15 	mov.w	lr, r5, lsr #16
20000d16:	fa20 f202 	lsr.w	r2, r0, r2
20000d1a:	b2af      	uxth	r7, r5
20000d1c:	fbbc f8fe 	udiv	r8, ip, lr
20000d20:	430a      	orrs	r2, r1
20000d22:	fb0e cc18 	mls	ip, lr, r8, ip
20000d26:	0c11      	lsrs	r1, r2, #16
20000d28:	ea41 410c 	orr.w	r1, r1, ip, lsl #16
20000d2c:	fb08 fc07 	mul.w	ip, r8, r7
20000d30:	458c      	cmp	ip, r1
20000d32:	d950      	bls.n	20000dd6 <__udivmoddi4+0x33a>
20000d34:	1869      	adds	r1, r5, r1
20000d36:	f108 30ff 	add.w	r0, r8, #4294967295	@ 0xffffffff
20000d3a:	bf2c      	ite	cs
20000d3c:	f04f 0901 	movcs.w	r9, #1
20000d40:	f04f 0900 	movcc.w	r9, #0
20000d44:	458c      	cmp	ip, r1
20000d46:	d902      	bls.n	20000d4e <__udivmoddi4+0x2b2>
20000d48:	f1b9 0f00 	cmp.w	r9, #0
20000d4c:	d030      	beq.n	20000db0 <__udivmoddi4+0x314>
20000d4e:	eba1 010c 	sub.w	r1, r1, ip
20000d52:	fbb1 f8fe 	udiv	r8, r1, lr
20000d56:	fb08 fc07 	mul.w	ip, r8, r7
20000d5a:	fb0e 1118 	mls	r1, lr, r8, r1
20000d5e:	b292      	uxth	r2, r2
20000d60:	ea42 4201 	orr.w	r2, r2, r1, lsl #16
20000d64:	4562      	cmp	r2, ip
20000d66:	d234      	bcs.n	20000dd2 <__udivmoddi4+0x336>
20000d68:	18aa      	adds	r2, r5, r2
20000d6a:	f108 31ff 	add.w	r1, r8, #4294967295	@ 0xffffffff
20000d6e:	bf2c      	ite	cs
20000d70:	f04f 0901 	movcs.w	r9, #1
20000d74:	f04f 0900 	movcc.w	r9, #0
20000d78:	4562      	cmp	r2, ip
20000d7a:	d2be      	bcs.n	20000cfa <__udivmoddi4+0x25e>
20000d7c:	f1b9 0f00 	cmp.w	r9, #0
20000d80:	d1bb      	bne.n	20000cfa <__udivmoddi4+0x25e>
20000d82:	f1a8 0102 	sub.w	r1, r8, #2
20000d86:	442a      	add	r2, r5
20000d88:	e7b7      	b.n	20000cfa <__udivmoddi4+0x25e>
20000d8a:	1a84      	subs	r4, r0, r2
20000d8c:	eb6c 0203 	sbc.w	r2, ip, r3
20000d90:	2001      	movs	r0, #1
20000d92:	4617      	mov	r7, r2
20000d94:	e6e7      	b.n	20000b66 <__udivmoddi4+0xca>
20000d96:	442c      	add	r4, r5
20000d98:	3802      	subs	r0, #2
20000d9a:	e72b      	b.n	20000bf4 <__udivmoddi4+0x158>
20000d9c:	f1ac 0c02 	sub.w	ip, ip, #2
20000da0:	442a      	add	r2, r5
20000da2:	e70c      	b.n	20000bbe <__udivmoddi4+0x122>
20000da4:	3902      	subs	r1, #2
20000da6:	442a      	add	r2, r5
20000da8:	e6a5      	b.n	20000af6 <__udivmoddi4+0x5a>
20000daa:	442c      	add	r4, r5
20000dac:	3802      	subs	r0, #2
20000dae:	e6ba      	b.n	20000b26 <__udivmoddi4+0x8a>
20000db0:	eba5 0c0c 	sub.w	ip, r5, ip
20000db4:	f1a8 0002 	sub.w	r0, r8, #2
20000db8:	4461      	add	r1, ip
20000dba:	fbb1 f8fe 	udiv	r8, r1, lr
20000dbe:	fb08 fc07 	mul.w	ip, r8, r7
20000dc2:	e7ca      	b.n	20000d5a <__udivmoddi4+0x2be>
20000dc4:	f1a8 0802 	sub.w	r8, r8, #2
20000dc8:	443c      	add	r4, r7
20000dca:	e744      	b.n	20000c56 <__udivmoddi4+0x1ba>
20000dcc:	3b02      	subs	r3, #2
20000dce:	443c      	add	r4, r7
20000dd0:	e75e      	b.n	20000c90 <__udivmoddi4+0x1f4>
20000dd2:	4641      	mov	r1, r8
20000dd4:	e791      	b.n	20000cfa <__udivmoddi4+0x25e>
20000dd6:	eba1 010c 	sub.w	r1, r1, ip
20000dda:	4640      	mov	r0, r8
20000ddc:	fbb1 f8fe 	udiv	r8, r1, lr
20000de0:	fb08 fc07 	mul.w	ip, r8, r7
20000de4:	e7b9      	b.n	20000d5a <__udivmoddi4+0x2be>
20000de6:	bf00      	nop

20000de8 <__aeabi_idiv0>:
20000de8:	4770      	bx	lr
20000dea:	bf00      	nop
20000dec:	0000      	movs	r0, r0
	...

20000df0 <__best_effort_wfe_or_timeout_veneer>:
20000df0:	f85f f000 	ldr.w	pc, [pc]	@ 20000df4 <__best_effort_wfe_or_timeout_veneer+0x4>
20000df4:	10001c85 	.word	0x10001c85

20000df8 <__tu_fifo_write_veneer>:
20000df8:	f85f f000 	ldr.w	pc, [pc]	@ 20000dfc <__tu_fifo_write_veneer+0x4>
20000dfc:	100064d9 	.word	0x100064d9

20000e00 <__tud_event_hook_cb_veneer>:
20000e00:	f85f f000 	ldr.w	pc, [pc]	@ 20000e04 <__tud_event_hook_cb_veneer+0x4>
20000e04:	10004b8d 	.word	0x10004b8d

20000e08 <__panic_veneer>:
20000e08:	f85f f000 	ldr.w	pc, [pc]	@ 20000e0c <__panic_veneer+0x4>
20000e0c:	10001085 	.word	0x10001085

20000e10 <__time_us_64_veneer>:
20000e10:	f85f f000 	ldr.w	pc, [pc]	@ 20000e14 <__time_us_64_veneer+0x4>
20000e14:	10001d8d 	.word	0x10001d8d

20000e18 <__memset_veneer>:
20000e18:	f85f f000 	ldr.w	pc, [pc]	@ 20000e1c <__memset_veneer+0x4>
20000e1c:	100074d1 	.word	0x100074d1

20000e20 <soc>:
20000e20:	                                         K

20000e21 <status_flags>:
20000e21:	                                         .

20000e22 <target_v>:
20000e22:	                                         ^.

20000e24 <protocol>:
20000e24:	                                         ..

20000e26 <total_cap_wh>:
20000e26:	                                         ..

20000e28 <est_time_60>:
20000e28:	                                         .

20000e29 <charge_time_60>:
20000e29:	                                         .

20000e2a <charge_time_10>:
20000e2a:	                                         .

20000e2b <bat_cap_pct>:
20000e2b:	                                         d

20000e2c <bat_max_v>:
20000e2c:	                                         ..

20000e2e <striped_spin_lock_num>:
20000e2e:	                                         ..

20000e30 <irq_handler_chain_slots>:
20000e30:	00000000 	.word	0x00000000
20000e34:	00010000 	.word	0x00010000
	...
20000e40:	00020000 	.word	0x00020000
	...
20000e4c:	00030000 	.word	0x00030000
	...
20000e58:	00ff0000 	.word	0x00ff0000
20000e5c:	00000000 	.word	0x00000000

20000e60 <irq_handler_chain_first_slot>:
20000e60:	b501      	push	{r0, lr}
20000e62:	6848      	ldr	r0, [r1, #4]
20000e64:	3101      	adds	r1, #1
20000e66:	468e      	mov	lr, r1
20000e68:	4700      	bx	r0

20000e6a <irq_handler_chain_remove_tail>:
20000e6a:	4670      	mov	r0, lr
20000e6c:	3809      	subs	r0, #9
20000e6e:	4901      	ldr	r1, [pc, #4]	@ (20000e74 <irq_handler_chain_remove_tail+0xa>)
20000e70:	4788      	blx	r1
20000e72:	bd01      	pop	{r0, pc}
20000e74:	100014d5 	.word	0x100014d5

20000e78 <default_alarm_pool>:
	...
20000e8c:	20001578                                x.. 

20000e90 <stdio_usb>:
20000e90:	100043d9 10004385 100042fd 100042dd     .C...C...B...B..
20000ea0:	00000000 00000100                       ........

20000ea8 <_usbd_qdef>:
20000ea8:	20001ab8 000c0010 00000000 00000000     ... ............
	...

20000ec4 <_usbd_rhport>:
20000ec4:	000000ff                                ....

20000ec8 <__malloc_sbrk_base>:
20000ec8:	ffffffff                                ....

20000ecc <__malloc_trim_threshold>:
20000ecc:	00020000                                ....

20000ed0 <__malloc_av_>:
	...
20000ed8:	20000ed0 20000ed0 20000ed8 20000ed8     ... ... ... ... 
20000ee8:	20000ee0 20000ee0 20000ee8 20000ee8     ... ... ... ... 
20000ef8:	20000ef0 20000ef0 20000ef8 20000ef8     ... ... ... ... 
20000f08:	20000f00 20000f00 20000f08 20000f08     ... ... ... ... 
20000f18:	20000f10 20000f10 20000f18 20000f18     ... ... ... ... 
20000f28:	20000f20 20000f20 20000f28 20000f28      ..  .. (.. (.. 
20000f38:	20000f30 20000f30 20000f38 20000f38     0.. 0.. 8.. 8.. 
20000f48:	20000f40 20000f40 20000f48 20000f48     @.. @.. H.. H.. 
20000f58:	20000f50 20000f50 20000f58 20000f58     P.. P.. X.. X.. 
20000f68:	20000f60 20000f60 20000f68 20000f68     `.. `.. h.. h.. 
20000f78:	20000f70 20000f70 20000f78 20000f78     p.. p.. x.. x.. 
20000f88:	20000f80 20000f80 20000f88 20000f88     ... ... ... ... 
20000f98:	20000f90 20000f90 20000f98 20000f98     ... ... ... ... 
20000fa8:	20000fa0 20000fa0 20000fa8 20000fa8     ... ... ... ... 
20000fb8:	20000fb0 20000fb0 20000fb8 20000fb8     ... ... ... ... 
20000fc8:	20000fc0 20000fc0 20000fc8 20000fc8     ... ... ... ... 
20000fd8:	20000fd0 20000fd0 20000fd8 20000fd8     ... ... ... ... 
20000fe8:	20000fe0 20000fe0 20000fe8 20000fe8     ... ... ... ... 
20000ff8:	20000ff0 20000ff0 20000ff8 20000ff8     ... ... ... ... 
20001008:	20001000 20001000 20001008 20001008     ... ... ... ... 
20001018:	20001010 20001010 20001018 20001018     ... ... ... ... 
20001028:	20001020 20001020 20001028 20001028      ..  .. (.. (.. 
20001038:	20001030 20001030 20001038 20001038     0.. 0.. 8.. 8.. 
20001048:	20001040 20001040 20001048 20001048     @.. @.. H.. H.. 
20001058:	20001050 20001050 20001058 20001058     P.. P.. X.. X.. 
20001068:	20001060 20001060 20001068 20001068     `.. `.. h.. h.. 
20001078:	20001070 20001070 20001078 20001078     p.. p.. x.. x.. 
20001088:	20001080 20001080 20001088 20001088     ... ... ... ... 
20001098:	20001090 20001090 20001098 20001098     ... ... ... ... 
200010a8:	200010a0 200010a0 200010a8 200010a8     ... ... ... ... 
200010b8:	200010b0 200010b0 200010b8 200010b8     ... ... ... ... 
200010c8:	200010c0 200010c0 200010c8 200010c8     ... ... ... ... 
200010d8:	200010d0 200010d0 200010d8 200010d8     ... ... ... ... 
200010e8:	200010e0 200010e0 200010e8 200010e8     ... ... ... ... 
200010f8:	200010f0 200010f0 200010f8 200010f8     ... ... ... ... 
20001108:	20001100 20001100 20001108 20001108     ... ... ... ... 
20001118:	20001110 20001110 20001118 20001118     ... ... ... ... 
20001128:	20001120 20001120 20001128 20001128      ..  .. (.. (.. 
20001138:	20001130 20001130 20001138 20001138     0.. 0.. 8.. 8.. 
20001148:	20001140 20001140 20001148 20001148     @.. @.. H.. H.. 
20001158:	20001150 20001150 20001158 20001158     P.. P.. X.. X.. 
20001168:	20001160 20001160 20001168 20001168     `.. `.. h.. h.. 
20001178:	20001170 20001170 20001178 20001178     p.. p.. x.. x.. 
20001188:	20001180 20001180 20001188 20001188     ... ... ... ... 
20001198:	20001190 20001190 20001198 20001198     ... ... ... ... 
200011a8:	200011a0 200011a0 200011a8 200011a8     ... ... ... ... 
200011b8:	200011b0 200011b0 200011b8 200011b8     ... ... ... ... 
200011c8:	200011c0 200011c0 200011c8 200011c8     ... ... ... ... 
200011d8:	200011d0 200011d0 200011d8 200011d8     ... ... ... ... 
200011e8:	200011e0 200011e0 200011e8 200011e8     ... ... ... ... 
200011f8:	200011f0 200011f0 200011f8 200011f8     ... ... ... ... 
20001208:	20001200 20001200 20001208 20001208     ... ... ... ... 
20001218:	20001210 20001210 20001218 20001218     ... ... ... ... 
20001228:	20001220 20001220 20001228 20001228      ..  .. (.. (.. 
20001238:	20001230 20001230 20001238 20001238     0.. 0.. 8.. 8.. 
20001248:	20001240 20001240 20001248 20001248     @.. @.. H.. H.. 
20001258:	20001250 20001250 20001258 20001258     P.. P.. X.. X.. 
20001268:	20001260 20001260 20001268 20001268     `.. `.. h.. h.. 
20001278:	20001270 20001270 20001278 20001278     p.. p.. x.. x.. 
20001288:	20001280 20001280 20001288 20001288     ... ... ... ... 
20001298:	20001290 20001290 20001298 20001298     ... ... ... ... 
200012a8:	200012a0 200012a0 200012a8 200012a8     ... ... ... ... 
200012b8:	200012b0 200012b0 200012b8 200012b8     ... ... ... ... 
200012c8:	200012c0 200012c0 200012c8 200012c8     ... ... ... ... 

200012d8 <_impure_ptr>:
200012d8:	200012e0 00000000                       ... ....

200012e0 <_impure_data>:
200012e0:	00000000 20001754 200017bc 20001824     ....T.. ... $.. 
	...
20001378:	00000001 00000000 abcd330e e66d1234     .........3..4.m.
20001388:	0005deec 0000000b 00000000 00000000     ................
	...

20001400 <__global_locale>:
20001400:	00000043 00000000 00000000 00000000     C...............
	...
20001420:	00000043 00000000 00000000 00000000     C...............
	...
20001440:	00000043 00000000 00000000 00000000     C...............
	...
20001460:	00000043 00000000 00000000 00000000     C...............
	...
20001480:	00000043 00000000 00000000 00000000     C...............
	...
200014a0:	00000043 00000000 00000000 00000000     C...............
	...
200014c0:	00000043 00000000 00000000 00000000     C...............
	...
200014e0:	1000a91d 1000966d 00000000 1000ccb4     ....m...........
200014f0:	1000c938 1000c438 1000c438 1000c438     8...8...8...8...
20001500:	1000c438 1000c438 1000c438 1000c438     8...8...8...8...
20001510:	1000c438 1000c438 ffffffff ffffffff     8...8...........
20001520:	ffffffff 0000ffff 53410001 00494943     ..........ASCII.
	...
20001548:	53410000 00494943 00000000 00000000     ..ASCII.........
	...

2000156c <print_mutex>:
	...
